

Microchip MPLAB XC8 Assembler V3.10 build 20250813170317 
                                                                                               Fri Feb 13 13:46:41 2026

Microchip MPLAB XC8 C Compiler v3.10 (Free license) build 20250813170317 Og1 
     1                           	processor	16F877A
     2                           	pagewidth 120
     3                           	opt	flic
     4                           	psect	idataBANK0,global,class=CODE,space=0,delta=2,noexec
     5                           	psect	idataBANK1,global,class=CODE,space=0,delta=2,noexec
     6                           	psect	idataBANK2,global,class=CODE,space=0,delta=2,noexec
     7                           	psect	idataBANK3,global,class=CODE,space=0,delta=2,noexec
     8                           	psect	strings,global,class=STRING,space=0,delta=2,noexec
     9                           	psect	stringtext,global,reloc=256,class=STRCODE,space=0,delta=2,noexec
    10                           	psect	cinit,global,class=CODE,space=0,merge=1,delta=2
    11                           	psect	bssCOMMON,global,class=COMMON,space=1,delta=1,noexec
    12                           	psect	bssBANK0,global,class=BANK0,space=1,delta=1,noexec
    13                           	psect	dataBANK0,global,class=BANK0,space=1,delta=1,noexec
    14                           	psect	bssBANK1,global,class=BANK1,space=1,delta=1,noexec
    15                           	psect	dataBANK1,global,class=BANK1,space=1,delta=1,noexec
    16                           	psect	bssBANK3,global,class=BANK3,space=1,delta=1,noexec
    17                           	psect	dataBANK3,global,class=BANK3,space=1,delta=1,noexec
    18                           	psect	dataBANK2,global,class=BANK2,space=1,delta=1,noexec
    19                           	psect	inittext,global,class=CODE,space=0,delta=2
    20                           	psect	clrtext,global,class=CODE,space=0,delta=2
    21                           	psect	cstackCOMMON,global,class=COMMON,space=1,delta=1,noexec
    22                           	psect	cstackBANK0,global,class=BANK0,space=1,delta=1,noexec
    23                           	psect	maintext,global,class=CODE,space=0,split=1,delta=2
    24                           	psect	text1,local,class=CODE,space=0,merge=1,delta=2
    25                           	psect	text2,local,class=CODE,space=0,merge=1,delta=2
    26                           	psect	text3,local,class=CODE,space=0,merge=1,delta=2
    27                           	psect	text4,local,class=CODE,space=0,merge=1,delta=2
    28                           	psect	text5,local,class=CODE,space=0,merge=1,delta=2,group=1
    29                           	psect	text6,local,class=CODE,space=0,merge=1,delta=2
    30                           	psect	text7,local,class=CODE,space=0,merge=1,delta=2
    31                           	psect	text8,local,class=CODE,space=0,merge=1,delta=2
    32                           	psect	text9,local,class=CODE,space=0,merge=1,delta=2
    33                           	psect	text10,local,class=CODE,space=0,merge=1,delta=2
    34                           	psect	text11,local,class=CODE,space=0,merge=1,delta=2,group=1
    35                           	psect	text12,local,class=CODE,space=0,merge=1,delta=2
    36                           	psect	text13,local,class=CODE,space=0,merge=1,delta=2
    37                           	psect	text14,local,class=CODE,space=0,merge=1,delta=2
    38                           	psect	text15,local,class=CODE,space=0,merge=1,delta=2
    39                           	psect	text16,local,class=CODE,space=0,merge=1,delta=2
    40                           	psect	text17,local,class=CODE,space=0,merge=1,delta=2
    41                           	psect	text18,local,class=CODE,space=0,merge=1,delta=2
    42                           	psect	text19,local,class=CODE,space=0,merge=1,delta=2
    43                           	psect	text20,local,class=CODE,space=0,merge=1,delta=2
    44                           	psect	text21,local,class=CODE,space=0,merge=1,delta=2
    45                           	psect	text22,local,class=CODE,space=0,merge=1,delta=2,group=1
    46                           	psect	text23,local,class=CODE,space=0,merge=1,delta=2
    47                           	psect	text24,local,class=CODE,space=0,merge=1,delta=2
    48                           	psect	text25,local,class=CODE,space=0,merge=1,delta=2
    49                           	psect	text26,local,class=CODE,space=0,merge=1,delta=2
    50                           	psect	text27,local,class=CODE,space=0,merge=1,delta=2
    51                           	psect	text28,local,class=CODE,space=0,merge=1,delta=2
    52                           	psect	text29,local,class=CODE,space=0,merge=1,delta=2
    53                           	psect	text30,local,class=CODE,space=0,merge=1,delta=2
    54                           	psect	text31,local,class=CODE,space=0,merge=1,delta=2
    55                           	psect	text32,local,class=CODE,space=0,merge=1,delta=2
    56                           	psect	text33,local,class=CODE,space=0,merge=1,delta=2
    57                           	psect	text34,local,class=CODE,space=0,merge=1,delta=2
    58                           	psect	text35,local,class=CODE,space=0,merge=1,delta=2
    59                           	psect	text36,local,class=CODE,space=0,merge=1,delta=2
    60                           	psect	text37,local,class=CODE,space=0,merge=1,delta=2
    61                           	psect	text38,local,class=CODE,space=0,merge=1,delta=2,group=1
    62                           	psect	text39,local,class=CODE,space=0,merge=1,delta=2,group=1
    63                           	psect	text40,local,class=CODE,space=0,merge=1,delta=2,group=1
    64                           	psect	text41,local,class=CODE,space=0,merge=1,delta=2,group=1
    65                           	psect	text42,local,class=CODE,space=0,merge=1,delta=2,group=1
    66                           	psect	text43,local,class=CODE,space=0,merge=1,delta=2
    67                           	psect	text44,local,class=CODE,space=0,merge=1,delta=2
    68                           	psect	text45,local,class=CODE,space=0,merge=1,delta=2
    69                           	psect	text46,local,class=CODE,space=0,merge=1,delta=2
    70                           	psect	text47,local,class=CODE,space=0,merge=1,delta=2
    71                           	psect	text48,local,class=CODE,space=0,merge=1,delta=2
    72                           	psect	text49,local,class=CODE,space=0,merge=1,delta=2
    73                           	psect	text50,local,class=CODE,space=0,merge=1,delta=2
    74                           	psect	intentry,global,class=CODE,space=0,delta=2
    75                           	psect	config,global,abs,ovrld,class=CONFIG,space=4,delta=2,noexec
    76                           	dabs	1,0x7E,2
    77     0000                     
    78                           ; Generated 22/03/2023 GMT
    79                           ; 
    80                           ; Copyright © 2023, Microchip Technology Inc. and its subsidiaries ("Microchip")
    81                           ; All rights reserved.
    82                           ; 
    83                           ; This software is developed by Microchip Technology Inc. and its subsidiaries ("Microch
      +                          ip").
    84                           ; 
    85                           ; Redistribution and use in source and binary forms, with or without modification, are
    86                           ; permitted provided that the following conditions are met:
    87                           ; 
    88                           ;     1. Redistributions of source code must retain the above copyright notice, this lis
      +                          t of
    89                           ;        conditions and the following disclaimer.
    90                           ; 
    91                           ;     2. Redistributions in binary form must reproduce the above copyright notice, this 
      +                          list
    92                           ;        of conditions and the following disclaimer in the documentation and/or other
    93                           ;        materials provided with the distribution. Publication is not required when
    94                           ;        this file is used in an embedded application.
    95                           ; 
    96                           ;     3. Microchip's name may not be used to endorse or promote products derived from th
      +                          is
    97                           ;        software without specific prior written permission.
    98                           ; 
    99                           ; THIS SOFTWARE IS PROVIDED BY MICROCHIP "AS IS" AND ANY EXPRESS OR IMPLIED WARRANTIES,
   100                           ; INCLUDING, BUT NOT LIMITED TO, THE IMPLIED WARRANTIES OF MERCHANTABILITY AND FITNESS F
      +                          OR
   101                           ; PURPOSE ARE DISCLAIMED.  IN NO EVENT SHALL MICROCHIP BE LIABLE FOR ANY DIRECT, INDIREC
      +                          T,
   102                           ; INCIDENTAL, SPECIAL, EXEMPLARY, OR CONSEQUENTIAL DAMAGES (INCLUDING BUT NOT LIMITED TO
   103                           ; PROCUREMENT OF SUBSTITUTE GOODS OR SERVICES; LOSS OF USE, DATA OR PROFITS; OR BUSINESS
   104                           ; INTERRUPTION) HOWSOEVER CAUSED AND ON ANY THEORY OF LIABILITY, WHETHER IN CONTRACT, ST
      +                          RICT
   105                           ; LIABILITY, OR TORT (INCLUDING NEGLIGENCE OR OTHERWISE) ARISING IN ANY WAY OUT OF THE U
      +                          SE OF
   106                           ; THIS SOFTWARE, EVEN IF ADVISED OF THE POSSIBILITY OF SUCH DAMAGE.
   107                           ; 
   108                           ; 
   109                           ; Code-generator required, PIC16F877A Definitions
   110                           ; 
   111                           ; SFR Addresses
   112     0004                     fsr             equ	4
   113     0004                     fsr0            equ	4
   114     0000                     indf            equ	0
   115     0000                     indf0           equ	0
   116     0002                     pc              equ	2
   117     0002                     pcl             equ	2
   118     000A                     pclath          equ	10
   119     0003                     status          equ	3
   120     0000                     INDF            equ	0	;# 
   121     0001                     TMR0            equ	1	;# 
   122     0002                     PCL             equ	2	;# 
   123     0003                     STATUS          equ	3	;# 
   124     0004                     FSR             equ	4	;# 
   125     0005                     PORTA           equ	5	;# 
   126     0006                     PORTB           equ	6	;# 
   127     0007                     PORTC           equ	7	;# 
   128     0008                     PORTD           equ	8	;# 
   129     0009                     PORTE           equ	9	;# 
   130     000A                     PCLATH          equ	10	;# 
   131     000B                     INTCON          equ	11	;# 
   132     000C                     PIR1            equ	12	;# 
   133     000D                     PIR2            equ	13	;# 
   134     000E                     TMR1            equ	14	;# 
   135     000E                     TMR1L           equ	14	;# 
   136     000F                     TMR1H           equ	15	;# 
   137     0010                     T1CON           equ	16	;# 
   138     0011                     TMR2            equ	17	;# 
   139     0012                     T2CON           equ	18	;# 
   140     0013                     SSPBUF          equ	19	;# 
   141     0014                     SSPCON          equ	20	;# 
   142     0015                     CCPR1           equ	21	;# 
   143     0015                     CCPR1L          equ	21	;# 
   144     0016                     CCPR1H          equ	22	;# 
   145     0017                     CCP1CON         equ	23	;# 
   146     0018                     RCSTA           equ	24	;# 
   147     0019                     TXREG           equ	25	;# 
   148     001A                     RCREG           equ	26	;# 
   149     001B                     CCPR2           equ	27	;# 
   150     001B                     CCPR2L          equ	27	;# 
   151     001C                     CCPR2H          equ	28	;# 
   152     001D                     CCP2CON         equ	29	;# 
   153     001E                     ADRESH          equ	30	;# 
   154     001F                     ADCON0          equ	31	;# 
   155     0081                     OPTION_REG      equ	129	;# 
   156     0085                     TRISA           equ	133	;# 
   157     0086                     TRISB           equ	134	;# 
   158     0087                     TRISC           equ	135	;# 
   159     0088                     TRISD           equ	136	;# 
   160     0089                     TRISE           equ	137	;# 
   161     008C                     PIE1            equ	140	;# 
   162     008D                     PIE2            equ	141	;# 
   163     008E                     PCON            equ	142	;# 
   164     0091                     SSPCON2         equ	145	;# 
   165     0092                     PR2             equ	146	;# 
   166     0093                     SSPADD          equ	147	;# 
   167     0094                     SSPSTAT         equ	148	;# 
   168     0098                     TXSTA           equ	152	;# 
   169     0099                     SPBRG           equ	153	;# 
   170     009C                     CMCON           equ	156	;# 
   171     009D                     CVRCON          equ	157	;# 
   172     009E                     ADRESL          equ	158	;# 
   173     009F                     ADCON1          equ	159	;# 
   174     010C                     EEDATA          equ	268	;# 
   175     010D                     EEADR           equ	269	;# 
   176     010E                     EEDATH          equ	270	;# 
   177     010F                     EEADRH          equ	271	;# 
   178     018C                     EECON1          equ	396	;# 
   179     018D                     EECON2          equ	397	;# 
   180     0000                     INDF            equ	0	;# 
   181     0001                     TMR0            equ	1	;# 
   182     0002                     PCL             equ	2	;# 
   183     0003                     STATUS          equ	3	;# 
   184     0004                     FSR             equ	4	;# 
   185     0005                     PORTA           equ	5	;# 
   186     0006                     PORTB           equ	6	;# 
   187     0007                     PORTC           equ	7	;# 
   188     0008                     PORTD           equ	8	;# 
   189     0009                     PORTE           equ	9	;# 
   190     000A                     PCLATH          equ	10	;# 
   191     000B                     INTCON          equ	11	;# 
   192     000C                     PIR1            equ	12	;# 
   193     000D                     PIR2            equ	13	;# 
   194     000E                     TMR1            equ	14	;# 
   195     000E                     TMR1L           equ	14	;# 
   196     000F                     TMR1H           equ	15	;# 
   197     0010                     T1CON           equ	16	;# 
   198     0011                     TMR2            equ	17	;# 
   199     0012                     T2CON           equ	18	;# 
   200     0013                     SSPBUF          equ	19	;# 
   201     0014                     SSPCON          equ	20	;# 
   202     0015                     CCPR1           equ	21	;# 
   203     0015                     CCPR1L          equ	21	;# 
   204     0016                     CCPR1H          equ	22	;# 
   205     0017                     CCP1CON         equ	23	;# 
   206     0018                     RCSTA           equ	24	;# 
   207     0019                     TXREG           equ	25	;# 
   208     001A                     RCREG           equ	26	;# 
   209     001B                     CCPR2           equ	27	;# 
   210     001B                     CCPR2L          equ	27	;# 
   211     001C                     CCPR2H          equ	28	;# 
   212     001D                     CCP2CON         equ	29	;# 
   213     001E                     ADRESH          equ	30	;# 
   214     001F                     ADCON0          equ	31	;# 
   215     0081                     OPTION_REG      equ	129	;# 
   216     0085                     TRISA           equ	133	;# 
   217     0086                     TRISB           equ	134	;# 
   218     0087                     TRISC           equ	135	;# 
   219     0088                     TRISD           equ	136	;# 
   220     0089                     TRISE           equ	137	;# 
   221     008C                     PIE1            equ	140	;# 
   222     008D                     PIE2            equ	141	;# 
   223     008E                     PCON            equ	142	;# 
   224     0091                     SSPCON2         equ	145	;# 
   225     0092                     PR2             equ	146	;# 
   226     0093                     SSPADD          equ	147	;# 
   227     0094                     SSPSTAT         equ	148	;# 
   228     0098                     TXSTA           equ	152	;# 
   229     0099                     SPBRG           equ	153	;# 
   230     009C                     CMCON           equ	156	;# 
   231     009D                     CVRCON          equ	157	;# 
   232     009E                     ADRESL          equ	158	;# 
   233     009F                     ADCON1          equ	159	;# 
   234     010C                     EEDATA          equ	268	;# 
   235     010D                     EEADR           equ	269	;# 
   236     010E                     EEDATH          equ	270	;# 
   237     010F                     EEADRH          equ	271	;# 
   238     018C                     EECON1          equ	396	;# 
   239     018D                     EECON2          equ	397	;# 
   240     0000                     INDF            equ	0	;# 
   241     0001                     TMR0            equ	1	;# 
   242     0002                     PCL             equ	2	;# 
   243     0003                     STATUS          equ	3	;# 
   244     0004                     FSR             equ	4	;# 
   245     0005                     PORTA           equ	5	;# 
   246     0006                     PORTB           equ	6	;# 
   247     0007                     PORTC           equ	7	;# 
   248     0008                     PORTD           equ	8	;# 
   249     0009                     PORTE           equ	9	;# 
   250     000A                     PCLATH          equ	10	;# 
   251     000B                     INTCON          equ	11	;# 
   252     000C                     PIR1            equ	12	;# 
   253     000D                     PIR2            equ	13	;# 
   254     000E                     TMR1            equ	14	;# 
   255     000E                     TMR1L           equ	14	;# 
   256     000F                     TMR1H           equ	15	;# 
   257     0010                     T1CON           equ	16	;# 
   258     0011                     TMR2            equ	17	;# 
   259     0012                     T2CON           equ	18	;# 
   260     0013                     SSPBUF          equ	19	;# 
   261     0014                     SSPCON          equ	20	;# 
   262     0015                     CCPR1           equ	21	;# 
   263     0015                     CCPR1L          equ	21	;# 
   264     0016                     CCPR1H          equ	22	;# 
   265     0017                     CCP1CON         equ	23	;# 
   266     0018                     RCSTA           equ	24	;# 
   267     0019                     TXREG           equ	25	;# 
   268     001A                     RCREG           equ	26	;# 
   269     001B                     CCPR2           equ	27	;# 
   270     001B                     CCPR2L          equ	27	;# 
   271     001C                     CCPR2H          equ	28	;# 
   272     001D                     CCP2CON         equ	29	;# 
   273     001E                     ADRESH          equ	30	;# 
   274     001F                     ADCON0          equ	31	;# 
   275     0081                     OPTION_REG      equ	129	;# 
   276     0085                     TRISA           equ	133	;# 
   277     0086                     TRISB           equ	134	;# 
   278     0087                     TRISC           equ	135	;# 
   279     0088                     TRISD           equ	136	;# 
   280     0089                     TRISE           equ	137	;# 
   281     008C                     PIE1            equ	140	;# 
   282     008D                     PIE2            equ	141	;# 
   283     008E                     PCON            equ	142	;# 
   284     0091                     SSPCON2         equ	145	;# 
   285     0092                     PR2             equ	146	;# 
   286     0093                     SSPADD          equ	147	;# 
   287     0094                     SSPSTAT         equ	148	;# 
   288     0098                     TXSTA           equ	152	;# 
   289     0099                     SPBRG           equ	153	;# 
   290     009C                     CMCON           equ	156	;# 
   291     009D                     CVRCON          equ	157	;# 
   292     009E                     ADRESL          equ	158	;# 
   293     009F                     ADCON1          equ	159	;# 
   294     010C                     EEDATA          equ	268	;# 
   295     010D                     EEADR           equ	269	;# 
   296     010E                     EEDATH          equ	270	;# 
   297     010F                     EEADRH          equ	271	;# 
   298     018C                     EECON1          equ	396	;# 
   299     018D                     EECON2          equ	397	;# 
   300     0000                     INDF            equ	0	;# 
   301     0001                     TMR0            equ	1	;# 
   302     0002                     PCL             equ	2	;# 
   303     0003                     STATUS          equ	3	;# 
   304     0004                     FSR             equ	4	;# 
   305     0005                     PORTA           equ	5	;# 
   306     0006                     PORTB           equ	6	;# 
   307     0007                     PORTC           equ	7	;# 
   308     0008                     PORTD           equ	8	;# 
   309     0009                     PORTE           equ	9	;# 
   310     000A                     PCLATH          equ	10	;# 
   311     000B                     INTCON          equ	11	;# 
   312     000C                     PIR1            equ	12	;# 
   313     000D                     PIR2            equ	13	;# 
   314     000E                     TMR1            equ	14	;# 
   315     000E                     TMR1L           equ	14	;# 
   316     000F                     TMR1H           equ	15	;# 
   317     0010                     T1CON           equ	16	;# 
   318     0011                     TMR2            equ	17	;# 
   319     0012                     T2CON           equ	18	;# 
   320     0013                     SSPBUF          equ	19	;# 
   321     0014                     SSPCON          equ	20	;# 
   322     0015                     CCPR1           equ	21	;# 
   323     0015                     CCPR1L          equ	21	;# 
   324     0016                     CCPR1H          equ	22	;# 
   325     0017                     CCP1CON         equ	23	;# 
   326     0018                     RCSTA           equ	24	;# 
   327     0019                     TXREG           equ	25	;# 
   328     001A                     RCREG           equ	26	;# 
   329     001B                     CCPR2           equ	27	;# 
   330     001B                     CCPR2L          equ	27	;# 
   331     001C                     CCPR2H          equ	28	;# 
   332     001D                     CCP2CON         equ	29	;# 
   333     001E                     ADRESH          equ	30	;# 
   334     001F                     ADCON0          equ	31	;# 
   335     0081                     OPTION_REG      equ	129	;# 
   336     0085                     TRISA           equ	133	;# 
   337     0086                     TRISB           equ	134	;# 
   338     0087                     TRISC           equ	135	;# 
   339     0088                     TRISD           equ	136	;# 
   340     0089                     TRISE           equ	137	;# 
   341     008C                     PIE1            equ	140	;# 
   342     008D                     PIE2            equ	141	;# 
   343     008E                     PCON            equ	142	;# 
   344     0091                     SSPCON2         equ	145	;# 
   345     0092                     PR2             equ	146	;# 
   346     0093                     SSPADD          equ	147	;# 
   347     0094                     SSPSTAT         equ	148	;# 
   348     0098                     TXSTA           equ	152	;# 
   349     0099                     SPBRG           equ	153	;# 
   350     009C                     CMCON           equ	156	;# 
   351     009D                     CVRCON          equ	157	;# 
   352     009E                     ADRESL          equ	158	;# 
   353     009F                     ADCON1          equ	159	;# 
   354     010C                     EEDATA          equ	268	;# 
   355     010D                     EEADR           equ	269	;# 
   356     010E                     EEDATH          equ	270	;# 
   357     010F                     EEADRH          equ	271	;# 
   358     018C                     EECON1          equ	396	;# 
   359     018D                     EECON2          equ	397	;# 
   360     0000                     INDF            equ	0	;# 
   361     0001                     TMR0            equ	1	;# 
   362     0002                     PCL             equ	2	;# 
   363     0003                     STATUS          equ	3	;# 
   364     0004                     FSR             equ	4	;# 
   365     0005                     PORTA           equ	5	;# 
   366     0006                     PORTB           equ	6	;# 
   367     0007                     PORTC           equ	7	;# 
   368     0008                     PORTD           equ	8	;# 
   369     0009                     PORTE           equ	9	;# 
   370     000A                     PCLATH          equ	10	;# 
   371     000B                     INTCON          equ	11	;# 
   372     000C                     PIR1            equ	12	;# 
   373     000D                     PIR2            equ	13	;# 
   374     000E                     TMR1            equ	14	;# 
   375     000E                     TMR1L           equ	14	;# 
   376     000F                     TMR1H           equ	15	;# 
   377     0010                     T1CON           equ	16	;# 
   378     0011                     TMR2            equ	17	;# 
   379     0012                     T2CON           equ	18	;# 
   380     0013                     SSPBUF          equ	19	;# 
   381     0014                     SSPCON          equ	20	;# 
   382     0015                     CCPR1           equ	21	;# 
   383     0015                     CCPR1L          equ	21	;# 
   384     0016                     CCPR1H          equ	22	;# 
   385     0017                     CCP1CON         equ	23	;# 
   386     0018                     RCSTA           equ	24	;# 
   387     0019                     TXREG           equ	25	;# 
   388     001A                     RCREG           equ	26	;# 
   389     001B                     CCPR2           equ	27	;# 
   390     001B                     CCPR2L          equ	27	;# 
   391     001C                     CCPR2H          equ	28	;# 
   392     001D                     CCP2CON         equ	29	;# 
   393     001E                     ADRESH          equ	30	;# 
   394     001F                     ADCON0          equ	31	;# 
   395     0081                     OPTION_REG      equ	129	;# 
   396     0085                     TRISA           equ	133	;# 
   397     0086                     TRISB           equ	134	;# 
   398     0087                     TRISC           equ	135	;# 
   399     0088                     TRISD           equ	136	;# 
   400     0089                     TRISE           equ	137	;# 
   401     008C                     PIE1            equ	140	;# 
   402     008D                     PIE2            equ	141	;# 
   403     008E                     PCON            equ	142	;# 
   404     0091                     SSPCON2         equ	145	;# 
   405     0092                     PR2             equ	146	;# 
   406     0093                     SSPADD          equ	147	;# 
   407     0094                     SSPSTAT         equ	148	;# 
   408     0098                     TXSTA           equ	152	;# 
   409     0099                     SPBRG           equ	153	;# 
   410     009C                     CMCON           equ	156	;# 
   411     009D                     CVRCON          equ	157	;# 
   412     009E                     ADRESL          equ	158	;# 
   413     009F                     ADCON1          equ	159	;# 
   414     010C                     EEDATA          equ	268	;# 
   415     010D                     EEADR           equ	269	;# 
   416     010E                     EEDATH          equ	270	;# 
   417     010F                     EEADRH          equ	271	;# 
   418     018C                     EECON1          equ	396	;# 
   419     018D                     EECON2          equ	397	;# 
   420     0000                     INDF            equ	0	;# 
   421     0001                     TMR0            equ	1	;# 
   422     0002                     PCL             equ	2	;# 
   423     0003                     STATUS          equ	3	;# 
   424     0004                     FSR             equ	4	;# 
   425     0005                     PORTA           equ	5	;# 
   426     0006                     PORTB           equ	6	;# 
   427     0007                     PORTC           equ	7	;# 
   428     0008                     PORTD           equ	8	;# 
   429     0009                     PORTE           equ	9	;# 
   430     000A                     PCLATH          equ	10	;# 
   431     000B                     INTCON          equ	11	;# 
   432     000C                     PIR1            equ	12	;# 
   433     000D                     PIR2            equ	13	;# 
   434     000E                     TMR1            equ	14	;# 
   435     000E                     TMR1L           equ	14	;# 
   436     000F                     TMR1H           equ	15	;# 
   437     0010                     T1CON           equ	16	;# 
   438     0011                     TMR2            equ	17	;# 
   439     0012                     T2CON           equ	18	;# 
   440     0013                     SSPBUF          equ	19	;# 
   441     0014                     SSPCON          equ	20	;# 
   442     0015                     CCPR1           equ	21	;# 
   443     0015                     CCPR1L          equ	21	;# 
   444     0016                     CCPR1H          equ	22	;# 
   445     0017                     CCP1CON         equ	23	;# 
   446     0018                     RCSTA           equ	24	;# 
   447     0019                     TXREG           equ	25	;# 
   448     001A                     RCREG           equ	26	;# 
   449     001B                     CCPR2           equ	27	;# 
   450     001B                     CCPR2L          equ	27	;# 
   451     001C                     CCPR2H          equ	28	;# 
   452     001D                     CCP2CON         equ	29	;# 
   453     001E                     ADRESH          equ	30	;# 
   454     001F                     ADCON0          equ	31	;# 
   455     0081                     OPTION_REG      equ	129	;# 
   456     0085                     TRISA           equ	133	;# 
   457     0086                     TRISB           equ	134	;# 
   458     0087                     TRISC           equ	135	;# 
   459     0088                     TRISD           equ	136	;# 
   460     0089                     TRISE           equ	137	;# 
   461     008C                     PIE1            equ	140	;# 
   462     008D                     PIE2            equ	141	;# 
   463     008E                     PCON            equ	142	;# 
   464     0091                     SSPCON2         equ	145	;# 
   465     0092                     PR2             equ	146	;# 
   466     0093                     SSPADD          equ	147	;# 
   467     0094                     SSPSTAT         equ	148	;# 
   468     0098                     TXSTA           equ	152	;# 
   469     0099                     SPBRG           equ	153	;# 
   470     009C                     CMCON           equ	156	;# 
   471     009D                     CVRCON          equ	157	;# 
   472     009E                     ADRESL          equ	158	;# 
   473     009F                     ADCON1          equ	159	;# 
   474     010C                     EEDATA          equ	268	;# 
   475     010D                     EEADR           equ	269	;# 
   476     010E                     EEDATH          equ	270	;# 
   477     010F                     EEADRH          equ	271	;# 
   478     018C                     EECON1          equ	396	;# 
   479     018D                     EECON2          equ	397	;# 
   480     0000                     INDF            equ	0	;# 
   481     0001                     TMR0            equ	1	;# 
   482     0002                     PCL             equ	2	;# 
   483     0003                     STATUS          equ	3	;# 
   484     0004                     FSR             equ	4	;# 
   485     0005                     PORTA           equ	5	;# 
   486     0006                     PORTB           equ	6	;# 
   487     0007                     PORTC           equ	7	;# 
   488     0008                     PORTD           equ	8	;# 
   489     0009                     PORTE           equ	9	;# 
   490     000A                     PCLATH          equ	10	;# 
   491     000B                     INTCON          equ	11	;# 
   492     000C                     PIR1            equ	12	;# 
   493     000D                     PIR2            equ	13	;# 
   494     000E                     TMR1            equ	14	;# 
   495     000E                     TMR1L           equ	14	;# 
   496     000F                     TMR1H           equ	15	;# 
   497     0010                     T1CON           equ	16	;# 
   498     0011                     TMR2            equ	17	;# 
   499     0012                     T2CON           equ	18	;# 
   500     0013                     SSPBUF          equ	19	;# 
   501     0014                     SSPCON          equ	20	;# 
   502     0015                     CCPR1           equ	21	;# 
   503     0015                     CCPR1L          equ	21	;# 
   504     0016                     CCPR1H          equ	22	;# 
   505     0017                     CCP1CON         equ	23	;# 
   506     0018                     RCSTA           equ	24	;# 
   507     0019                     TXREG           equ	25	;# 
   508     001A                     RCREG           equ	26	;# 
   509     001B                     CCPR2           equ	27	;# 
   510     001B                     CCPR2L          equ	27	;# 
   511     001C                     CCPR2H          equ	28	;# 
   512     001D                     CCP2CON         equ	29	;# 
   513     001E                     ADRESH          equ	30	;# 
   514     001F                     ADCON0          equ	31	;# 
   515     0081                     OPTION_REG      equ	129	;# 
   516     0085                     TRISA           equ	133	;# 
   517     0086                     TRISB           equ	134	;# 
   518     0087                     TRISC           equ	135	;# 
   519     0088                     TRISD           equ	136	;# 
   520     0089                     TRISE           equ	137	;# 
   521     008C                     PIE1            equ	140	;# 
   522     008D                     PIE2            equ	141	;# 
   523     008E                     PCON            equ	142	;# 
   524     0091                     SSPCON2         equ	145	;# 
   525     0092                     PR2             equ	146	;# 
   526     0093                     SSPADD          equ	147	;# 
   527     0094                     SSPSTAT         equ	148	;# 
   528     0098                     TXSTA           equ	152	;# 
   529     0099                     SPBRG           equ	153	;# 
   530     009C                     CMCON           equ	156	;# 
   531     009D                     CVRCON          equ	157	;# 
   532     009E                     ADRESL          equ	158	;# 
   533     009F                     ADCON1          equ	159	;# 
   534     010C                     EEDATA          equ	268	;# 
   535     010D                     EEADR           equ	269	;# 
   536     010E                     EEDATH          equ	270	;# 
   537     010F                     EEADRH          equ	271	;# 
   538     018C                     EECON1          equ	396	;# 
   539     018D                     EECON2          equ	397	;# 
   540     0000                     INDF            equ	0	;# 
   541     0001                     TMR0            equ	1	;# 
   542     0002                     PCL             equ	2	;# 
   543     0003                     STATUS          equ	3	;# 
   544     0004                     FSR             equ	4	;# 
   545     0005                     PORTA           equ	5	;# 
   546     0006                     PORTB           equ	6	;# 
   547     0007                     PORTC           equ	7	;# 
   548     0008                     PORTD           equ	8	;# 
   549     0009                     PORTE           equ	9	;# 
   550     000A                     PCLATH          equ	10	;# 
   551     000B                     INTCON          equ	11	;# 
   552     000C                     PIR1            equ	12	;# 
   553     000D                     PIR2            equ	13	;# 
   554     000E                     TMR1            equ	14	;# 
   555     000E                     TMR1L           equ	14	;# 
   556     000F                     TMR1H           equ	15	;# 
   557     0010                     T1CON           equ	16	;# 
   558     0011                     TMR2            equ	17	;# 
   559     0012                     T2CON           equ	18	;# 
   560     0013                     SSPBUF          equ	19	;# 
   561     0014                     SSPCON          equ	20	;# 
   562     0015                     CCPR1           equ	21	;# 
   563     0015                     CCPR1L          equ	21	;# 
   564     0016                     CCPR1H          equ	22	;# 
   565     0017                     CCP1CON         equ	23	;# 
   566     0018                     RCSTA           equ	24	;# 
   567     0019                     TXREG           equ	25	;# 
   568     001A                     RCREG           equ	26	;# 
   569     001B                     CCPR2           equ	27	;# 
   570     001B                     CCPR2L          equ	27	;# 
   571     001C                     CCPR2H          equ	28	;# 
   572     001D                     CCP2CON         equ	29	;# 
   573     001E                     ADRESH          equ	30	;# 
   574     001F                     ADCON0          equ	31	;# 
   575     0081                     OPTION_REG      equ	129	;# 
   576     0085                     TRISA           equ	133	;# 
   577     0086                     TRISB           equ	134	;# 
   578     0087                     TRISC           equ	135	;# 
   579     0088                     TRISD           equ	136	;# 
   580     0089                     TRISE           equ	137	;# 
   581     008C                     PIE1            equ	140	;# 
   582     008D                     PIE2            equ	141	;# 
   583     008E                     PCON            equ	142	;# 
   584     0091                     SSPCON2         equ	145	;# 
   585     0092                     PR2             equ	146	;# 
   586     0093                     SSPADD          equ	147	;# 
   587     0094                     SSPSTAT         equ	148	;# 
   588     0098                     TXSTA           equ	152	;# 
   589     0099                     SPBRG           equ	153	;# 
   590     009C                     CMCON           equ	156	;# 
   591     009D                     CVRCON          equ	157	;# 
   592     009E                     ADRESL          equ	158	;# 
   593     009F                     ADCON1          equ	159	;# 
   594     010C                     EEDATA          equ	268	;# 
   595     010D                     EEADR           equ	269	;# 
   596     010E                     EEDATH          equ	270	;# 
   597     010F                     EEADRH          equ	271	;# 
   598     018C                     EECON1          equ	396	;# 
   599     018D                     EECON2          equ	397	;# 
   600     0000                     INDF            equ	0	;# 
   601     0001                     TMR0            equ	1	;# 
   602     0002                     PCL             equ	2	;# 
   603     0003                     STATUS          equ	3	;# 
   604     0004                     FSR             equ	4	;# 
   605     0005                     PORTA           equ	5	;# 
   606     0006                     PORTB           equ	6	;# 
   607     0007                     PORTC           equ	7	;# 
   608     0008                     PORTD           equ	8	;# 
   609     0009                     PORTE           equ	9	;# 
   610     000A                     PCLATH          equ	10	;# 
   611     000B                     INTCON          equ	11	;# 
   612     000C                     PIR1            equ	12	;# 
   613     000D                     PIR2            equ	13	;# 
   614     000E                     TMR1            equ	14	;# 
   615     000E                     TMR1L           equ	14	;# 
   616     000F                     TMR1H           equ	15	;# 
   617     0010                     T1CON           equ	16	;# 
   618     0011                     TMR2            equ	17	;# 
   619     0012                     T2CON           equ	18	;# 
   620     0013                     SSPBUF          equ	19	;# 
   621     0014                     SSPCON          equ	20	;# 
   622     0015                     CCPR1           equ	21	;# 
   623     0015                     CCPR1L          equ	21	;# 
   624     0016                     CCPR1H          equ	22	;# 
   625     0017                     CCP1CON         equ	23	;# 
   626     0018                     RCSTA           equ	24	;# 
   627     0019                     TXREG           equ	25	;# 
   628     001A                     RCREG           equ	26	;# 
   629     001B                     CCPR2           equ	27	;# 
   630     001B                     CCPR2L          equ	27	;# 
   631     001C                     CCPR2H          equ	28	;# 
   632     001D                     CCP2CON         equ	29	;# 
   633     001E                     ADRESH          equ	30	;# 
   634     001F                     ADCON0          equ	31	;# 
   635     0081                     OPTION_REG      equ	129	;# 
   636     0085                     TRISA           equ	133	;# 
   637     0086                     TRISB           equ	134	;# 
   638     0087                     TRISC           equ	135	;# 
   639     0088                     TRISD           equ	136	;# 
   640     0089                     TRISE           equ	137	;# 
   641     008C                     PIE1            equ	140	;# 
   642     008D                     PIE2            equ	141	;# 
   643     008E                     PCON            equ	142	;# 
   644     0091                     SSPCON2         equ	145	;# 
   645     0092                     PR2             equ	146	;# 
   646     0093                     SSPADD          equ	147	;# 
   647     0094                     SSPSTAT         equ	148	;# 
   648     0098                     TXSTA           equ	152	;# 
   649     0099                     SPBRG           equ	153	;# 
   650     009C                     CMCON           equ	156	;# 
   651     009D                     CVRCON          equ	157	;# 
   652     009E                     ADRESL          equ	158	;# 
   653     009F                     ADCON1          equ	159	;# 
   654     010C                     EEDATA          equ	268	;# 
   655     010D                     EEADR           equ	269	;# 
   656     010E                     EEDATH          equ	270	;# 
   657     010F                     EEADRH          equ	271	;# 
   658     018C                     EECON1          equ	396	;# 
   659     018D                     EECON2          equ	397	;# 
   660     0000                     INDF            equ	0	;# 
   661     0001                     TMR0            equ	1	;# 
   662     0002                     PCL             equ	2	;# 
   663     0003                     STATUS          equ	3	;# 
   664     0004                     FSR             equ	4	;# 
   665     0005                     PORTA           equ	5	;# 
   666     0006                     PORTB           equ	6	;# 
   667     0007                     PORTC           equ	7	;# 
   668     0008                     PORTD           equ	8	;# 
   669     0009                     PORTE           equ	9	;# 
   670     000A                     PCLATH          equ	10	;# 
   671     000B                     INTCON          equ	11	;# 
   672     000C                     PIR1            equ	12	;# 
   673     000D                     PIR2            equ	13	;# 
   674     000E                     TMR1            equ	14	;# 
   675     000E                     TMR1L           equ	14	;# 
   676     000F                     TMR1H           equ	15	;# 
   677     0010                     T1CON           equ	16	;# 
   678     0011                     TMR2            equ	17	;# 
   679     0012                     T2CON           equ	18	;# 
   680     0013                     SSPBUF          equ	19	;# 
   681     0014                     SSPCON          equ	20	;# 
   682     0015                     CCPR1           equ	21	;# 
   683     0015                     CCPR1L          equ	21	;# 
   684     0016                     CCPR1H          equ	22	;# 
   685     0017                     CCP1CON         equ	23	;# 
   686     0018                     RCSTA           equ	24	;# 
   687     0019                     TXREG           equ	25	;# 
   688     001A                     RCREG           equ	26	;# 
   689     001B                     CCPR2           equ	27	;# 
   690     001B                     CCPR2L          equ	27	;# 
   691     001C                     CCPR2H          equ	28	;# 
   692     001D                     CCP2CON         equ	29	;# 
   693     001E                     ADRESH          equ	30	;# 
   694     001F                     ADCON0          equ	31	;# 
   695     0081                     OPTION_REG      equ	129	;# 
   696     0085                     TRISA           equ	133	;# 
   697     0086                     TRISB           equ	134	;# 
   698     0087                     TRISC           equ	135	;# 
   699     0088                     TRISD           equ	136	;# 
   700     0089                     TRISE           equ	137	;# 
   701     008C                     PIE1            equ	140	;# 
   702     008D                     PIE2            equ	141	;# 
   703     008E                     PCON            equ	142	;# 
   704     0091                     SSPCON2         equ	145	;# 
   705     0092                     PR2             equ	146	;# 
   706     0093                     SSPADD          equ	147	;# 
   707     0094                     SSPSTAT         equ	148	;# 
   708     0098                     TXSTA           equ	152	;# 
   709     0099                     SPBRG           equ	153	;# 
   710     009C                     CMCON           equ	156	;# 
   711     009D                     CVRCON          equ	157	;# 
   712     009E                     ADRESL          equ	158	;# 
   713     009F                     ADCON1          equ	159	;# 
   714     010C                     EEDATA          equ	268	;# 
   715     010D                     EEADR           equ	269	;# 
   716     010E                     EEDATH          equ	270	;# 
   717     010F                     EEADRH          equ	271	;# 
   718     018C                     EECON1          equ	396	;# 
   719     018D                     EECON2          equ	397	;# 
   720     0000                     INDF            equ	0	;# 
   721     0001                     TMR0            equ	1	;# 
   722     0002                     PCL             equ	2	;# 
   723     0003                     STATUS          equ	3	;# 
   724     0004                     FSR             equ	4	;# 
   725     0005                     PORTA           equ	5	;# 
   726     0006                     PORTB           equ	6	;# 
   727     0007                     PORTC           equ	7	;# 
   728     0008                     PORTD           equ	8	;# 
   729     0009                     PORTE           equ	9	;# 
   730     000A                     PCLATH          equ	10	;# 
   731     000B                     INTCON          equ	11	;# 
   732     000C                     PIR1            equ	12	;# 
   733     000D                     PIR2            equ	13	;# 
   734     000E                     TMR1            equ	14	;# 
   735     000E                     TMR1L           equ	14	;# 
   736     000F                     TMR1H           equ	15	;# 
   737     0010                     T1CON           equ	16	;# 
   738     0011                     TMR2            equ	17	;# 
   739     0012                     T2CON           equ	18	;# 
   740     0013                     SSPBUF          equ	19	;# 
   741     0014                     SSPCON          equ	20	;# 
   742     0015                     CCPR1           equ	21	;# 
   743     0015                     CCPR1L          equ	21	;# 
   744     0016                     CCPR1H          equ	22	;# 
   745     0017                     CCP1CON         equ	23	;# 
   746     0018                     RCSTA           equ	24	;# 
   747     0019                     TXREG           equ	25	;# 
   748     001A                     RCREG           equ	26	;# 
   749     001B                     CCPR2           equ	27	;# 
   750     001B                     CCPR2L          equ	27	;# 
   751     001C                     CCPR2H          equ	28	;# 
   752     001D                     CCP2CON         equ	29	;# 
   753     001E                     ADRESH          equ	30	;# 
   754     001F                     ADCON0          equ	31	;# 
   755     0081                     OPTION_REG      equ	129	;# 
   756     0085                     TRISA           equ	133	;# 
   757     0086                     TRISB           equ	134	;# 
   758     0087                     TRISC           equ	135	;# 
   759     0088                     TRISD           equ	136	;# 
   760     0089                     TRISE           equ	137	;# 
   761     008C                     PIE1            equ	140	;# 
   762     008D                     PIE2            equ	141	;# 
   763     008E                     PCON            equ	142	;# 
   764     0091                     SSPCON2         equ	145	;# 
   765     0092                     PR2             equ	146	;# 
   766     0093                     SSPADD          equ	147	;# 
   767     0094                     SSPSTAT         equ	148	;# 
   768     0098                     TXSTA           equ	152	;# 
   769     0099                     SPBRG           equ	153	;# 
   770     009C                     CMCON           equ	156	;# 
   771     009D                     CVRCON          equ	157	;# 
   772     009E                     ADRESL          equ	158	;# 
   773     009F                     ADCON1          equ	159	;# 
   774     010C                     EEDATA          equ	268	;# 
   775     010D                     EEADR           equ	269	;# 
   776     010E                     EEDATH          equ	270	;# 
   777     010F                     EEADRH          equ	271	;# 
   778     018C                     EECON1          equ	396	;# 
   779     018D                     EECON2          equ	397	;# 
   780     0000                     INDF            equ	0	;# 
   781     0001                     TMR0            equ	1	;# 
   782     0002                     PCL             equ	2	;# 
   783     0003                     STATUS          equ	3	;# 
   784     0004                     FSR             equ	4	;# 
   785     0005                     PORTA           equ	5	;# 
   786     0006                     PORTB           equ	6	;# 
   787     0007                     PORTC           equ	7	;# 
   788     0008                     PORTD           equ	8	;# 
   789     0009                     PORTE           equ	9	;# 
   790     000A                     PCLATH          equ	10	;# 
   791     000B                     INTCON          equ	11	;# 
   792     000C                     PIR1            equ	12	;# 
   793     000D                     PIR2            equ	13	;# 
   794     000E                     TMR1            equ	14	;# 
   795     000E                     TMR1L           equ	14	;# 
   796     000F                     TMR1H           equ	15	;# 
   797     0010                     T1CON           equ	16	;# 
   798     0011                     TMR2            equ	17	;# 
   799     0012                     T2CON           equ	18	;# 
   800     0013                     SSPBUF          equ	19	;# 
   801     0014                     SSPCON          equ	20	;# 
   802     0015                     CCPR1           equ	21	;# 
   803     0015                     CCPR1L          equ	21	;# 
   804     0016                     CCPR1H          equ	22	;# 
   805     0017                     CCP1CON         equ	23	;# 
   806     0018                     RCSTA           equ	24	;# 
   807     0019                     TXREG           equ	25	;# 
   808     001A                     RCREG           equ	26	;# 
   809     001B                     CCPR2           equ	27	;# 
   810     001B                     CCPR2L          equ	27	;# 
   811     001C                     CCPR2H          equ	28	;# 
   812     001D                     CCP2CON         equ	29	;# 
   813     001E                     ADRESH          equ	30	;# 
   814     001F                     ADCON0          equ	31	;# 
   815     0081                     OPTION_REG      equ	129	;# 
   816     0085                     TRISA           equ	133	;# 
   817     0086                     TRISB           equ	134	;# 
   818     0087                     TRISC           equ	135	;# 
   819     0088                     TRISD           equ	136	;# 
   820     0089                     TRISE           equ	137	;# 
   821     008C                     PIE1            equ	140	;# 
   822     008D                     PIE2            equ	141	;# 
   823     008E                     PCON            equ	142	;# 
   824     0091                     SSPCON2         equ	145	;# 
   825     0092                     PR2             equ	146	;# 
   826     0093                     SSPADD          equ	147	;# 
   827     0094                     SSPSTAT         equ	148	;# 
   828     0098                     TXSTA           equ	152	;# 
   829     0099                     SPBRG           equ	153	;# 
   830     009C                     CMCON           equ	156	;# 
   831     009D                     CVRCON          equ	157	;# 
   832     009E                     ADRESL          equ	158	;# 
   833     009F                     ADCON1          equ	159	;# 
   834     010C                     EEDATA          equ	268	;# 
   835     010D                     EEADR           equ	269	;# 
   836     010E                     EEDATH          equ	270	;# 
   837     010F                     EEADRH          equ	271	;# 
   838     018C                     EECON1          equ	396	;# 
   839     018D                     EECON2          equ	397	;# 
   840     0000                     INDF            equ	0	;# 
   841     0001                     TMR0            equ	1	;# 
   842     0002                     PCL             equ	2	;# 
   843     0003                     STATUS          equ	3	;# 
   844     0004                     FSR             equ	4	;# 
   845     0005                     PORTA           equ	5	;# 
   846     0006                     PORTB           equ	6	;# 
   847     0007                     PORTC           equ	7	;# 
   848     0008                     PORTD           equ	8	;# 
   849     0009                     PORTE           equ	9	;# 
   850     000A                     PCLATH          equ	10	;# 
   851     000B                     INTCON          equ	11	;# 
   852     000C                     PIR1            equ	12	;# 
   853     000D                     PIR2            equ	13	;# 
   854     000E                     TMR1            equ	14	;# 
   855     000E                     TMR1L           equ	14	;# 
   856     000F                     TMR1H           equ	15	;# 
   857     0010                     T1CON           equ	16	;# 
   858     0011                     TMR2            equ	17	;# 
   859     0012                     T2CON           equ	18	;# 
   860     0013                     SSPBUF          equ	19	;# 
   861     0014                     SSPCON          equ	20	;# 
   862     0015                     CCPR1           equ	21	;# 
   863     0015                     CCPR1L          equ	21	;# 
   864     0016                     CCPR1H          equ	22	;# 
   865     0017                     CCP1CON         equ	23	;# 
   866     0018                     RCSTA           equ	24	;# 
   867     0019                     TXREG           equ	25	;# 
   868     001A                     RCREG           equ	26	;# 
   869     001B                     CCPR2           equ	27	;# 
   870     001B                     CCPR2L          equ	27	;# 
   871     001C                     CCPR2H          equ	28	;# 
   872     001D                     CCP2CON         equ	29	;# 
   873     001E                     ADRESH          equ	30	;# 
   874     001F                     ADCON0          equ	31	;# 
   875     0081                     OPTION_REG      equ	129	;# 
   876     0085                     TRISA           equ	133	;# 
   877     0086                     TRISB           equ	134	;# 
   878     0087                     TRISC           equ	135	;# 
   879     0088                     TRISD           equ	136	;# 
   880     0089                     TRISE           equ	137	;# 
   881     008C                     PIE1            equ	140	;# 
   882     008D                     PIE2            equ	141	;# 
   883     008E                     PCON            equ	142	;# 
   884     0091                     SSPCON2         equ	145	;# 
   885     0092                     PR2             equ	146	;# 
   886     0093                     SSPADD          equ	147	;# 
   887     0094                     SSPSTAT         equ	148	;# 
   888     0098                     TXSTA           equ	152	;# 
   889     0099                     SPBRG           equ	153	;# 
   890     009C                     CMCON           equ	156	;# 
   891     009D                     CVRCON          equ	157	;# 
   892     009E                     ADRESL          equ	158	;# 
   893     009F                     ADCON1          equ	159	;# 
   894     010C                     EEDATA          equ	268	;# 
   895     010D                     EEADR           equ	269	;# 
   896     010E                     EEDATH          equ	270	;# 
   897     010F                     EEADRH          equ	271	;# 
   898     018C                     EECON1          equ	396	;# 
   899     018D                     EECON2          equ	397	;# 
   900     0000                     INDF            equ	0	;# 
   901     0001                     TMR0            equ	1	;# 
   902     0002                     PCL             equ	2	;# 
   903     0003                     STATUS          equ	3	;# 
   904     0004                     FSR             equ	4	;# 
   905     0005                     PORTA           equ	5	;# 
   906     0006                     PORTB           equ	6	;# 
   907     0007                     PORTC           equ	7	;# 
   908     0008                     PORTD           equ	8	;# 
   909     0009                     PORTE           equ	9	;# 
   910     000A                     PCLATH          equ	10	;# 
   911     000B                     INTCON          equ	11	;# 
   912     000C                     PIR1            equ	12	;# 
   913     000D                     PIR2            equ	13	;# 
   914     000E                     TMR1            equ	14	;# 
   915     000E                     TMR1L           equ	14	;# 
   916     000F                     TMR1H           equ	15	;# 
   917     0010                     T1CON           equ	16	;# 
   918     0011                     TMR2            equ	17	;# 
   919     0012                     T2CON           equ	18	;# 
   920     0013                     SSPBUF          equ	19	;# 
   921     0014                     SSPCON          equ	20	;# 
   922     0015                     CCPR1           equ	21	;# 
   923     0015                     CCPR1L          equ	21	;# 
   924     0016                     CCPR1H          equ	22	;# 
   925     0017                     CCP1CON         equ	23	;# 
   926     0018                     RCSTA           equ	24	;# 
   927     0019                     TXREG           equ	25	;# 
   928     001A                     RCREG           equ	26	;# 
   929     001B                     CCPR2           equ	27	;# 
   930     001B                     CCPR2L          equ	27	;# 
   931     001C                     CCPR2H          equ	28	;# 
   932     001D                     CCP2CON         equ	29	;# 
   933     001E                     ADRESH          equ	30	;# 
   934     001F                     ADCON0          equ	31	;# 
   935     0081                     OPTION_REG      equ	129	;# 
   936     0085                     TRISA           equ	133	;# 
   937     0086                     TRISB           equ	134	;# 
   938     0087                     TRISC           equ	135	;# 
   939     0088                     TRISD           equ	136	;# 
   940     0089                     TRISE           equ	137	;# 
   941     008C                     PIE1            equ	140	;# 
   942     008D                     PIE2            equ	141	;# 
   943     008E                     PCON            equ	142	;# 
   944     0091                     SSPCON2         equ	145	;# 
   945     0092                     PR2             equ	146	;# 
   946     0093                     SSPADD          equ	147	;# 
   947     0094                     SSPSTAT         equ	148	;# 
   948     0098                     TXSTA           equ	152	;# 
   949     0099                     SPBRG           equ	153	;# 
   950     009C                     CMCON           equ	156	;# 
   951     009D                     CVRCON          equ	157	;# 
   952     009E                     ADRESL          equ	158	;# 
   953     009F                     ADCON1          equ	159	;# 
   954     010C                     EEDATA          equ	268	;# 
   955     010D                     EEADR           equ	269	;# 
   956     010E                     EEDATH          equ	270	;# 
   957     010F                     EEADRH          equ	271	;# 
   958     018C                     EECON1          equ	396	;# 
   959     018D                     EECON2          equ	397	;# 
   960     0000                     INDF            equ	0	;# 
   961     0001                     TMR0            equ	1	;# 
   962     0002                     PCL             equ	2	;# 
   963     0003                     STATUS          equ	3	;# 
   964     0004                     FSR             equ	4	;# 
   965     0005                     PORTA           equ	5	;# 
   966     0006                     PORTB           equ	6	;# 
   967     0007                     PORTC           equ	7	;# 
   968     0008                     PORTD           equ	8	;# 
   969     0009                     PORTE           equ	9	;# 
   970     000A                     PCLATH          equ	10	;# 
   971     000B                     INTCON          equ	11	;# 
   972     000C                     PIR1            equ	12	;# 
   973     000D                     PIR2            equ	13	;# 
   974     000E                     TMR1            equ	14	;# 
   975     000E                     TMR1L           equ	14	;# 
   976     000F                     TMR1H           equ	15	;# 
   977     0010                     T1CON           equ	16	;# 
   978     0011                     TMR2            equ	17	;# 
   979     0012                     T2CON           equ	18	;# 
   980     0013                     SSPBUF          equ	19	;# 
   981     0014                     SSPCON          equ	20	;# 
   982     0015                     CCPR1           equ	21	;# 
   983     0015                     CCPR1L          equ	21	;# 
   984     0016                     CCPR1H          equ	22	;# 
   985     0017                     CCP1CON         equ	23	;# 
   986     0018                     RCSTA           equ	24	;# 
   987     0019                     TXREG           equ	25	;# 
   988     001A                     RCREG           equ	26	;# 
   989     001B                     CCPR2           equ	27	;# 
   990     001B                     CCPR2L          equ	27	;# 
   991     001C                     CCPR2H          equ	28	;# 
   992     001D                     CCP2CON         equ	29	;# 
   993     001E                     ADRESH          equ	30	;# 
   994     001F                     ADCON0          equ	31	;# 
   995     0081                     OPTION_REG      equ	129	;# 
   996     0085                     TRISA           equ	133	;# 
   997     0086                     TRISB           equ	134	;# 
   998     0087                     TRISC           equ	135	;# 
   999     0088                     TRISD           equ	136	;# 
  1000     0089                     TRISE           equ	137	;# 
  1001     008C                     PIE1            equ	140	;# 
  1002     008D                     PIE2            equ	141	;# 
  1003     008E                     PCON            equ	142	;# 
  1004     0091                     SSPCON2         equ	145	;# 
  1005     0092                     PR2             equ	146	;# 
  1006     0093                     SSPADD          equ	147	;# 
  1007     0094                     SSPSTAT         equ	148	;# 
  1008     0098                     TXSTA           equ	152	;# 
  1009     0099                     SPBRG           equ	153	;# 
  1010     009C                     CMCON           equ	156	;# 
  1011     009D                     CVRCON          equ	157	;# 
  1012     009E                     ADRESL          equ	158	;# 
  1013     009F                     ADCON1          equ	159	;# 
  1014     010C                     EEDATA          equ	268	;# 
  1015     010D                     EEADR           equ	269	;# 
  1016     010E                     EEDATH          equ	270	;# 
  1017     010F                     EEADRH          equ	271	;# 
  1018     018C                     EECON1          equ	396	;# 
  1019     018D                     EECON2          equ	397	;# 
  1020     0000                     INDF            equ	0	;# 
  1021     0001                     TMR0            equ	1	;# 
  1022     0002                     PCL             equ	2	;# 
  1023     0003                     STATUS          equ	3	;# 
  1024     0004                     FSR             equ	4	;# 
  1025     0005                     PORTA           equ	5	;# 
  1026     0006                     PORTB           equ	6	;# 
  1027     0007                     PORTC           equ	7	;# 
  1028     0008                     PORTD           equ	8	;# 
  1029     0009                     PORTE           equ	9	;# 
  1030     000A                     PCLATH          equ	10	;# 
  1031     000B                     INTCON          equ	11	;# 
  1032     000C                     PIR1            equ	12	;# 
  1033     000D                     PIR2            equ	13	;# 
  1034     000E                     TMR1            equ	14	;# 
  1035     000E                     TMR1L           equ	14	;# 
  1036     000F                     TMR1H           equ	15	;# 
  1037     0010                     T1CON           equ	16	;# 
  1038     0011                     TMR2            equ	17	;# 
  1039     0012                     T2CON           equ	18	;# 
  1040     0013                     SSPBUF          equ	19	;# 
  1041     0014                     SSPCON          equ	20	;# 
  1042     0015                     CCPR1           equ	21	;# 
  1043     0015                     CCPR1L          equ	21	;# 
  1044     0016                     CCPR1H          equ	22	;# 
  1045     0017                     CCP1CON         equ	23	;# 
  1046     0018                     RCSTA           equ	24	;# 
  1047     0019                     TXREG           equ	25	;# 
  1048     001A                     RCREG           equ	26	;# 
  1049     001B                     CCPR2           equ	27	;# 
  1050     001B                     CCPR2L          equ	27	;# 
  1051     001C                     CCPR2H          equ	28	;# 
  1052     001D                     CCP2CON         equ	29	;# 
  1053     001E                     ADRESH          equ	30	;# 
  1054     001F                     ADCON0          equ	31	;# 
  1055     0081                     OPTION_REG      equ	129	;# 
  1056     0085                     TRISA           equ	133	;# 
  1057     0086                     TRISB           equ	134	;# 
  1058     0087                     TRISC           equ	135	;# 
  1059     0088                     TRISD           equ	136	;# 
  1060     0089                     TRISE           equ	137	;# 
  1061     008C                     PIE1            equ	140	;# 
  1062     008D                     PIE2            equ	141	;# 
  1063     008E                     PCON            equ	142	;# 
  1064     0091                     SSPCON2         equ	145	;# 
  1065     0092                     PR2             equ	146	;# 
  1066     0093                     SSPADD          equ	147	;# 
  1067     0094                     SSPSTAT         equ	148	;# 
  1068     0098                     TXSTA           equ	152	;# 
  1069     0099                     SPBRG           equ	153	;# 
  1070     009C                     CMCON           equ	156	;# 
  1071     009D                     CVRCON          equ	157	;# 
  1072     009E                     ADRESL          equ	158	;# 
  1073     009F                     ADCON1          equ	159	;# 
  1074     010C                     EEDATA          equ	268	;# 
  1075     010D                     EEADR           equ	269	;# 
  1076     010E                     EEDATH          equ	270	;# 
  1077     010F                     EEADRH          equ	271	;# 
  1078     018C                     EECON1          equ	396	;# 
  1079     018D                     EECON2          equ	397	;# 
  1080     0000                     INDF            equ	0	;# 
  1081     0001                     TMR0            equ	1	;# 
  1082     0002                     PCL             equ	2	;# 
  1083     0003                     STATUS          equ	3	;# 
  1084     0004                     FSR             equ	4	;# 
  1085     0005                     PORTA           equ	5	;# 
  1086     0006                     PORTB           equ	6	;# 
  1087     0007                     PORTC           equ	7	;# 
  1088     0008                     PORTD           equ	8	;# 
  1089     0009                     PORTE           equ	9	;# 
  1090     000A                     PCLATH          equ	10	;# 
  1091     000B                     INTCON          equ	11	;# 
  1092     000C                     PIR1            equ	12	;# 
  1093     000D                     PIR2            equ	13	;# 
  1094     000E                     TMR1            equ	14	;# 
  1095     000E                     TMR1L           equ	14	;# 
  1096     000F                     TMR1H           equ	15	;# 
  1097     0010                     T1CON           equ	16	;# 
  1098     0011                     TMR2            equ	17	;# 
  1099     0012                     T2CON           equ	18	;# 
  1100     0013                     SSPBUF          equ	19	;# 
  1101     0014                     SSPCON          equ	20	;# 
  1102     0015                     CCPR1           equ	21	;# 
  1103     0015                     CCPR1L          equ	21	;# 
  1104     0016                     CCPR1H          equ	22	;# 
  1105     0017                     CCP1CON         equ	23	;# 
  1106     0018                     RCSTA           equ	24	;# 
  1107     0019                     TXREG           equ	25	;# 
  1108     001A                     RCREG           equ	26	;# 
  1109     001B                     CCPR2           equ	27	;# 
  1110     001B                     CCPR2L          equ	27	;# 
  1111     001C                     CCPR2H          equ	28	;# 
  1112     001D                     CCP2CON         equ	29	;# 
  1113     001E                     ADRESH          equ	30	;# 
  1114     001F                     ADCON0          equ	31	;# 
  1115     0081                     OPTION_REG      equ	129	;# 
  1116     0085                     TRISA           equ	133	;# 
  1117     0086                     TRISB           equ	134	;# 
  1118     0087                     TRISC           equ	135	;# 
  1119     0088                     TRISD           equ	136	;# 
  1120     0089                     TRISE           equ	137	;# 
  1121     008C                     PIE1            equ	140	;# 
  1122     008D                     PIE2            equ	141	;# 
  1123     008E                     PCON            equ	142	;# 
  1124     0091                     SSPCON2         equ	145	;# 
  1125     0092                     PR2             equ	146	;# 
  1126     0093                     SSPADD          equ	147	;# 
  1127     0094                     SSPSTAT         equ	148	;# 
  1128     0098                     TXSTA           equ	152	;# 
  1129     0099                     SPBRG           equ	153	;# 
  1130     009C                     CMCON           equ	156	;# 
  1131     009D                     CVRCON          equ	157	;# 
  1132     009E                     ADRESL          equ	158	;# 
  1133     009F                     ADCON1          equ	159	;# 
  1134     010C                     EEDATA          equ	268	;# 
  1135     010D                     EEADR           equ	269	;# 
  1136     010E                     EEDATH          equ	270	;# 
  1137     010F                     EEADRH          equ	271	;# 
  1138     018C                     EECON1          equ	396	;# 
  1139     018D                     EECON2          equ	397	;# 
  1140                           
  1141                           	psect	idataBANK0
  1142     11A0                     __pidataBANK0:
  1143                           
  1144                           ;initializer for main_menu@state
  1145     11A0  34FF               	retlw	255
  1146     11A1  34FF               	retlw	255
  1147                           
  1148                           	psect	idataBANK1
  1149     1D76                     __pidataBANK1:
  1150                           
  1151                           ;initializer for set_time@once
  1152     1D76  3401               	retlw	1
  1153     1D77  3400               	retlw	0
  1154                           
  1155                           ;initializer for view_log@flag
  1156     1D78  3401               	retlw	1
  1157     1D79  3400               	retlw	0
  1158                           
  1159                           ;initializer for login_screen@attempt
  1160     1D7A  3403               	retlw	3
  1161     1D7B  3400               	retlw	0
  1162                           
  1163                           ;initializer for _new_sec
  1164     1D7C  343B               	retlw	59
  1165     1D7D  3400               	retlw	0
  1166                           
  1167                           ;initializer for _prev_pos
  1168     1D7E  34FF               	retlw	255
  1169     1D7F  34FF               	retlw	255
  1170                           
  1171                           ;initializer for set_time@prev_key
  1172     1D80  343F               	retlw	63
  1173                           
  1174                           ;initializer for change_pass@once2
  1175     1D81  3401               	retlw	1
  1176                           
  1177                           ;initializer for change_pass@once1
  1178     1D82  3401               	retlw	1
  1179                           
  1180                           ;initializer for down_log@once
  1181     1D83  3401               	retlw	1
  1182                           
  1183                           ;initializer for clear_log@once
  1184     1D84  3401               	retlw	1
  1185                           
  1186                           ;initializer for view_log@no_log_once
  1187     1D85  3401               	retlw	1
  1188                           
  1189                           ;initializer for main_menu@menu_once
  1190     1D86  3401               	retlw	1
  1191                           
  1192                           ;initializer for read_digital_keypad@once
  1193     1D87  3401               	retlw	1
  1194                           
  1195                           	psect	idataBANK2
  1196     1E50                     __pidataBANK2:
  1197                           
  1198                           ;initializer for change_pass@str
  1199     1E50  3420               	retlw	32
  1200     1E51  3420               	retlw	32
  1201     1E52  3420               	retlw	32
  1202     1E53  3420               	retlw	32
  1203     1E54  3420               	retlw	32
  1204     1E55  3420               	retlw	32
  1205     1E56  3420               	retlw	32
  1206     1E57  3420               	retlw	32
  1207     1E58  3420               	retlw	32
  1208     1E59  3420               	retlw	32
  1209     1E5A  3420               	retlw	32
  1210     1E5B  3420               	retlw	32
  1211     1E5C  3420               	retlw	32
  1212     1E5D  3420               	retlw	32
  1213     1E5E  3420               	retlw	32
  1214     1E5F  3420               	retlw	32
  1215     1E60  3400               	retlw	0
  1216                           
  1217                           ;initializer for login_screen@str
  1218     1E61  3420               	retlw	32
  1219     1E62  3420               	retlw	32
  1220     1E63  3420               	retlw	32
  1221     1E64  3420               	retlw	32
  1222     1E65  3420               	retlw	32
  1223     1E66  3420               	retlw	32
  1224     1E67  3420               	retlw	32
  1225     1E68  3420               	retlw	32
  1226     1E69  3420               	retlw	32
  1227     1E6A  3420               	retlw	32
  1228     1E6B  3420               	retlw	32
  1229     1E6C  3420               	retlw	32
  1230     1E6D  3420               	retlw	32
  1231     1E6E  3420               	retlw	32
  1232     1E6F  3420               	retlw	32
  1233     1E70  3420               	retlw	32
  1234     1E71  3400               	retlw	0
  1235                           
  1236                           	psect	idataBANK3
  1237     1DCE                     __pidataBANK3:
  1238                           
  1239                           ;initializer for _event
  1240     1DCE  3497               	retlw	low (STR_3| (0+32768))
  1241     1DCF  3491               	retlw	high (STR_3| (0+32768))
  1242     1DD0  3494               	retlw	low (STR_4| (0+32768))
  1243     1DD1  3491               	retlw	high (STR_4| (0+32768))
  1244     1DD2  3488               	retlw	low (STR_5| (0+32768))
  1245     1DD3  3491               	retlw	high (STR_5| (0+32768))
  1246     1DD4  348B               	retlw	low (STR_6| (0+32768))
  1247     1DD5  3491               	retlw	high (STR_6| (0+32768))
  1248     1DD6  348E               	retlw	low (STR_7| (0+32768))
  1249     1DD7  3491               	retlw	high (STR_7| (0+32768))
  1250     1DD8  3491               	retlw	low (STR_8| (0+32768))
  1251     1DD9  3491               	retlw	high (STR_8| (0+32768))
  1252     1DDA  349A               	retlw	low (STR_9| (0+32768))
  1253     1DDB  3491               	retlw	high (STR_9| (0+32768))
  1254     1DDC  3485               	retlw	low (STR_10| (0+32768))
  1255     1DDD  3491               	retlw	high (STR_10| (0+32768))
  1256                           
  1257                           ;initializer for _menu
  1258     1DDE  3437               	retlw	low (STR_18| (0+32768))
  1259     1DDF  3490               	retlw	high (STR_18| (0+32768))
  1260     1DE0  34C0               	retlw	low (STR_19| (0+32768))
  1261     1DE1  3490               	retlw	high (STR_19| (0+32768))
  1262     1DE2  34D1               	retlw	low (STR_20| (0+32768))
  1263     1DE3  3490               	retlw	high (STR_20| (0+32768))
  1264     1DE4  34AF               	retlw	low (STR_21| (0+32768))
  1265     1DE5  3490               	retlw	high (STR_21| (0+32768))
  1266     1DE6  3445               	retlw	low (STR_22| (0+32768))
  1267     1DE7  3491               	retlw	high (STR_22| (0+32768))
  1268                           
  1269                           ;initializer for _pass
  1270     1DE8  3431               	retlw	49
  1271     1DE9  3430               	retlw	48
  1272     1DEA  3431               	retlw	49
  1273     1DEB  3430               	retlw	48
  1274     1DEC  3400               	retlw	0
  1275     0019                     _TXREG          set	25
  1276     001A                     _RCREG          set	26
  1277     0001                     _TMR0           set	1
  1278     0013                     _SSPBUF         set	19
  1279     0006                     _PORTB          set	6
  1280     0008                     _PORTD          set	8
  1281     001E                     _ADRESH         set	30
  1282     001F                     _ADCON0         set	31
  1283     0064                     _TXIF           set	100
  1284     0065                     _RCIF           set	101
  1285     00C4                     _CREN           set	196
  1286     00C7                     _SPEN           set	199
  1287     005D                     _TMR0IE         set	93
  1288     005F                     _GIE            set	95
  1289     005A                     _TMR0IF         set	90
  1290     00A5                     _SSPEN          set	165
  1291     00A3                     _SSPM3          set	163
  1292     0049                     _RE1            set	73
  1293     004A                     _RE2            set	74
  1294     00FA                     _nDONE          set	250
  1295     00FA                     _GO             set	250
  1296     00F8                     _ADON           set	248
  1297     0099                     _SPBRG          set	153
  1298     0091                     _SSPCON2        set	145
  1299     0093                     _SSPADD         set	147
  1300     0086                     _TRISB          set	134
  1301     0088                     _TRISD          set	136
  1302     009E                     _ADRESL         set	158
  1303     0465                     _RCIE           set	1125
  1304     040B                     _PSA            set	1035
  1305     040D                     _T0CS           set	1037
  1306     048E                     _ACKSTAT        set	1166
  1307     048C                     _ACKEN          set	1164
  1308     048D                     _ACKDT          set	1165
  1309     048B                     _RCEN           set	1163
  1310     048A                     _PEN            set	1162
  1311     0488                     _SEN            set	1160
  1312     04A2                     _R_nW           set	1186
  1313     0449                     _TRISE1         set	1097
  1314     044A                     _TRISE2         set	1098
  1315     04FF                     _ADFM           set	1279
  1316                           
  1317                           	psect	strings
  1318     1800                     __pstrings:
  1319     1800                     stringtab:
  1320     1800                     __stringtab:
  1321                           
  1322                           ;	String table - string pointers are 2 bytes each
  1323     1800  1BFF               	btfsc	btemp+1,7
  1324     1801  280A               	ljmp	stringcode
  1325     1802  1383               	bcf	3,7
  1326     1803  187F               	btfsc	btemp+1,0
  1327     1804  1783               	bsf	3,7
  1328     1805  0800               	movf	0,w
  1329     1806  0A84               	incf	4,f
  1330     1807  1903               	skipnz
  1331     1808  0AFF               	incf	btemp+1,f
  1332     1809  0008               	return
  1333     180A                     stringcode:
  1334     180A  087F               	movf	btemp+1,w
  1335     180B  397F               	andlw	127
  1336     180C  008A               	movwf	10
  1337     180D  0804               	movf	4,w
  1338     180E  0A84               	incf	4,f
  1339     180F  1903               	skipnz
  1340     1810  0AFF               	incf	btemp+1,f
  1341     1811  0082               	movwf	2
  1342     1812                     __stringbase:
  1343     1812                     __end_of__stringtab:
  1344                           
  1345                           	psect	stringtext
  1346     1000                     __pstringtext:
  1347     1000                     STR_30:
  1348     1000  3423               	retlw	35	;'#'
  1349     1001  3420               	retlw	32	;' '
  1350     1002  3454               	retlw	84	;'T'
  1351     1003  3449               	retlw	73	;'I'
  1352     1004  344D               	retlw	77	;'M'
  1353     1005  3445               	retlw	69	;'E'
  1354     1006  3420               	retlw	32	;' '
  1355     1007  3420               	retlw	32	;' '
  1356     1008  3420               	retlw	32	;' '
  1357     1009  3420               	retlw	32	;' '
  1358     100A  3420               	retlw	32	;' '
  1359     100B  3445               	retlw	69	;'E'
  1360     100C  3456               	retlw	86	;'V'
  1361     100D  3420               	retlw	32	;' '
  1362     100E  3453               	retlw	83	;'S'
  1363     100F  3450               	retlw	80	;'P'
  1364     1010  340D               	retlw	13
  1365     1011  340A               	retlw	10
  1366     1012  3400               	retlw	0
  1367     1013                     STR_37:
  1368     1013  3420               	retlw	32	;' '
  1369     1014  3420               	retlw	32	;' '
  1370     1015  3420               	retlw	32	;' '
  1371     1016  3420               	retlw	32	;' '
  1372     1017  3420               	retlw	32	;' '
  1373     1018  3420               	retlw	32	;' '
  1374     1019  3420               	retlw	32	;' '
  1375     101A  3420               	retlw	32	;' '
  1376     101B  3420               	retlw	32	;' '
  1377     101C  3420               	retlw	32	;' '
  1378     101D  3420               	retlw	32	;' '
  1379     101E  3420               	retlw	32	;' '
  1380     101F  3420               	retlw	32	;' '
  1381     1020  3420               	retlw	32	;' '
  1382     1021  3420               	retlw	32	;' '
  1383     1022  3420               	retlw	32	;' '
  1384     1023  3420               	retlw	32	;' '
  1385     1024  3400               	retlw	0
  1386     1025                     STR_35:
  1387     1025  3450               	retlw	80	;'P'
  1388     1026  3441               	retlw	65	;'A'
  1389     1027  3453               	retlw	83	;'S'
  1390     1028  3453               	retlw	83	;'S'
  1391     1029  3457               	retlw	87	;'W'
  1392     102A  3444               	retlw	68	;'D'
  1393     102B  3420               	retlw	32	;' '
  1394     102C  3449               	retlw	73	;'I'
  1395     102D  3453               	retlw	83	;'S'
  1396     102E  3420               	retlw	32	;' '
  1397     102F  3443               	retlw	67	;'C'
  1398     1030  3448               	retlw	72	;'H'
  1399     1031  3441               	retlw	65	;'A'
  1400     1032  344E               	retlw	78	;'N'
  1401     1033  3447               	retlw	71	;'G'
  1402     1034  3445               	retlw	69	;'E'
  1403     1035  3444               	retlw	68	;'D'
  1404     1036  3400               	retlw	0
  1405     1037                     STR_18:
  1406     1037  3420               	retlw	32	;' '
  1407     1038  3420               	retlw	32	;' '
  1408     1039  3456               	retlw	86	;'V'
  1409     103A  3449               	retlw	73	;'I'
  1410     103B  3445               	retlw	69	;'E'
  1411     103C  3457               	retlw	87	;'W'
  1412     103D  3420               	retlw	32	;' '
  1413     103E  344C               	retlw	76	;'L'
  1414     103F  344F               	retlw	79	;'O'
  1415     1040  3447               	retlw	71	;'G'
  1416     1041  3420               	retlw	32	;' '
  1417     1042  3420               	retlw	32	;' '
  1418     1043  3420               	retlw	32	;' '
  1419     1044  3420               	retlw	32	;' '
  1420     1045  3420               	retlw	32	;' '
  1421     1046  3420               	retlw	32	;' '
  1422     1047  3420               	retlw	32	;' '
  1423     1048  3400               	retlw	0
  1424     1049                     STR_38:
  1425     1049  3420               	retlw	32	;' '
  1426     104A  3453               	retlw	83	;'S'
  1427     104B  3445               	retlw	69	;'E'
  1428     104C  3454               	retlw	84	;'T'
  1429     104D  3420               	retlw	32	;' '
  1430     104E  3454               	retlw	84	;'T'
  1431     104F  3449               	retlw	73	;'I'
  1432     1050  344D               	retlw	77	;'M'
  1433     1051  3445               	retlw	69	;'E'
  1434     1052  3420               	retlw	32	;' '
  1435     1053  3420               	retlw	32	;' '
  1436     1054  3420               	retlw	32	;' '
  1437     1055  3420               	retlw	32	;' '
  1438     1056  3420               	retlw	32	;' '
  1439     1057  3420               	retlw	32	;' '
  1440     1058  3420               	retlw	32	;' '
  1441     1059  3400               	retlw	0
  1442     105A                     STR_29:
  1443     105A  3420               	retlw	32	;' '
  1444     105B  3420               	retlw	32	;' '
  1445     105C  3444               	retlw	68	;'D'
  1446     105D  344F               	retlw	79	;'O'
  1447     105E  3457               	retlw	87	;'W'
  1448     105F  344E               	retlw	78	;'N'
  1449     1060  344C               	retlw	76	;'L'
  1450     1061  344F               	retlw	79	;'O'
  1451     1062  3441               	retlw	65	;'A'
  1452     1063  3444               	retlw	68	;'D'
  1453     1064  3449               	retlw	73	;'I'
  1454     1065  344E               	retlw	78	;'N'
  1455     1066  3447               	retlw	71	;'G'
  1456     1067  3420               	retlw	32	;' '
  1457     1068  3420               	retlw	32	;' '
  1458     1069  3420               	retlw	32	;' '
  1459     106A  3400               	retlw	0
  1460     106B                     STR_28:
  1461     106B  3420               	retlw	32	;' '
  1462     106C  3420               	retlw	32	;' '
  1463     106D  3454               	retlw	84	;'T'
  1464     106E  3448               	retlw	72	;'H'
  1465     106F  3445               	retlw	69	;'E'
  1466     1070  3420               	retlw	32	;' '
  1467     1071  344C               	retlw	76	;'L'
  1468     1072  344F               	retlw	79	;'O'
  1469     1073  3447               	retlw	71	;'G'
  1470     1074  3453               	retlw	83	;'S'
  1471     1075  3420               	retlw	32	;' '
  1472     1076  3441               	retlw	65	;'A'
  1473     1077  3452               	retlw	82	;'R'
  1474     1078  3445               	retlw	69	;'E'
  1475     1079  3420               	retlw	32	;' '
  1476     107A  3420               	retlw	32	;' '
  1477     107B  3400               	retlw	0
  1478     107C                     STR_34:
  1479     107C  3452               	retlw	82	;'R'
  1480     107D  3445               	retlw	69	;'E'
  1481     107E  342D               	retlw	45	;'-'
  1482     107F  3445               	retlw	69	;'E'
  1483     1080  344E               	retlw	78	;'N'
  1484     1081  3454               	retlw	84	;'T'
  1485     1082  3445               	retlw	69	;'E'
  1486     1083  3452               	retlw	82	;'R'
  1487     1084  3420               	retlw	32	;' '
  1488     1085  3450               	retlw	80	;'P'
  1489     1086  3441               	retlw	65	;'A'
  1490     1087  3453               	retlw	83	;'S'
  1491     1088  3453               	retlw	83	;'S'
  1492     1089  3457               	retlw	87	;'W'
  1493     108A  3444               	retlw	68	;'D'
  1494     108B  3420               	retlw	32	;' '
  1495     108C  3400               	retlw	0
  1496     108D                     STR_26:
  1497     108D  344C               	retlw	76	;'L'
  1498     108E  344F               	retlw	79	;'O'
  1499     108F  3447               	retlw	71	;'G'
  1500     1090  3453               	retlw	83	;'S'
  1501     1091  3420               	retlw	32	;' '
  1502     1092  3441               	retlw	65	;'A'
  1503     1093  3452               	retlw	82	;'R'
  1504     1094  3445               	retlw	69	;'E'
  1505     1095  3420               	retlw	32	;' '
  1506     1096  3443               	retlw	67	;'C'
  1507     1097  344C               	retlw	76	;'L'
  1508     1098  3445               	retlw	69	;'E'
  1509     1099  3441               	retlw	65	;'A'
  1510     109A  3452               	retlw	82	;'R'
  1511     109B  3445               	retlw	69	;'E'
  1512     109C  3444               	retlw	68	;'D'
  1513     109D  3400               	retlw	0
  1514     109E                     STR_25:
  1515     109E  3423               	retlw	35	;'#'
  1516     109F  3420               	retlw	32	;' '
  1517     10A0  3420               	retlw	32	;' '
  1518     10A1  3420               	retlw	32	;' '
  1519     10A2  3454               	retlw	84	;'T'
  1520     10A3  3449               	retlw	73	;'I'
  1521     10A4  344D               	retlw	77	;'M'
  1522     10A5  3445               	retlw	69	;'E'
  1523     10A6  3420               	retlw	32	;' '
  1524     10A7  3420               	retlw	32	;' '
  1525     10A8  3420               	retlw	32	;' '
  1526     10A9  3445               	retlw	69	;'E'
  1527     10AA  3456               	retlw	86	;'V'
  1528     10AB  3420               	retlw	32	;' '
  1529     10AC  3453               	retlw	83	;'S'
  1530     10AD  3450               	retlw	80	;'P'
  1531     10AE  3400               	retlw	0
  1532     10AF                     STR_21:
  1533     10AF  3420               	retlw	32	;' '
  1534     10B0  3420               	retlw	32	;' '
  1535     10B1  3453               	retlw	83	;'S'
  1536     10B2  3445               	retlw	69	;'E'
  1537     10B3  3454               	retlw	84	;'T'
  1538     10B4  3420               	retlw	32	;' '
  1539     10B5  3454               	retlw	84	;'T'
  1540     10B6  3449               	retlw	73	;'I'
  1541     10B7  344D               	retlw	77	;'M'
  1542     10B8  3445               	retlw	69	;'E'
  1543     10B9  3420               	retlw	32	;' '
  1544     10BA  3420               	retlw	32	;' '
  1545     10BB  3420               	retlw	32	;' '
  1546     10BC  3420               	retlw	32	;' '
  1547     10BD  3420               	retlw	32	;' '
  1548     10BE  3420               	retlw	32	;' '
  1549     10BF  3400               	retlw	0
  1550     10C0                     STR_19:
  1551     10C0  3420               	retlw	32	;' '
  1552     10C1  3420               	retlw	32	;' '
  1553     10C2  3443               	retlw	67	;'C'
  1554     10C3  344C               	retlw	76	;'L'
  1555     10C4  3445               	retlw	69	;'E'
  1556     10C5  3441               	retlw	65	;'A'
  1557     10C6  3452               	retlw	82	;'R'
  1558     10C7  3420               	retlw	32	;' '
  1559     10C8  344C               	retlw	76	;'L'
  1560     10C9  344F               	retlw	79	;'O'
  1561     10CA  3447               	retlw	71	;'G'
  1562     10CB  3420               	retlw	32	;' '
  1563     10CC  3420               	retlw	32	;' '
  1564     10CD  3420               	retlw	32	;' '
  1565     10CE  3420               	retlw	32	;' '
  1566     10CF  3420               	retlw	32	;' '
  1567     10D0  3400               	retlw	0
  1568     10D1                     STR_20:
  1569     10D1  3420               	retlw	32	;' '
  1570     10D2  3420               	retlw	32	;' '
  1571     10D3  3444               	retlw	68	;'D'
  1572     10D4  344F               	retlw	79	;'O'
  1573     10D5  3457               	retlw	87	;'W'
  1574     10D6  344E               	retlw	78	;'N'
  1575     10D7  344C               	retlw	76	;'L'
  1576     10D8  344F               	retlw	79	;'O'
  1577     10D9  3441               	retlw	65	;'A'
  1578     10DA  3444               	retlw	68	;'D'
  1579     10DB  3420               	retlw	32	;' '
  1580     10DC  344C               	retlw	76	;'L'
  1581     10DD  344F               	retlw	79	;'O'
  1582     10DE  3447               	retlw	71	;'G'
  1583     10DF  3420               	retlw	32	;' '
  1584     10E0  3420               	retlw	32	;' '
  1585     10E1  3400               	retlw	0
  1586     10E2                     STR_15:
  1587     10E2  3420               	retlw	32	;' '
  1588     10E3  3441               	retlw	65	;'A'
  1589     10E4  3454               	retlw	84	;'T'
  1590     10E5  3454               	retlw	84	;'T'
  1591     10E6  3445               	retlw	69	;'E'
  1592     10E7  344D               	retlw	77	;'M'
  1593     10E8  3450               	retlw	80	;'P'
  1594     10E9  3454               	retlw	84	;'T'
  1595     10EA  3453               	retlw	83	;'S'
  1596     10EB  3420               	retlw	32	;' '
  1597     10EC  344C               	retlw	76	;'L'
  1598     10ED  3445               	retlw	69	;'E'
  1599     10EE  3446               	retlw	70	;'F'
  1600     10EF  3454               	retlw	84	;'T'
  1601     10F0  3420               	retlw	32	;' '
  1602     10F1  3420               	retlw	32	;' '
  1603     10F2  3400               	retlw	0
  1604     10F3                     STR_14:
  1605     10F3  3420               	retlw	32	;' '
  1606     10F4  3457               	retlw	87	;'W'
  1607     10F5  3452               	retlw	82	;'R'
  1608     10F6  344F               	retlw	79	;'O'
  1609     10F7  344E               	retlw	78	;'N'
  1610     10F8  3447               	retlw	71	;'G'
  1611     10F9  3420               	retlw	32	;' '
  1612     10FA  3450               	retlw	80	;'P'
  1613     10FB  3441               	retlw	65	;'A'
  1614     10FC  3453               	retlw	83	;'S'
  1615     10FD  3453               	retlw	83	;'S'
  1616     10FE  3457               	retlw	87	;'W'
  1617     10FF  344F               	retlw	79	;'O'
  1618     1100  3452               	retlw	82	;'R'
  1619     1101  3444               	retlw	68	;'D'
  1620     1102  3420               	retlw	32	;' '
  1621     1103  3400               	retlw	0
  1622     1104                     STR_11:
  1623     1104  3420               	retlw	32	;' '
  1624     1105  3445               	retlw	69	;'E'
  1625     1106  344E               	retlw	78	;'N'
  1626     1107  3454               	retlw	84	;'T'
  1627     1108  3445               	retlw	69	;'E'
  1628     1109  3452               	retlw	82	;'R'
  1629     110A  3420               	retlw	32	;' '
  1630     110B  3450               	retlw	80	;'P'
  1631     110C  3441               	retlw	65	;'A'
  1632     110D  3453               	retlw	83	;'S'
  1633     110E  3453               	retlw	83	;'S'
  1634     110F  3457               	retlw	87	;'W'
  1635     1110  344F               	retlw	79	;'O'
  1636     1111  3452               	retlw	82	;'R'
  1637     1112  3444               	retlw	68	;'D'
  1638     1113  3420               	retlw	32	;' '
  1639     1114  3400               	retlw	0
  1640     1115                     STR_24:
  1641     1115  3420               	retlw	32	;' '
  1642     1116  3420               	retlw	32	;' '
  1643     1117  3420               	retlw	32	;' '
  1644     1118  3450               	retlw	80	;'P'
  1645     1119  3452               	retlw	82	;'R'
  1646     111A  3445               	retlw	69	;'E'
  1647     111B  3453               	retlw	83	;'S'
  1648     111C  3453               	retlw	83	;'S'
  1649     111D  3420               	retlw	32	;' '
  1650     111E  3453               	retlw	83	;'S'
  1651     111F  3457               	retlw	87	;'W'
  1652     1120  3435               	retlw	53	;'5'
  1653     1121  3420               	retlw	32	;' '
  1654     1122  3420               	retlw	32	;' '
  1655     1123  3420               	retlw	32	;' '
  1656     1124  3400               	retlw	0
  1657     1125                     STR_23:
  1658     1125  3420               	retlw	32	;' '
  1659     1126  344E               	retlw	78	;'N'
  1660     1127  344F               	retlw	79	;'O'
  1661     1128  3420               	retlw	32	;' '
  1662     1129  344C               	retlw	76	;'L'
  1663     112A  344F               	retlw	79	;'O'
  1664     112B  3447               	retlw	71	;'G'
  1665     112C  3453               	retlw	83	;'S'
  1666     112D  3420               	retlw	32	;' '
  1667     112E  3446               	retlw	70	;'F'
  1668     112F  344F               	retlw	79	;'O'
  1669     1130  3455               	retlw	85	;'U'
  1670     1131  344E               	retlw	78	;'N'
  1671     1132  3444               	retlw	68	;'D'
  1672     1133  3420               	retlw	32	;' '
  1673     1134  3400               	retlw	0
  1674     1135                     STR_32:
  1675     1135  3420               	retlw	32	;' '
  1676     1136  3444               	retlw	68	;'D'
  1677     1137  344F               	retlw	79	;'O'
  1678     1138  3457               	retlw	87	;'W'
  1679     1139  344E               	retlw	78	;'N'
  1680     113A  344C               	retlw	76	;'L'
  1681     113B  344F               	retlw	79	;'O'
  1682     113C  3441               	retlw	65	;'A'
  1683     113D  3444               	retlw	68	;'D'
  1684     113E  3420               	retlw	32	;' '
  1685     113F  3444               	retlw	68	;'D'
  1686     1140  344F               	retlw	79	;'O'
  1687     1141  344E               	retlw	78	;'N'
  1688     1142  3445               	retlw	69	;'E'
  1689     1143  3420               	retlw	32	;' '
  1690     1144  3400               	retlw	0
  1691     1145                     STR_22:
  1692     1145  3420               	retlw	32	;' '
  1693     1146  3420               	retlw	32	;' '
  1694     1147  3443               	retlw	67	;'C'
  1695     1148  3448               	retlw	72	;'H'
  1696     1149  3441               	retlw	65	;'A'
  1697     114A  344E               	retlw	78	;'N'
  1698     114B  3447               	retlw	71	;'G'
  1699     114C  3445               	retlw	69	;'E'
  1700     114D  3420               	retlw	32	;' '
  1701     114E  3450               	retlw	80	;'P'
  1702     114F  3441               	retlw	65	;'A'
  1703     1150  3453               	retlw	83	;'S'
  1704     1151  3453               	retlw	83	;'S'
  1705     1152  3457               	retlw	87	;'W'
  1706     1153  3444               	retlw	68	;'D'
  1707     1154  3400               	retlw	0
  1708     1155                     STR_17:
  1709     1155  3457               	retlw	87	;'W'
  1710     1156  3441               	retlw	65	;'A'
  1711     1157  3449               	retlw	73	;'I'
  1712     1158  3454               	retlw	84	;'T'
  1713     1159  3420               	retlw	32	;' '
  1714     115A  3446               	retlw	70	;'F'
  1715     115B  344F               	retlw	79	;'O'
  1716     115C  3452               	retlw	82	;'R'
  1717     115D  3420               	retlw	32	;' '
  1718     115E  3420               	retlw	32	;' '
  1719     115F  3420               	retlw	32	;' '
  1720     1160  3420               	retlw	32	;' '
  1721     1161  3453               	retlw	83	;'S'
  1722     1162  3445               	retlw	69	;'E'
  1723     1163  3443               	retlw	67	;'C'
  1724     1164  3400               	retlw	0
  1725     1165                     STR_16:
  1726     1165  3459               	retlw	89	;'Y'
  1727     1166  344F               	retlw	79	;'O'
  1728     1167  3455               	retlw	85	;'U'
  1729     1168  3420               	retlw	32	;' '
  1730     1169  3441               	retlw	65	;'A'
  1731     116A  3452               	retlw	82	;'R'
  1732     116B  3445               	retlw	69	;'E'
  1733     116C  3420               	retlw	32	;' '
  1734     116D  3442               	retlw	66	;'B'
  1735     116E  344C               	retlw	76	;'L'
  1736     116F  344F               	retlw	79	;'O'
  1737     1170  3443               	retlw	67	;'C'
  1738     1171  344B               	retlw	75	;'K'
  1739     1172  3445               	retlw	69	;'E'
  1740     1173  3444               	retlw	68	;'D'
  1741     1174  3400               	retlw	0
  1742     1175                     STR_12:
  1743     1175  3420               	retlw	32	;' '
  1744     1176  3420               	retlw	32	;' '
  1745     1177  344C               	retlw	76	;'L'
  1746     1178  344F               	retlw	79	;'O'
  1747     1179  3447               	retlw	71	;'G'
  1748     117A  3449               	retlw	73	;'I'
  1749     117B  344E               	retlw	78	;'N'
  1750     117C  3420               	retlw	32	;' '
  1751     117D  3453               	retlw	83	;'S'
  1752     117E  3455               	retlw	85	;'U'
  1753     117F  3443               	retlw	67	;'C'
  1754     1180  3443               	retlw	67	;'C'
  1755     1181  3445               	retlw	69	;'E'
  1756     1182  3453               	retlw	83	;'S'
  1757     1183  3453               	retlw	83	;'S'
  1758     1184  3400               	retlw	0
  1759     1185                     STR_10:
  1760     1185  3443               	retlw	67	;'C'
  1761     1186  3420               	retlw	32	;' '
  1762     1187  3400               	retlw	0
  1763     1188                     STR_5:
  1764     1188  3447               	retlw	71	;'G'
  1765     1189  3431               	retlw	49	;'1'
  1766     118A  3400               	retlw	0
  1767     118B                     STR_6:
  1768     118B  3447               	retlw	71	;'G'
  1769     118C  3432               	retlw	50	;'2'
  1770     118D  3400               	retlw	0
  1771     118E                     STR_7:
  1772     118E  3447               	retlw	71	;'G'
  1773     118F  3433               	retlw	51	;'3'
  1774     1190  3400               	retlw	0
  1775     1191                     STR_8:
  1776     1191  3447               	retlw	71	;'G'
  1777     1192  3434               	retlw	52	;'4'
  1778     1193  3400               	retlw	0
  1779     1194                     STR_4:
  1780     1194  3447               	retlw	71	;'G'
  1781     1195  344E               	retlw	78	;'N'
  1782     1196  3400               	retlw	0
  1783     1197                     STR_3:
  1784     1197  344F               	retlw	79	;'O'
  1785     1198  344E               	retlw	78	;'N'
  1786     1199  3400               	retlw	0
  1787     119A                     STR_9:
  1788     119A  3447               	retlw	71	;'G'
  1789     119B  3452               	retlw	82	;'R'
  1790     119C  3400               	retlw	0
  1791     1104                     STR_33          equ	STR_11
  1792     10F3                     STR_36          equ	STR_14
  1793     1014                     STR_1           equ	STR_37+1
  1794     1014                     STR_2           equ	STR_37+1
  1795     1014                     STR_27          equ	STR_37+1
  1796     1015                     STR_13          equ	STR_37+2
  1797     1010                     STR_31          equ	STR_30+16
  1798                           
  1799                           	psect	cinit
  1800     000F                     start_initialization:	
  1801                           ; #config settings
  1802                           
  1803     000F                     __initialization:
  1804                           
  1805                           ; Initialize objects allocated to BANK3
  1806     000F  1783               	bsf	3,7	;select IRP bank2
  1807     0010  30E9               	movlw	low (__pdataBANK3+31)
  1808     0011  00FD               	movwf	btemp+-1
  1809     0012  301D               	movlw	high __pidataBANK3
  1810     0013  00FE               	movwf	btemp
  1811     0014  30CE               	movlw	low __pidataBANK3
  1812     0015  00FF               	movwf	btemp+1
  1813     0016  30CA               	movlw	low __pdataBANK3
  1814     0017  0084               	movwf	4
  1815     0018  160A  158A  258C  120A  118A  	fcall	init_ram0
  1816                           
  1817                           ; Initialize objects allocated to BANK2
  1818     001D  3032               	movlw	low (__pdataBANK2+34)
  1819     001E  00FD               	movwf	btemp+-1
  1820     001F  301E               	movlw	high __pidataBANK2
  1821     0020  00FE               	movwf	btemp
  1822     0021  3050               	movlw	low __pidataBANK2
  1823     0022  00FF               	movwf	btemp+1
  1824     0023  3010               	movlw	low __pdataBANK2
  1825     0024  0084               	movwf	4
  1826     0025  160A  158A  258C  120A  118A  	fcall	init_ram0
  1827                           
  1828                           ; Initialize objects allocated to BANK1
  1829     002A  1383               	bcf	3,7	;select IRP bank0
  1830     002B  30EC               	movlw	low (__pdataBANK1+18)
  1831     002C  00FD               	movwf	btemp+-1
  1832     002D  301D               	movlw	high __pidataBANK1
  1833     002E  00FE               	movwf	btemp
  1834     002F  3076               	movlw	low __pidataBANK1
  1835     0030  00FF               	movwf	btemp+1
  1836     0031  30DA               	movlw	low __pdataBANK1
  1837     0032  0084               	movwf	4
  1838     0033  160A  158A  258C  120A  118A  	fcall	init_ram0
  1839                           
  1840                           ; Initialize objects allocated to BANK0
  1841     0038  160A  118A  21A0  120A  118A  	fcall	__pidataBANK0	;fetch initializer
  1842     003D  00ED               	movwf	__pdataBANK0& (0+127)
  1843     003E  160A  118A  21A1  120A  118A  	fcall	__pidataBANK0+1	;fetch initializer
  1844     0043  00EE               	movwf	(__pdataBANK0+1)& (0+127)
  1845                           
  1846                           ; Clear objects allocated to BANK3
  1847     0044  1783               	bsf	3,7	;select IRP bank2
  1848     0045  3090               	movlw	low __pbssBANK3
  1849     0046  0084               	movwf	4
  1850     0047  30CA               	movlw	low (__pbssBANK3+58)
  1851     0048  160A  158A  2510  120A  118A  	fcall	clear_ram0
  1852                           
  1853                           ; Clear objects allocated to BANK1
  1854     004D  1383               	bcf	3,7	;select IRP bank0
  1855     004E  30A0               	movlw	low __pbssBANK1
  1856     004F  0084               	movwf	4
  1857     0050  30DA               	movlw	low (__pbssBANK1+58)
  1858     0051  160A  158A  2510  120A  118A  	fcall	clear_ram0
  1859                           
  1860                           ; Clear objects allocated to BANK0
  1861     0056  305B               	movlw	low __pbssBANK0
  1862     0057  0084               	movwf	4
  1863     0058  306D               	movlw	low (__pbssBANK0+18)
  1864     0059  160A  158A  2510  120A  118A  	fcall	clear_ram0
  1865                           
  1866                           ; Clear objects allocated to COMMON
  1867     005E  01F8               	clrf	__pbssCOMMON& (0+127)
  1868     005F  01F9               	clrf	(__pbssCOMMON+1)& (0+127)
  1869     0060  01FA               	clrf	(__pbssCOMMON+2)& (0+127)
  1870     0061  01FB               	clrf	(__pbssCOMMON+3)& (0+127)
  1871     0062                     end_of_initialization:	
  1872                           ;End of C runtime variable initialization code
  1873                           
  1874     0062                     __end_of__initialization:
  1875     0062  0183               	clrf	3
  1876     0063  160A  118A  2D85   	ljmp	_main	;jump to C main() function
  1877                           
  1878                           	psect	bssCOMMON
  1879     0078                     __pbssCOMMON:
  1880     0078                     set_time@sec:
  1881     0078                     	ds	2
  1882     007A                     set_time@min:
  1883     007A                     	ds	2
  1884                           
  1885                           	psect	bssBANK0
  1886     005B                     __pbssBANK0:
  1887     005B                     set_time@hr:
  1888     005B                     	ds	2
  1889     005D                     change_pass@j:
  1890     005D                     	ds	2
  1891     005F                     change_pass@i:
  1892     005F                     	ds	2
  1893     0061                     _pos1:
  1894     0061                     	ds	2
  1895     0063                     login_screen@i:
  1896     0063                     	ds	2
  1897     0065                     _sec:
  1898     0065                     	ds	2
  1899     0067                     _pos:
  1900     0067                     	ds	2
  1901     0069                     set_time@field:
  1902     0069                     	ds	1
  1903     006A                     change_pass@prev_key:
  1904     006A                     	ds	1
  1905     006B                     _operation:
  1906     006B                     	ds	1
  1907     006C                     _event_count:
  1908     006C                     	ds	1
  1909                           
  1910                           	psect	dataBANK0
  1911     006D                     __pdataBANK0:
  1912     006D                     main_menu@state:
  1913     006D                     	ds	2
  1914                           
  1915                           	psect	bssBANK1
  1916     00A0                     __pbssBANK1:
  1917     00A0                     set_time@prev_sec:
  1918     00A0                     	ds	2
  1919     00A2                     set_time@rtc_sec:
  1920     00A2                     	ds	2
  1921     00A4                     change_pass@flag:
  1922     00A4                     	ds	2
  1923     00A6                     change_pass@res_time:
  1924     00A6                     	ds	2
  1925     00A8                     change_pass@prev_sec2:
  1926     00A8                     	ds	2
  1927     00AA                     change_pass@prev_sec:
  1928     00AA                     	ds	2
  1929     00AC                     down_log@delay:
  1930     00AC                     	ds	2
  1931     00AE                     clear_log@delay:
  1932     00AE                     	ds	2
  1933     00B0                     view_log@read_addr:
  1934     00B0                     	ds	2
  1935     00B2                     main_menu@user_active:
  1936     00B2                     	ds	2
  1937     00B4                     main_menu@state_active:
  1938     00B4                     	ds	2
  1939     00B6                     main_menu@display:
  1940     00B6                     	ds	2
  1941     00B8                     _pos2:
  1942     00B8                     	ds	2
  1943     00BA                     login_screen@idle_count:
  1944     00BA                     	ds	2
  1945     00BC                     login_screen@flag:
  1946     00BC                     	ds	2
  1947     00BE                     login_screen@idle_prev_sec:
  1948     00BE                     	ds	2
  1949     00C0                     login_screen@prev_sec:
  1950     00C0                     	ds	2
  1951     00C2                     login_screen@user_active:
  1952     00C2                     	ds	2
  1953     00C4                     login_screen@block_start_sec:
  1954     00C4                     	ds	2
  1955     00C6                     isr@count:
  1956     00C6                     	ds	2
  1957     00C8                     _log_write_addr:
  1958     00C8                     	ds	2
  1959     00CA                     _adc_val:
  1960     00CA                     	ds	2
  1961     00CC                     _exit_ch_pass:
  1962     00CC                     	ds	1
  1963     00CD                     _exit_down_log:
  1964     00CD                     	ds	1
  1965     00CE                     _exit_clear_log:
  1966     00CE                     	ds	1
  1967     00CF                     _exit_view_log:
  1968     00CF                     	ds	1
  1969     00D0                     main_menu@sel:
  1970     00D0                     	ds	1
  1971     00D1                     set_time@time:
  1972     00D1                     	ds	3
  1973     00D4                     _speed:
  1974     00D4                     	ds	3
  1975     00D7                     _clock_reg:
  1976     00D7                     	ds	3
  1977                           
  1978                           	psect	dataBANK1
  1979     00DA                     __pdataBANK1:
  1980     00DA                     set_time@once:
  1981     00DA                     	ds	2
  1982     00DC                     view_log@flag:
  1983     00DC                     	ds	2
  1984     00DE                     login_screen@attempt:
  1985     00DE                     	ds	2
  1986     00E0                     _new_sec:
  1987     00E0                     	ds	2
  1988     00E2                     _prev_pos:
  1989     00E2                     	ds	2
  1990     00E4                     set_time@prev_key:
  1991     00E4                     	ds	1
  1992     00E5                     change_pass@once2:
  1993     00E5                     	ds	1
  1994     00E6                     change_pass@once1:
  1995     00E6                     	ds	1
  1996     00E7                     down_log@once:
  1997     00E7                     	ds	1
  1998     00E8                     clear_log@once:
  1999     00E8                     	ds	1
  2000     00E9                     view_log@no_log_once:
  2001     00E9                     	ds	1
  2002     00EA                     main_menu@menu_once:
  2003     00EA                     	ds	1
  2004     00EB                     read_digital_keypad@once:
  2005     00EB                     	ds	1
  2006                           
  2007                           	psect	bssBANK3
  2008     0190                     __pbssBANK3:
  2009     0190                     _line2:
  2010     0190                     	ds	17
  2011     01A1                     _line1:
  2012     01A1                     	ds	17
  2013     01B2                     _time:
  2014     01B2                     	ds	9
  2015     01BB                     change_pass@arr2:
  2016     01BB                     	ds	5
  2017     01C0                     change_pass@arr1:
  2018     01C0                     	ds	5
  2019     01C5                     _user_pass:
  2020     01C5                     	ds	5
  2021                           
  2022                           	psect	dataBANK3
  2023     01CA                     __pdataBANK3:
  2024     01CA                     _event:
  2025     01CA                     	ds	16
  2026     01DA                     _menu:
  2027     01DA                     	ds	10
  2028     01E4                     _pass:
  2029     01E4                     	ds	5
  2030                           
  2031                           	psect	dataBANK2
  2032     0110                     __pdataBANK2:
  2033     0110                     change_pass@str:
  2034     0110                     	ds	17
  2035     0121                     login_screen@str:
  2036     0121                     	ds	17
  2037                           
  2038                           	psect	inittext
  2039     1D88                     init_fetch0:	
  2040                           ;	Called with low address in FSR and high address in W
  2041                           
  2042     1D88  087E               	movf	btemp,w
  2043     1D89  008A               	movwf	10
  2044     1D8A  087F               	movf	btemp+1,w
  2045     1D8B  0082               	movwf	2
  2046     1D8C                     init_ram0:	
  2047                           ;Called with:
  2048                           ;	high address of idata address in btemp 
  2049                           ;	low address of idata address in btemp+1 
  2050                           ;	low address of data in FSR
  2051                           ;	high address + 1 of data in btemp-1
  2052                           
  2053     1D8C  160A  158A  2588  160A  158A  	fcall	init_fetch0
  2054     1D91  0080               	movwf	0
  2055     1D92  0A84               	incf	4,f
  2056     1D93  0804               	movf	4,w
  2057     1D94  067D               	xorwf	btemp+-1,w
  2058     1D95  1903               	btfsc	3,2
  2059     1D96  3400               	retlw	0
  2060     1D97  0AFF               	incf	btemp+1,f
  2061     1D98  1903               	btfsc	3,2
  2062     1D99  0AFE               	incf	btemp,f
  2063     1D9A  2D8C               	goto	init_ram0
  2064                           
  2065                           	psect	clrtext
  2066     1D10                     clear_ram0:	
  2067                           ;	Called with FSR containing the base address, and
  2068                           ;	W with the last address+1
  2069                           
  2070     1D10  0064               	clrwdt	;clear the watchdog before getting into this loop
  2071     1D11                     clrloop0:
  2072     1D11  0180               	clrf	0	;clear RAM location pointed to by FSR
  2073     1D12  0A84               	incf	4,f	;increment pointer
  2074     1D13  0604               	xorwf	4,w	;XOR with final address
  2075     1D14  1903               	btfsc	3,2	;have we reached the end yet?
  2076     1D15  3400               	retlw	0	;all done for this memory range, return
  2077     1D16  0604               	xorwf	4,w	;XOR again to restore value
  2078     1D17  2D11               	goto	clrloop0	;do the next byte
  2079                           
  2080                           	psect	cstackCOMMON
  2081     0070                     __pcstackCOMMON:
  2082     0070                     ?_read_ds1307:
  2083     0070                     ?_i2c_start:	
  2084                           ; 1 bytes @ 0x0
  2085                           
  2086     0070                     ?_i2c_rep_start:	
  2087                           ; 1 bytes @ 0x0
  2088                           
  2089     0070                     ?_i2c_read:	
  2090                           ; 1 bytes @ 0x0
  2091                           
  2092     0070                     ?_i2c_stop:	
  2093                           ; 1 bytes @ 0x0
  2094                           
  2095     0070                     ?_init_timer0:	
  2096                           ; 1 bytes @ 0x0
  2097                           
  2098     0070                     ?_view_log:	
  2099                           ; 1 bytes @ 0x0
  2100                           
  2101     0070                     ?_clear_log:	
  2102                           ; 1 bytes @ 0x0
  2103                           
  2104     0070                     ?_down_log:	
  2105                           ; 1 bytes @ 0x0
  2106                           
  2107     0070                     ?_set_time:	
  2108                           ; 1 bytes @ 0x0
  2109                           
  2110     0070                     ?_change_pass:	
  2111                           ; 1 bytes @ 0x0
  2112                           
  2113     0070                     ?_init_adc:	
  2114                           ; 1 bytes @ 0x0
  2115                           
  2116     0070                     ?_init_display_controller:	
  2117                           ; 1 bytes @ 0x0
  2118                           
  2119     0070                     ?_init_clcd:	
  2120                           ; 1 bytes @ 0x0
  2121                           
  2122     0070                     ?_clcd_clear_screen:	
  2123                           ; 1 bytes @ 0x0
  2124                           
  2125     0070                     ?_dashboard:	
  2126                           ; 1 bytes @ 0x0
  2127                           
  2128     0070                     ?_init_digital_keypad:	
  2129                           ; 1 bytes @ 0x0
  2130                           
  2131     0070                     ?_read_digital_keypad:	
  2132                           ; 1 bytes @ 0x0
  2133                           
  2134     0070                     ?_init_ds1307:	
  2135                           ; 1 bytes @ 0x0
  2136                           
  2137     0070                     ?_read_external_eeprom:	
  2138                           ; 1 bytes @ 0x0
  2139                           
  2140     0070                     ?_i2c_wait_for_idle:	
  2141                           ; 1 bytes @ 0x0
  2142                           
  2143     0070                     ?_isr:	
  2144                           ; 1 bytes @ 0x0
  2145                           
  2146     0070                     ?_login_screen:	
  2147                           ; 1 bytes @ 0x0
  2148                           
  2149     0070                     ?_main_menu:	
  2150                           ; 1 bytes @ 0x0
  2151                           
  2152     0070                     ?_init_config:	
  2153                           ; 1 bytes @ 0x0
  2154                           
  2155     0070                     ?_main:	
  2156                           ; 1 bytes @ 0x0
  2157                           
  2158     0070                     ?_putchar:	
  2159                           ; 1 bytes @ 0x0
  2160                           
  2161     0070                     ?_i2c_write:	
  2162                           ; 1 bytes @ 0x0
  2163                           
  2164     0070                     ??_isr:	
  2165                           ; 2 bytes @ 0x0
  2166                           
  2167                           
  2168                           ; 1 bytes @ 0x0
  2169     0070                     	ds	2
  2170     0072                     ?_clcd_write:
  2171     0072                     ?_store_time:	
  2172                           ; 1 bytes @ 0x2
  2173                           
  2174     0072                     ?_my_strcpy:	
  2175                           ; 1 bytes @ 0x2
  2176                           
  2177     0072                     ?_read_adc:	
  2178                           ; 1 bytes @ 0x2
  2179                           
  2180     0072                     ?_my_strcmp:	
  2181                           ; 2 bytes @ 0x2
  2182                           
  2183     0072                     ?___wmul:	
  2184                           ; 2 bytes @ 0x2
  2185                           
  2186     0072                     ?___awdiv:	
  2187                           ; 2 bytes @ 0x2
  2188                           
  2189     0072                     ?___lwdiv:	
  2190                           ; 2 bytes @ 0x2
  2191                           
  2192     0072                     ?___lwmod:	
  2193                           ; 2 bytes @ 0x2
  2194                           
  2195     0072                     clcd_write@mode:	
  2196                           ; 2 bytes @ 0x2
  2197                           
  2198     0072                     my_strcmp@str1:	
  2199                           ; 1 bytes @ 0x2
  2200                           
  2201     0072                     store_time@time:	
  2202                           ; 1 bytes @ 0x2
  2203                           
  2204     0072                     my_strcpy@dst:	
  2205                           ; 1 bytes @ 0x2
  2206                           
  2207     0072                     i2c_read@ack:	
  2208                           ; 1 bytes @ 0x2
  2209                           
  2210     0072                     i2c_write@data:	
  2211                           ; 1 bytes @ 0x2
  2212                           
  2213     0072                     putchar@data:	
  2214                           ; 1 bytes @ 0x2
  2215                           
  2216     0072                     ___wmul@multiplier:	
  2217                           ; 1 bytes @ 0x2
  2218                           
  2219     0072                     ___awdiv@divisor:	
  2220                           ; 2 bytes @ 0x2
  2221                           
  2222     0072                     ___lwdiv@divisor:	
  2223                           ; 2 bytes @ 0x2
  2224                           
  2225     0072                     ___lwmod@divisor:	
  2226                           ; 2 bytes @ 0x2
  2227                           
  2228     0072                     ??_i2c_start:	
  2229                           ; 2 bytes @ 0x2
  2230                           
  2231     0072                     ??_i2c_write:	
  2232                           ; 1 bytes @ 0x2
  2233                           
  2234     0072                     ??_i2c_rep_start:	
  2235                           ; 1 bytes @ 0x2
  2236                           
  2237     0072                     ??_i2c_read:	
  2238                           ; 1 bytes @ 0x2
  2239                           
  2240     0072                     ??_i2c_stop:	
  2241                           ; 1 bytes @ 0x2
  2242                           
  2243     0072                     ??_init_timer0:	
  2244                           ; 1 bytes @ 0x2
  2245                           
  2246     0072                     ??_init_adc:	
  2247                           ; 1 bytes @ 0x2
  2248                           
  2249     0072                     ??_init_digital_keypad:	
  2250                           ; 1 bytes @ 0x2
  2251                           
  2252     0072                     ??_read_digital_keypad:	
  2253                           ; 1 bytes @ 0x2
  2254                           
  2255     0072                     ??_i2c_wait_for_idle:	
  2256                           ; 1 bytes @ 0x2
  2257                           
  2258     0072                     ??_putchar:	
  2259                           ; 1 bytes @ 0x2
  2260                           
  2261     0072                     ??___lldiv:	
  2262                           ; 1 bytes @ 0x2
  2263                           
  2264                           
  2265                           ; 1 bytes @ 0x2
  2266     0072                     	ds	1
  2267     0073                     ?_write_external_eeprom:
  2268     0073                     ?_puts:	
  2269                           ; 1 bytes @ 0x3
  2270                           
  2271     0073                     my_strcmp@str2:	
  2272                           ; 1 bytes @ 0x3
  2273                           
  2274     0073                     store_time@clock_reg:	
  2275                           ; 1 bytes @ 0x3
  2276                           
  2277     0073                     my_strcpy@src:	
  2278                           ; 1 bytes @ 0x3
  2279                           
  2280     0073                     read_digital_keypad@mode:	
  2281                           ; 1 bytes @ 0x3
  2282                           
  2283     0073                     write_external_eeprom@data:	
  2284                           ; 1 bytes @ 0x3
  2285                           
  2286     0073                     i2c_read@data:	
  2287                           ; 1 bytes @ 0x3
  2288                           
  2289     0073                     puts@s:	
  2290                           ; 1 bytes @ 0x3
  2291                           
  2292     0073                     ___lldiv@quotient:	
  2293                           ; 2 bytes @ 0x3
  2294                           
  2295     0073                     ??_clcd_write:	
  2296                           ; 4 bytes @ 0x3
  2297                           
  2298                           
  2299                           ; 1 bytes @ 0x3
  2300     0073                     	ds	1
  2301     0074                     read_ds1307@addr:
  2302     0074                     read_external_eeprom@address:	
  2303                           ; 1 bytes @ 0x4
  2304                           
  2305     0074                     write_external_eeprom@wait:	
  2306                           ; 1 bytes @ 0x4
  2307                           
  2308     0074                     ___wmul@multiplicand:	
  2309                           ; 2 bytes @ 0x4
  2310                           
  2311     0074                     ___awdiv@dividend:	
  2312                           ; 2 bytes @ 0x4
  2313                           
  2314     0074                     ___lwdiv@dividend:	
  2315                           ; 2 bytes @ 0x4
  2316                           
  2317     0074                     ___lwmod@dividend:	
  2318                           ; 2 bytes @ 0x4
  2319                           
  2320     0074                     ??_read_ds1307:	
  2321                           ; 2 bytes @ 0x4
  2322                           
  2323     0074                     ??_write_external_eeprom:	
  2324                           ; 1 bytes @ 0x4
  2325                           
  2326     0074                     ??_read_adc:	
  2327                           ; 1 bytes @ 0x4
  2328                           
  2329     0074                     ??_my_strcmp:	
  2330                           ; 1 bytes @ 0x4
  2331                           
  2332     0074                     ??_store_time:	
  2333                           ; 1 bytes @ 0x4
  2334                           
  2335     0074                     ??_my_strcpy:	
  2336                           ; 1 bytes @ 0x4
  2337                           
  2338     0074                     ??_read_external_eeprom:	
  2339                           ; 1 bytes @ 0x4
  2340                           
  2341                           
  2342                           ; 1 bytes @ 0x4
  2343     0074                     	ds	1
  2344     0075                     clcd_write@byte:
  2345     0075                     read_ds1307@data:	
  2346                           ; 1 bytes @ 0x5
  2347                           
  2348     0075                     read_external_eeprom@data:	
  2349                           ; 1 bytes @ 0x5
  2350                           
  2351     0075                     read_adc@adc_reg_val:	
  2352                           ; 1 bytes @ 0x5
  2353                           
  2354     0075                     ??_puts:	
  2355                           ; 2 bytes @ 0x5
  2356                           
  2357                           
  2358                           ; 1 bytes @ 0x5
  2359     0075                     	ds	1
  2360     0076                     ?_get_time:
  2361     0076                     ?_display_time:	
  2362                           ; 1 bytes @ 0x6
  2363                           
  2364     0076                     get_time@clock_reg:	
  2365                           ; 1 bytes @ 0x6
  2366                           
  2367     0076                     display_time@clock_reg:	
  2368                           ; 1 bytes @ 0x6
  2369                           
  2370     0076                     write_external_eeprom@address:	
  2371                           ; 1 bytes @ 0x6
  2372                           
  2373     0076                     ___lwmod@counter:	
  2374                           ; 1 bytes @ 0x6
  2375                           
  2376     0076                     ___wmul@product:	
  2377                           ; 1 bytes @ 0x6
  2378                           
  2379     0076                     ??_clear_log:	
  2380                           ; 2 bytes @ 0x6
  2381                           
  2382     0076                     ??_init_display_controller:	
  2383                           ; 1 bytes @ 0x6
  2384                           
  2385     0076                     ??_clcd_print:	
  2386                           ; 1 bytes @ 0x6
  2387                           
  2388     0076                     ??_clcd_clear_screen:	
  2389                           ; 1 bytes @ 0x6
  2390                           
  2391     0076                     ??___wmul:	
  2392                           ; 1 bytes @ 0x6
  2393                           
  2394     0076                     ??___awdiv:	
  2395                           ; 1 bytes @ 0x6
  2396                           
  2397     0076                     ??___lwdiv:	
  2398                           ; 1 bytes @ 0x6
  2399                           
  2400     0076                     ??___lwmod:	
  2401                           ; 1 bytes @ 0x6
  2402                           
  2403                           
  2404                           ; 1 bytes @ 0x6
  2405     0076                     	ds	1
  2406     0077                     ?_write_ds1307:
  2407     0077                     ?_clcd_putch:	
  2408                           ; 1 bytes @ 0x7
  2409                           
  2410     0077                     read_adc@channel:	
  2411                           ; 1 bytes @ 0x7
  2412                           
  2413     0077                     clcd_putch@addr:	
  2414                           ; 1 bytes @ 0x7
  2415                           
  2416     0077                     write_ds1307@data:	
  2417                           ; 1 bytes @ 0x7
  2418                           
  2419     0077                     ___lldiv@counter:	
  2420                           ; 1 bytes @ 0x7
  2421                           
  2422     0077                     ??_get_time:	
  2423                           ; 1 bytes @ 0x7
  2424                           
  2425     0077                     ??_display_time:	
  2426                           ; 1 bytes @ 0x7
  2427                           
  2428                           
  2429                           ; 1 bytes @ 0x7
  2430     0077                     	ds	1
  2431     0078                     ??_write_ds1307:
  2432     0078                     ??_view_log:	
  2433                           ; 1 bytes @ 0x8
  2434                           
  2435     0078                     ??_init_clcd:	
  2436                           ; 1 bytes @ 0x8
  2437                           
  2438     0078                     ??_clcd_putch:	
  2439                           ; 1 bytes @ 0x8
  2440                           
  2441     0078                     ??_init_ds1307:	
  2442                           ; 1 bytes @ 0x8
  2443                           
  2444     0078                     ??_init_config:	
  2445                           ; 1 bytes @ 0x8
  2446                           
  2447     0078                     ??_main:	
  2448                           ; 1 bytes @ 0x8
  2449                           
  2450                           
  2451                           	psect	cstackBANK0
  2452     0020                     __pcstackBANK0:	
  2453                           ; 1 bytes @ 0x8
  2454                           
  2455     0020                     ?_store_event:
  2456     0020                     ?_clcd_print:	
  2457                           ; 1 bytes @ 0x0
  2458                           
  2459     0020                     ?___lldiv:	
  2460                           ; 1 bytes @ 0x0
  2461                           
  2462     0020                     ?___xxtofl:	
  2463                           ; 4 bytes @ 0x0
  2464                           
  2465     0020                     ___awdiv@counter:	
  2466                           ; 4 bytes @ 0x0
  2467                           
  2468     0020                     clcd_print@str:	
  2469                           ; 1 bytes @ 0x0
  2470                           
  2471     0020                     store_event@event:	
  2472                           ; 2 bytes @ 0x0
  2473                           
  2474     0020                     ___lwdiv@quotient:	
  2475                           ; 2 bytes @ 0x0
  2476                           
  2477     0020                     ___lldiv@divisor:	
  2478                           ; 2 bytes @ 0x0
  2479                           
  2480     0020                     ___xxtofl@val:	
  2481                           ; 4 bytes @ 0x0
  2482                           
  2483                           
  2484                           ; 4 bytes @ 0x0
  2485     0020                     	ds	1
  2486     0021                     ___awdiv@sign:
  2487                           
  2488                           ; 1 bytes @ 0x1
  2489     0021                     	ds	1
  2490     0022                     clcd_print@addr:
  2491     0022                     store_event@time:	
  2492                           ; 1 bytes @ 0x2
  2493                           
  2494     0022                     ___lwdiv@counter:	
  2495                           ; 1 bytes @ 0x2
  2496                           
  2497     0022                     ___awdiv@quotient:	
  2498                           ; 1 bytes @ 0x2
  2499                           
  2500                           
  2501                           ; 2 bytes @ 0x2
  2502     0022                     	ds	1
  2503     0023                     clcd_putch@data:
  2504     0023                     write_ds1307@addr:	
  2505                           ; 1 bytes @ 0x3
  2506                           
  2507     0023                     store_event@speed:	
  2508                           ; 1 bytes @ 0x3
  2509                           
  2510     0023                     view_log@line:	
  2511                           ; 1 bytes @ 0x3
  2512                           
  2513     0023                     ??_down_log:	
  2514                           ; 17 bytes @ 0x3
  2515                           
  2516                           
  2517                           ; 1 bytes @ 0x3
  2518     0023                     	ds	1
  2519     0024                     init_ds1307@dummy:
  2520     0024                     ___lldiv@dividend:	
  2521                           ; 1 bytes @ 0x4
  2522                           
  2523     0024                     ??_store_event:	
  2524                           ; 4 bytes @ 0x4
  2525                           
  2526     0024                     ??_set_time:	
  2527                           ; 1 bytes @ 0x4
  2528                           
  2529     0024                     ??_change_pass:	
  2530                           ; 1 bytes @ 0x4
  2531                           
  2532     0024                     ??_login_screen:	
  2533                           ; 1 bytes @ 0x4
  2534                           
  2535     0024                     ??_main_menu:	
  2536                           ; 1 bytes @ 0x4
  2537                           
  2538     0024                     ??___xxtofl:	
  2539                           ; 1 bytes @ 0x4
  2540                           
  2541                           
  2542                           ; 1 bytes @ 0x4
  2543     0024                     	ds	1
  2544     0025                     down_log@line:
  2545                           
  2546                           ; 17 bytes @ 0x5
  2547     0025                     	ds	1
  2548     0026                     main_menu@key:
  2549     0026                     _change_pass$413:	
  2550                           ; 1 bytes @ 0x6
  2551                           
  2552                           
  2553                           ; 2 bytes @ 0x6
  2554     0026                     	ds	1
  2555     0027                     _login_screen$252:
  2556                           
  2557                           ; 2 bytes @ 0x7
  2558     0027                     	ds	1
  2559     0028                     ?_init_uart:
  2560     0028                     ?_init_i2c:	
  2561                           ; 1 bytes @ 0x8
  2562                           
  2563     0028                     ___xxtofl@sign:	
  2564                           ; 1 bytes @ 0x8
  2565                           
  2566     0028                     store_event@address:	
  2567                           ; 1 bytes @ 0x8
  2568                           
  2569     0028                     _change_pass$414:	
  2570                           ; 2 bytes @ 0x8
  2571                           
  2572     0028                     _set_time$436:	
  2573                           ; 2 bytes @ 0x8
  2574                           
  2575     0028                     init_i2c@baud:	
  2576                           ; 2 bytes @ 0x8
  2577                           
  2578     0028                     init_uart@baud:	
  2579                           ; 4 bytes @ 0x8
  2580                           
  2581                           
  2582                           ; 4 bytes @ 0x8
  2583     0028                     	ds	1
  2584     0029                     ___xxtofl@exp:
  2585     0029                     _login_screen$253:	
  2586                           ; 1 bytes @ 0x9
  2587                           
  2588                           
  2589                           ; 2 bytes @ 0x9
  2590     0029                     	ds	1
  2591     002A                     _change_pass$416:
  2592     002A                     _set_time$437:	
  2593                           ; 2 bytes @ 0xA
  2594                           
  2595     002A                     ___xxtofl@arg:	
  2596                           ; 2 bytes @ 0xA
  2597                           
  2598                           
  2599                           ; 4 bytes @ 0xA
  2600     002A                     	ds	1
  2601     002B                     login_screen@elapsed:
  2602                           
  2603                           ; 2 bytes @ 0xB
  2604     002B                     	ds	1
  2605     002C                     _change_pass$417:
  2606     002C                     _set_time$438:	
  2607                           ; 2 bytes @ 0xC
  2608                           
  2609     002C                     ??_init_uart:	
  2610                           ; 2 bytes @ 0xC
  2611                           
  2612     002C                     ??_init_i2c:	
  2613                           ; 1 bytes @ 0xC
  2614                           
  2615                           
  2616                           ; 1 bytes @ 0xC
  2617     002C                     	ds	1
  2618     002D                     login_screen@remain:
  2619                           
  2620                           ; 2 bytes @ 0xD
  2621     002D                     	ds	1
  2622     002E                     ?___fldiv:
  2623     002E                     change_pass@key:	
  2624                           ; 4 bytes @ 0xE
  2625                           
  2626     002E                     set_time@pos:	
  2627                           ; 1 bytes @ 0xE
  2628                           
  2629     002E                     ___fldiv@a:	
  2630                           ; 1 bytes @ 0xE
  2631                           
  2632                           
  2633                           ; 4 bytes @ 0xE
  2634     002E                     	ds	1
  2635     002F                     login_screen@key:
  2636     002F                     _set_time$433:	
  2637                           ; 1 bytes @ 0xF
  2638                           
  2639                           
  2640                           ; 1 bytes @ 0xF
  2641     002F                     	ds	1
  2642     0030                     set_time@key:
  2643                           
  2644                           ; 1 bytes @ 0x10
  2645     0030                     	ds	2
  2646     0032                     ___fldiv@b:
  2647                           
  2648                           ; 4 bytes @ 0x12
  2649     0032                     	ds	2
  2650     0034                     view_log@key:
  2651                           
  2652                           ; 1 bytes @ 0x14
  2653     0034                     	ds	1
  2654     0035                     view_log@addr:
  2655                           
  2656                           ; 2 bytes @ 0x15
  2657     0035                     	ds	1
  2658     0036                     down_log@i:
  2659     0036                     ??___fldiv:	
  2660                           ; 2 bytes @ 0x16
  2661                           
  2662                           
  2663                           ; 1 bytes @ 0x16
  2664     0036                     	ds	2
  2665     0038                     down_log@addr:
  2666                           
  2667                           ; 2 bytes @ 0x18
  2668     0038                     	ds	3
  2669     003B                     ___fldiv@rem:
  2670                           
  2671                           ; 4 bytes @ 0x1B
  2672     003B                     	ds	4
  2673     003F                     ___fldiv@sign:
  2674                           
  2675                           ; 1 bytes @ 0x1F
  2676     003F                     	ds	1
  2677     0040                     ___fldiv@new_exp:
  2678                           
  2679                           ; 2 bytes @ 0x20
  2680     0040                     	ds	2
  2681     0042                     ___fldiv@grs:
  2682                           
  2683                           ; 4 bytes @ 0x22
  2684     0042                     	ds	4
  2685     0046                     ___fldiv@bexp:
  2686                           
  2687                           ; 1 bytes @ 0x26
  2688     0046                     	ds	1
  2689     0047                     ___fldiv@aexp:
  2690                           
  2691                           ; 1 bytes @ 0x27
  2692     0047                     	ds	1
  2693     0048                     ?___fltol:
  2694     0048                     ___fltol@f1:	
  2695                           ; 4 bytes @ 0x28
  2696                           
  2697                           
  2698                           ; 4 bytes @ 0x28
  2699     0048                     	ds	4
  2700     004C                     ??___fltol:
  2701                           
  2702                           ; 1 bytes @ 0x2C
  2703     004C                     	ds	4
  2704     0050                     ___fltol@sign1:
  2705                           
  2706                           ; 1 bytes @ 0x30
  2707     0050                     	ds	1
  2708     0051                     ___fltol@exp1:
  2709                           
  2710                           ; 1 bytes @ 0x31
  2711     0051                     	ds	1
  2712     0052                     ??_dashboard:
  2713                           
  2714                           ; 1 bytes @ 0x32
  2715     0052                     	ds	7
  2716     0059                     dashboard@key:
  2717                           
  2718                           ; 1 bytes @ 0x39
  2719     0059                     	ds	1
  2720     005A                     main@key:
  2721                           
  2722                           ; 1 bytes @ 0x3A
  2723     005A                     	ds	1
  2724                           
  2725                           	psect	maintext
  2726     1585                     __pmaintext:	
  2727 ;;
  2728 ;;Main: autosize = 0, tempsize = 0, incstack = 0, save=0
  2729 ;;
  2730 ;; *************** function _main *****************
  2731 ;; Defined at:
  2732 ;;		line 35 in file "main.c"
  2733 ;; Parameters:    Size  Location     Type
  2734 ;;		None
  2735 ;; Auto vars:     Size  Location     Type
  2736 ;;  key             1   58[BANK0 ] unsigned char 
  2737 ;; Return value:  Size  Location     Type
  2738 ;;                  1    wreg      void 
  2739 ;; Registers used:
  2740 ;;		wreg, fsr0l, fsr0h, status,2, status,0, pclath, btemp1, cstack
  2741 ;; Tracked objects:
  2742 ;;		On entry : B00/0
  2743 ;;		On exit  : 0/0
  2744 ;;		Unchanged: 0/0
  2745 ;; Data sizes:     COMMON   BANK0   BANK1   BANK3   BANK2
  2746 ;;      Params:         0       0       0       0       0
  2747 ;;      Locals:         0       1       0       0       0
  2748 ;;      Temps:          0       0       0       0       0
  2749 ;;      Totals:         0       1       0       0       0
  2750 ;;Total ram usage:        1 bytes
  2751 ;; Hardware stack levels required when called: 7
  2752 ;; This function calls:
  2753 ;;		_change_pass
  2754 ;;		_clear_log
  2755 ;;		_dashboard
  2756 ;;		_down_log
  2757 ;;		_init_config
  2758 ;;		_login_screen
  2759 ;;		_main_menu
  2760 ;;		_read_digital_keypad
  2761 ;;		_set_time
  2762 ;;		_view_log
  2763 ;; This function is called by:
  2764 ;;		Startup code after reset
  2765 ;; This function uses a non-reentrant model
  2766 ;;
  2767                           
  2768     1585                     _main:	
  2769                           ;psect for function _main
  2770                           
  2771     1585                     l4197:	
  2772                           ;incstack = 0
  2773                           ; Regs used in _main: [wreg-fsr0h+status,2+status,0+pclath+btemp1+cstack]
  2774                           
  2775                           
  2776                           ;main.c: 37:     init_config();
  2777     1585  160A  118A  2259  160A  118A  	fcall	_init_config
  2778     158A                     l445:	
  2779                           ;main.c: 38:     unsigned char key;;main.c: 40:     while(1)
  2780                           
  2781                           
  2782                           ;main.c: 41:     {;main.c: 43:         key = read_digital_keypad(1);
  2783     158A  3001               	movlw	1
  2784     158B  160A  158A  273B  160A  118A  	fcall	_read_digital_keypad
  2785     1590  1283               	bcf	3,5	;RP0=0, select bank0
  2786     1591  1303               	bcf	3,6	;RP1=0, select bank0
  2787     1592  00DA               	movwf	main@key
  2788     1593                     l4199:
  2789                           
  2790                           ;main.c: 49:         if(exit_view_log)
  2791     1593  1683               	bsf	3,5	;RP0=1, select bank1
  2792     1594  1303               	bcf	3,6	;RP1=0, select bank1
  2793     1595  084F               	movf	_exit_view_log^(0+128),w
  2794     1596  1903               	btfsc	3,2
  2795     1597  2D99               	goto	u4471
  2796     1598  2D9A               	goto	u4470
  2797     1599                     u4471:
  2798     1599  2DA1               	goto	l4205
  2799     159A                     u4470:
  2800     159A                     l4201:
  2801                           
  2802                           ;main.c: 50:         {;main.c: 51:             operation = 2;
  2803     159A  3002               	movlw	2
  2804     159B  1283               	bcf	3,5	;RP0=0, select bank0
  2805     159C  1303               	bcf	3,6	;RP1=0, select bank0
  2806     159D  00EB               	movwf	_operation
  2807     159E                     l4203:
  2808                           
  2809                           ;main.c: 52:             exit_view_log = 0;
  2810     159E  1683               	bsf	3,5	;RP0=1, select bank1
  2811     159F  1303               	bcf	3,6	;RP1=0, select bank1
  2812     15A0  01CF               	clrf	_exit_view_log^(0+128)
  2813     15A1                     l4205:
  2814                           
  2815                           ;main.c: 56:         if(exit_clear_log)
  2816     15A1  084E               	movf	_exit_clear_log^(0+128),w
  2817     15A2  1903               	btfsc	3,2
  2818     15A3  2DA5               	goto	u4481
  2819     15A4  2DA6               	goto	u4480
  2820     15A5                     u4481:
  2821     15A5  2DAD               	goto	l4211
  2822     15A6                     u4480:
  2823     15A6                     l4207:
  2824                           
  2825                           ;main.c: 57:         {;main.c: 58:             operation = 2;
  2826     15A6  3002               	movlw	2
  2827     15A7  1283               	bcf	3,5	;RP0=0, select bank0
  2828     15A8  1303               	bcf	3,6	;RP1=0, select bank0
  2829     15A9  00EB               	movwf	_operation
  2830     15AA                     l4209:
  2831                           
  2832                           ;main.c: 59:             exit_clear_log = 0;
  2833     15AA  1683               	bsf	3,5	;RP0=1, select bank1
  2834     15AB  1303               	bcf	3,6	;RP1=0, select bank1
  2835     15AC  01CE               	clrf	_exit_clear_log^(0+128)
  2836     15AD                     l4211:
  2837                           
  2838                           ;main.c: 63:         if(exit_down_log)
  2839     15AD  084D               	movf	_exit_down_log^(0+128),w
  2840     15AE  1903               	btfsc	3,2
  2841     15AF  2DB1               	goto	u4491
  2842     15B0  2DB2               	goto	u4490
  2843     15B1                     u4491:
  2844     15B1  2DB9               	goto	l4217
  2845     15B2                     u4490:
  2846     15B2                     l4213:
  2847                           
  2848                           ;main.c: 64:         {;main.c: 65:             operation = 2;
  2849     15B2  3002               	movlw	2
  2850     15B3  1283               	bcf	3,5	;RP0=0, select bank0
  2851     15B4  1303               	bcf	3,6	;RP1=0, select bank0
  2852     15B5  00EB               	movwf	_operation
  2853     15B6                     l4215:
  2854                           
  2855                           ;main.c: 66:             exit_down_log = 0;
  2856     15B6  1683               	bsf	3,5	;RP0=1, select bank1
  2857     15B7  1303               	bcf	3,6	;RP1=0, select bank1
  2858     15B8  01CD               	clrf	_exit_down_log^(0+128)
  2859     15B9                     l4217:
  2860                           
  2861                           ;main.c: 70:         if(exit_ch_pass)
  2862     15B9  084C               	movf	_exit_ch_pass^(0+128),w
  2863     15BA  1903               	btfsc	3,2
  2864     15BB  2DBD               	goto	u4501
  2865     15BC  2DBE               	goto	u4500
  2866     15BD                     u4501:
  2867     15BD  2DC4               	goto	l4221
  2868     15BE                     u4500:
  2869     15BE                     l4219:
  2870                           
  2871                           ;main.c: 71:         {;main.c: 72:             operation = 0;
  2872     15BE  1283               	bcf	3,5	;RP0=0, select bank0
  2873     15BF  1303               	bcf	3,6	;RP1=0, select bank0
  2874     15C0  01EB               	clrf	_operation
  2875                           
  2876                           ;main.c: 73:             exit_ch_pass = 0;
  2877     15C1  1683               	bsf	3,5	;RP0=1, select bank1
  2878     15C2  1303               	bcf	3,6	;RP1=0, select bank1
  2879     15C3  01CC               	clrf	_exit_ch_pass^(0+128)
  2880     15C4                     l4221:
  2881                           
  2882                           ;main.c: 78:         if(key == 0x37 && operation == 0)
  2883     15C4  3037               	movlw	55
  2884     15C5  1283               	bcf	3,5	;RP0=0, select bank0
  2885     15C6  1303               	bcf	3,6	;RP1=0, select bank0
  2886     15C7  065A               	xorwf	main@key,w
  2887     15C8  1D03               	btfss	3,2
  2888     15C9  2DCB               	goto	u4511
  2889     15CA  2DCC               	goto	u4510
  2890     15CB                     u4511:
  2891     15CB  2DD3               	goto	l4227
  2892     15CC                     u4510:
  2893     15CC                     l4223:
  2894     15CC  086B               	movf	_operation,w
  2895     15CD  1D03               	btfss	3,2
  2896     15CE  2DD0               	goto	u4521
  2897     15CF  2DD1               	goto	u4520
  2898     15D0                     u4521:
  2899     15D0  2DD3               	goto	l4227
  2900     15D1                     u4520:
  2901     15D1                     l4225:
  2902                           
  2903                           ;main.c: 79:         {;main.c: 80:             operation = 1;
  2904     15D1  3001               	movlw	1
  2905     15D2  00EB               	movwf	_operation
  2906     15D3                     l4227:
  2907                           
  2908                           ;main.c: 86:         if(operation == 0)
  2909     15D3  086B               	movf	_operation,w
  2910     15D4  1D03               	btfss	3,2
  2911     15D5  2DD7               	goto	u4531
  2912     15D6  2DD8               	goto	u4530
  2913     15D7                     u4531:
  2914     15D7  2DDF               	goto	l4231
  2915     15D8                     u4530:
  2916     15D8                     l4229:
  2917                           
  2918                           ;main.c: 87:             dashboard(key);
  2919     15D8  085A               	movf	main@key,w
  2920     15D9  120A  158A  242D  160A  118A  	fcall	_dashboard
  2921     15DE  2D8A               	goto	l445
  2922     15DF                     l4231:
  2923     15DF  036B               	decf	_operation,w
  2924     15E0  1D03               	btfss	3,2
  2925     15E1  2DE3               	goto	u4541
  2926     15E2  2DE4               	goto	u4540
  2927     15E3                     u4541:
  2928     15E3  2DEB               	goto	l4235
  2929     15E4                     u4540:
  2930     15E4                     l4233:
  2931                           
  2932                           ;main.c: 90:             login_screen(key);
  2933     15E4  085A               	movf	main@key,w
  2934     15E5  120A  118A  2392  160A  118A  	fcall	_login_screen
  2935     15EA  2D8A               	goto	l445
  2936     15EB                     l4235:
  2937     15EB  3002               	movlw	2
  2938     15EC  066B               	xorwf	_operation,w
  2939     15ED  1D03               	btfss	3,2
  2940     15EE  2DF0               	goto	u4551
  2941     15EF  2DF1               	goto	u4550
  2942     15F0                     u4551:
  2943     15F0  2DF8               	goto	l4239
  2944     15F1                     u4550:
  2945     15F1                     l4237:
  2946                           
  2947                           ;main.c: 93:             main_menu(key);
  2948     15F1  085A               	movf	main@key,w
  2949     15F2  120A  158A  2160  160A  118A  	fcall	_main_menu
  2950     15F7  2D8A               	goto	l445
  2951     15F8                     l4239:
  2952     15F8  3003               	movlw	3
  2953     15F9  066B               	xorwf	_operation,w
  2954     15FA  1D03               	btfss	3,2
  2955     15FB  2DFD               	goto	u4561
  2956     15FC  2DFE               	goto	u4560
  2957     15FD                     u4561:
  2958     15FD  2E05               	goto	l4243
  2959     15FE                     u4560:
  2960     15FE                     l4241:
  2961                           
  2962                           ;main.c: 96:             view_log(key);
  2963     15FE  085A               	movf	main@key,w
  2964     15FF  120A  158A  22B4  160A  118A  	fcall	_view_log
  2965     1604  2D8A               	goto	l445
  2966     1605                     l4243:
  2967     1605  3004               	movlw	4
  2968     1606  066B               	xorwf	_operation,w
  2969     1607  1D03               	btfss	3,2
  2970     1608  2E0A               	goto	u4571
  2971     1609  2E0B               	goto	u4570
  2972     160A                     u4571:
  2973     160A  2E11               	goto	l4247
  2974     160B                     u4570:
  2975     160B                     l4245:
  2976                           
  2977                           ;main.c: 99:             clear_log();
  2978     160B  160A  118A  2292  160A  118A  	fcall	_clear_log
  2979     1610  2D8A               	goto	l445
  2980     1611                     l4247:
  2981     1611  3005               	movlw	5
  2982     1612  066B               	xorwf	_operation,w
  2983     1613  1D03               	btfss	3,2
  2984     1614  2E16               	goto	u4581
  2985     1615  2E17               	goto	u4580
  2986     1616                     u4581:
  2987     1616  2E1D               	goto	l4251
  2988     1617                     u4580:
  2989     1617                     l4249:
  2990                           
  2991                           ;main.c: 102:             down_log();
  2992     1617  120A  158A  201C  160A  118A  	fcall	_down_log
  2993     161C  2D8A               	goto	l445
  2994     161D                     l4251:
  2995     161D  3006               	movlw	6
  2996     161E  066B               	xorwf	_operation,w
  2997     161F  1D03               	btfss	3,2
  2998     1620  2E22               	goto	u4591
  2999     1621  2E23               	goto	u4590
  3000     1622                     u4591:
  3001     1622  2E2A               	goto	l4255
  3002     1623                     u4590:
  3003     1623                     l4253:
  3004                           
  3005                           ;main.c: 105:             set_time(key);
  3006     1623  085A               	movf	main@key,w
  3007     1624  120A  118A  2066  160A  118A  	fcall	_set_time
  3008     1629  2D8A               	goto	l445
  3009     162A                     l4255:
  3010     162A  3007               	movlw	7
  3011     162B  066B               	xorwf	_operation,w
  3012     162C  1D03               	btfss	3,2
  3013     162D  2E2F               	goto	u4601
  3014     162E  2E30               	goto	u4600
  3015     162F                     u4601:
  3016     162F  2D8A               	goto	l445
  3017     1630                     u4600:
  3018     1630                     l4257:
  3019                           
  3020                           ;main.c: 108:             change_pass(key);
  3021     1630  085A               	movf	main@key,w
  3022     1631  120A  158A  25E1  160A  118A  	fcall	_change_pass
  3023     1636  2D8A               	goto	l445
  3024     1637  120A  118A  280C   	ljmp	start
  3025     163A                     __end_of_main:
  3026                           
  3027                           	psect	text1
  3028     0AB4                     __ptext1:	
  3029 ;; *************** function _view_log *****************
  3030 ;; Defined at:
  3031 ;;		line 15 in file "menu_actions.c"
  3032 ;; Parameters:    Size  Location     Type
  3033 ;;  key             1    wreg     unsigned char 
  3034 ;; Auto vars:     Size  Location     Type
  3035 ;;  key             1   20[BANK0 ] unsigned char 
  3036 ;;  line           17    3[BANK0 ] unsigned char [17]
  3037 ;;  addr            2   21[BANK0 ] unsigned int 
  3038 ;; Return value:  Size  Location     Type
  3039 ;;                  1    wreg      void 
  3040 ;; Registers used:
  3041 ;;		wreg, fsr0l, fsr0h, status,2, status,0, pclath, btemp1, cstack
  3042 ;; Tracked objects:
  3043 ;;		On entry : 0/0
  3044 ;;		On exit  : 0/0
  3045 ;;		Unchanged: 0/0
  3046 ;; Data sizes:     COMMON   BANK0   BANK1   BANK3   BANK2
  3047 ;;      Params:         0       0       0       0       0
  3048 ;;      Locals:         0      20       0       0       0
  3049 ;;      Temps:          0       0       0       0       0
  3050 ;;      Totals:         0      20       0       0       0
  3051 ;;Total ram usage:       20 bytes
  3052 ;; Hardware stack levels used: 1
  3053 ;; Hardware stack levels required when called: 2
  3054 ;; This function calls:
  3055 ;;		___lwdiv
  3056 ;;		___wmul
  3057 ;;		_clcd_print
  3058 ;;		_read_external_eeprom
  3059 ;; This function is called by:
  3060 ;;		_main
  3061 ;; This function uses a non-reentrant model
  3062 ;;
  3063                           
  3064     0AB4                     _view_log:	
  3065                           ;psect for function _view_log
  3066                           
  3067                           
  3068                           ;incstack = 0
  3069                           ; Regs used in _view_log: [wreg-fsr0h+status,2+status,0+pclath+btemp1+cstack]
  3070                           ;view_log@key stored from wreg
  3071     0AB4  1283               	bcf	3,5	;RP0=0, select bank0
  3072     0AB5  1303               	bcf	3,6	;RP1=0, select bank0
  3073     0AB6  00B4               	movwf	view_log@key
  3074     0AB7                     l3733:
  3075                           
  3076                           ;menu_actions.c: 15: void view_log(unsigned char key);menu_actions.c: 16: {;menu_actions
      +                          .c: 17:     static unsigned int read_addr = 0;;menu_actions.c: 18:     static int flag =
      +                           1;;menu_actions.c: 19:     static unsigned char no_log_once = 1;;menu_actions.c: 21:   
      +                            char line[17];;menu_actions.c: 22:     unsigned int addr;;menu_actions.c: 24:     if(e
      +                          vent_count == 0)
  3077     0AB7  086C               	movf	_event_count,w
  3078     0AB8  1D03               	btfss	3,2
  3079     0AB9  2ABB               	goto	u3781
  3080     0ABA  2ABC               	goto	u3780
  3081     0ABB                     u3781:
  3082     0ABB  2AF5               	goto	l3751
  3083     0ABC                     u3780:
  3084     0ABC                     l3735:
  3085                           
  3086                           ;menu_actions.c: 25:     {;menu_actions.c: 26:         if(no_log_once)
  3087     0ABC  1683               	bsf	3,5	;RP0=1, select bank1
  3088     0ABD  1303               	bcf	3,6	;RP1=0, select bank1
  3089     0ABE  0869               	movf	view_log@no_log_once^(0+128),w
  3090     0ABF  1903               	btfsc	3,2
  3091     0AC0  2AC2               	goto	u3791
  3092     0AC1  2AC3               	goto	u3790
  3093     0AC2                     u3791:
  3094     0AC2  2AE0               	goto	l3741
  3095     0AC3                     u3790:
  3096     0AC3                     l3737:
  3097                           
  3098                           ;menu_actions.c: 27:         {;menu_actions.c: 28:             clcd_print(" NO LOGS FOUN
      +                          D ", (0x80 + 0));
  3099     0AC3  3025               	movlw	low (STR_23| (0+32768))
  3100     0AC4  1283               	bcf	3,5	;RP0=0, select bank0
  3101     0AC5  1303               	bcf	3,6	;RP1=0, select bank0
  3102     0AC6  00A0               	movwf	clcd_print@str
  3103     0AC7  3091               	movlw	high (STR_23| (0+32768))
  3104     0AC8  00A1               	movwf	clcd_print@str+1
  3105     0AC9  3080               	movlw	128
  3106     0ACA  00A2               	movwf	clcd_print@addr
  3107     0ACB  160A  158A  279A  120A  158A  	fcall	_clcd_print
  3108                           
  3109                           ;menu_actions.c: 29:             clcd_print("   PRESS SW5   ", (0xC0 + 0));
  3110     0AD0  3015               	movlw	low (STR_24| (0+32768))
  3111     0AD1  1283               	bcf	3,5	;RP0=0, select bank0
  3112     0AD2  1303               	bcf	3,6	;RP1=0, select bank0
  3113     0AD3  00A0               	movwf	clcd_print@str
  3114     0AD4  3091               	movlw	high (STR_24| (0+32768))
  3115     0AD5  00A1               	movwf	clcd_print@str+1
  3116     0AD6  30C0               	movlw	192
  3117     0AD7  00A2               	movwf	clcd_print@addr
  3118     0AD8  160A  158A  279A  120A  158A  	fcall	_clcd_print
  3119     0ADD                     l3739:
  3120                           
  3121                           ;menu_actions.c: 30:             no_log_once = 0;
  3122     0ADD  1683               	bsf	3,5	;RP0=1, select bank1
  3123     0ADE  1303               	bcf	3,6	;RP1=0, select bank1
  3124     0ADF  01E9               	clrf	view_log@no_log_once^(0+128)
  3125     0AE0                     l3741:
  3126                           
  3127                           ;menu_actions.c: 33:         if(key == 0x2F)
  3128     0AE0  302F               	movlw	47
  3129     0AE1  1283               	bcf	3,5	;RP0=0, select bank0
  3130     0AE2  1303               	bcf	3,6	;RP1=0, select bank0
  3131     0AE3  0634               	xorwf	view_log@key,w
  3132     0AE4  1D03               	btfss	3,2
  3133     0AE5  2AE7               	goto	u3801
  3134     0AE6  2AE8               	goto	u3800
  3135     0AE7                     u3801:
  3136     0AE7  2C2C               	goto	l514
  3137     0AE8                     u3800:
  3138     0AE8                     l3743:
  3139                           
  3140                           ;menu_actions.c: 34:         {;menu_actions.c: 35:             exit_view_log = 1;
  3141     0AE8  3001               	movlw	1
  3142     0AE9  1683               	bsf	3,5	;RP0=1, select bank1
  3143     0AEA  1303               	bcf	3,6	;RP1=0, select bank1
  3144     0AEB  00CF               	movwf	_exit_view_log^(0+128)
  3145                           
  3146                           ;menu_actions.c: 36:             no_log_once = 1;
  3147     0AEC  3001               	movlw	1
  3148     0AED  00E9               	movwf	view_log@no_log_once^(0+128)
  3149     0AEE                     l3745:
  3150                           
  3151                           ;menu_actions.c: 37:             read_addr = 0;
  3152     0AEE  01B0               	clrf	view_log@read_addr^(0+128)
  3153     0AEF  01B1               	clrf	(view_log@read_addr+1)^(0+128)
  3154     0AF0                     l3747:
  3155                           
  3156                           ;menu_actions.c: 38:             flag = 1;
  3157     0AF0  3001               	movlw	1
  3158     0AF1  00DC               	movwf	view_log@flag^(0+128)
  3159     0AF2  3000               	movlw	0
  3160     0AF3  00DD               	movwf	(view_log@flag^(0+128)+1)
  3161     0AF4  2C2C               	goto	l514
  3162     0AF5                     l3751:
  3163                           
  3164                           ;menu_actions.c: 43:     if(flag)
  3165     0AF5  1683               	bsf	3,5	;RP0=1, select bank1
  3166     0AF6  1303               	bcf	3,6	;RP1=0, select bank1
  3167     0AF7  085C               	movf	view_log@flag^(0+128),w
  3168     0AF8  045D               	iorwf	(view_log@flag+1)^(0+128),w
  3169     0AF9  1903               	btfsc	3,2
  3170     0AFA  2AFC               	goto	u3811
  3171     0AFB  2AFD               	goto	u3810
  3172     0AFC                     u3811:
  3173     0AFC  2B12               	goto	l3761
  3174     0AFD                     u3810:
  3175     0AFD                     l3753:
  3176                           
  3177                           ;menu_actions.c: 44:     {;menu_actions.c: 45:         clcd_print("#   TIME   EV SP", (0
      +                          x80 + 0));
  3178     0AFD  309E               	movlw	low (STR_25| (0+32768))
  3179     0AFE  1283               	bcf	3,5	;RP0=0, select bank0
  3180     0AFF  1303               	bcf	3,6	;RP1=0, select bank0
  3181     0B00  00A0               	movwf	clcd_print@str
  3182     0B01  3090               	movlw	high (STR_25| (0+32768))
  3183     0B02  00A1               	movwf	clcd_print@str+1
  3184     0B03  3080               	movlw	128
  3185     0B04  00A2               	movwf	clcd_print@addr
  3186     0B05  160A  158A  279A  120A  158A  	fcall	_clcd_print
  3187     0B0A                     l3755:
  3188                           
  3189                           ;menu_actions.c: 46:         read_addr = 0;
  3190     0B0A  1683               	bsf	3,5	;RP0=1, select bank1
  3191     0B0B  1303               	bcf	3,6	;RP1=0, select bank1
  3192     0B0C  01B0               	clrf	view_log@read_addr^(0+128)
  3193     0B0D  01B1               	clrf	(view_log@read_addr+1)^(0+128)
  3194     0B0E                     l3757:
  3195                           
  3196                           ;menu_actions.c: 47:         no_log_once = 1;
  3197     0B0E  3001               	movlw	1
  3198     0B0F  00E9               	movwf	view_log@no_log_once^(0+128)
  3199     0B10                     l3759:
  3200                           
  3201                           ;menu_actions.c: 48:         flag = 0;
  3202     0B10  01DC               	clrf	view_log@flag^(0+128)
  3203     0B11  01DD               	clrf	(view_log@flag+1)^(0+128)
  3204     0B12                     l3761:
  3205                           
  3206                           ;menu_actions.c: 51:     if(key == 0x2F)
  3207     0B12  302F               	movlw	47
  3208     0B13  1283               	bcf	3,5	;RP0=0, select bank0
  3209     0B14  1303               	bcf	3,6	;RP1=0, select bank0
  3210     0B15  0634               	xorwf	view_log@key,w
  3211     0B16  1D03               	btfss	3,2
  3212     0B17  2B19               	goto	u3821
  3213     0B18  2B1A               	goto	u3820
  3214     0B19                     u3821:
  3215     0B19  2B1F               	goto	l3771
  3216     0B1A                     u3820:
  3217     0B1A                     l3763:
  3218                           
  3219                           ;menu_actions.c: 52:     {;menu_actions.c: 53:         exit_view_log = 1;
  3220     0B1A  3001               	movlw	1
  3221     0B1B  1683               	bsf	3,5	;RP0=1, select bank1
  3222     0B1C  1303               	bcf	3,6	;RP1=0, select bank1
  3223     0B1D  00CF               	movwf	_exit_view_log^(0+128)
  3224     0B1E  2AEE               	goto	l3745
  3225     0B1F                     l3771:
  3226                           
  3227                           ;menu_actions.c: 59:     if(key == 0x3D && read_addr >= 10)
  3228     0B1F  303D               	movlw	61
  3229     0B20  0634               	xorwf	view_log@key,w
  3230     0B21  1D03               	btfss	3,2
  3231     0B22  2B24               	goto	u3831
  3232     0B23  2B25               	goto	u3830
  3233     0B24                     u3831:
  3234     0B24  2B37               	goto	l3777
  3235     0B25                     u3830:
  3236     0B25                     l3773:
  3237     0B25  3000               	movlw	0
  3238     0B26  1683               	bsf	3,5	;RP0=1, select bank1
  3239     0B27  1303               	bcf	3,6	;RP1=0, select bank1
  3240     0B28  0231               	subwf	(view_log@read_addr+1)^(0+128),w
  3241     0B29  300A               	movlw	10
  3242     0B2A  1903               	skipnz
  3243     0B2B  0230               	subwf	view_log@read_addr^(0+128),w
  3244     0B2C  1C03               	skipc
  3245     0B2D  2B2F               	goto	u3841
  3246     0B2E  2B30               	goto	u3840
  3247     0B2F                     u3841:
  3248     0B2F  2B37               	goto	l3777
  3249     0B30                     u3840:
  3250     0B30                     l3775:
  3251                           
  3252                           ;menu_actions.c: 60:         read_addr -= 10;
  3253     0B30  300A               	movlw	10
  3254     0B31  02B0               	subwf	view_log@read_addr^(0+128),f
  3255     0B32  3000               	movlw	0
  3256     0B33  1C03               	skipc
  3257     0B34  03B1               	decf	(view_log@read_addr+1)^(0+128),f
  3258     0B35  02B1               	subwf	(view_log@read_addr+1)^(0+128),f
  3259     0B36  2B60               	goto	l518
  3260     0B37                     l3777:
  3261     0B37  303E               	movlw	62
  3262     0B38  1283               	bcf	3,5	;RP0=0, select bank0
  3263     0B39  0634               	xorwf	view_log@key,w
  3264     0B3A  1D03               	btfss	3,2
  3265     0B3B  2B3D               	goto	u3851
  3266     0B3C  2B3E               	goto	u3850
  3267     0B3D                     u3851:
  3268     0B3D  2B60               	goto	l518
  3269     0B3E                     u3850:
  3270     0B3E                     l3779:
  3271     0B3E  086C               	movf	_event_count,w
  3272     0B3F  3EFF               	addlw	255
  3273     0B40  00F2               	movwf	___wmul@multiplier
  3274     0B41  30FF               	movlw	255
  3275     0B42  1803               	skipnc
  3276     0B43  3000               	movlw	0
  3277     0B44  00F3               	movwf	___wmul@multiplier+1
  3278     0B45  300A               	movlw	10
  3279     0B46  00F4               	movwf	___wmul@multiplicand
  3280     0B47  3000               	movlw	0
  3281     0B48  00F5               	movwf	___wmul@multiplicand+1
  3282     0B49  160A  158A  2672  120A  158A  	fcall	___wmul
  3283     0B4E  0873               	movf	?___wmul+1,w
  3284     0B4F  1683               	bsf	3,5	;RP0=1, select bank1
  3285     0B50  1303               	bcf	3,6	;RP1=0, select bank1
  3286     0B51  0231               	subwf	(view_log@read_addr+1)^(0+128),w
  3287     0B52  1D03               	skipz
  3288     0B53  2B56               	goto	u3865
  3289     0B54  0872               	movf	?___wmul,w
  3290     0B55  0230               	subwf	view_log@read_addr^(0+128),w
  3291     0B56                     u3865:
  3292     0B56  1803               	skipnc
  3293     0B57  2B59               	goto	u3861
  3294     0B58  2B5A               	goto	u3860
  3295     0B59                     u3861:
  3296     0B59  2B60               	goto	l518
  3297     0B5A                     u3860:
  3298     0B5A                     l3781:
  3299                           
  3300                           ;menu_actions.c: 62:         read_addr += 10;
  3301     0B5A  300A               	movlw	10
  3302     0B5B  07B0               	addwf	view_log@read_addr^(0+128),f
  3303     0B5C  1803               	skipnc
  3304     0B5D  0AB1               	incf	(view_log@read_addr+1)^(0+128),f
  3305     0B5E  3000               	movlw	0
  3306     0B5F  07B1               	addwf	(view_log@read_addr+1)^(0+128),f
  3307     0B60                     l518:
  3308                           
  3309                           ;menu_actions.c: 64:     addr = read_addr;
  3310     0B60  1683               	bsf	3,5	;RP0=1, select bank1
  3311     0B61  1303               	bcf	3,6	;RP1=0, select bank1
  3312     0B62  0831               	movf	(view_log@read_addr+1)^(0+128),w
  3313     0B63  1283               	bcf	3,5	;RP0=0, select bank0
  3314     0B64  1303               	bcf	3,6	;RP1=0, select bank0
  3315     0B65  00B6               	movwf	view_log@addr+1
  3316     0B66  1683               	bsf	3,5	;RP0=1, select bank1
  3317     0B67  1303               	bcf	3,6	;RP1=0, select bank1
  3318     0B68  0830               	movf	view_log@read_addr^(0+128),w
  3319     0B69  1283               	bcf	3,5	;RP0=0, select bank0
  3320     0B6A  1303               	bcf	3,6	;RP1=0, select bank0
  3321     0B6B  00B5               	movwf	view_log@addr
  3322     0B6C                     l3783:
  3323                           
  3324                           ;menu_actions.c: 66:     line[0] = (read_addr / 10) + '0';
  3325     0B6C  300A               	movlw	10
  3326     0B6D  00F2               	movwf	___lwdiv@divisor
  3327     0B6E  3000               	movlw	0
  3328     0B6F  00F3               	movwf	___lwdiv@divisor+1
  3329     0B70  1683               	bsf	3,5	;RP0=1, select bank1
  3330     0B71  1303               	bcf	3,6	;RP1=0, select bank1
  3331     0B72  0831               	movf	(view_log@read_addr+1)^(0+128),w
  3332     0B73  00F5               	movwf	___lwdiv@dividend+1
  3333     0B74  0830               	movf	view_log@read_addr^(0+128),w
  3334     0B75  00F4               	movwf	___lwdiv@dividend
  3335     0B76  160A  118A  22D4  120A  158A  	fcall	___lwdiv
  3336     0B7B  0872               	movf	?___lwdiv,w
  3337     0B7C  3E30               	addlw	48
  3338     0B7D  1283               	bcf	3,5	;RP0=0, select bank0
  3339     0B7E  1303               	bcf	3,6	;RP1=0, select bank0
  3340     0B7F  00A3               	movwf	view_log@line
  3341     0B80                     l3785:
  3342                           
  3343                           ;menu_actions.c: 67:     line[1] = ' ';
  3344     0B80  3020               	movlw	32
  3345     0B81  00A4               	movwf	view_log@line+1
  3346     0B82                     l3787:
  3347                           
  3348                           ;menu_actions.c: 69:     line[2] = read_external_eeprom(addr++);
  3349     0B82  0835               	movf	view_log@addr,w
  3350     0B83  160A  158A  2710  120A  158A  	fcall	_read_external_eeprom
  3351     0B88  1283               	bcf	3,5	;RP0=0, select bank0
  3352     0B89  1303               	bcf	3,6	;RP1=0, select bank0
  3353     0B8A  00A5               	movwf	view_log@line+2
  3354     0B8B  3001               	movlw	1
  3355     0B8C  07B5               	addwf	view_log@addr,f
  3356     0B8D  1803               	skipnc
  3357     0B8E  0AB6               	incf	view_log@addr+1,f
  3358     0B8F  3000               	movlw	0
  3359     0B90  07B6               	addwf	view_log@addr+1,f
  3360     0B91                     l3789:
  3361                           
  3362                           ;menu_actions.c: 70:     line[3] = read_external_eeprom(addr++);
  3363     0B91  0835               	movf	view_log@addr,w
  3364     0B92  160A  158A  2710  120A  158A  	fcall	_read_external_eeprom
  3365     0B97  1283               	bcf	3,5	;RP0=0, select bank0
  3366     0B98  1303               	bcf	3,6	;RP1=0, select bank0
  3367     0B99  00A6               	movwf	view_log@line+3
  3368     0B9A                     l3791:
  3369     0B9A  3001               	movlw	1
  3370     0B9B  07B5               	addwf	view_log@addr,f
  3371     0B9C  1803               	skipnc
  3372     0B9D  0AB6               	incf	view_log@addr+1,f
  3373     0B9E  3000               	movlw	0
  3374     0B9F  07B6               	addwf	view_log@addr+1,f
  3375     0BA0                     l3793:
  3376                           
  3377                           ;menu_actions.c: 71:     line[4] = ':';
  3378     0BA0  303A               	movlw	58
  3379     0BA1  00A7               	movwf	view_log@line+4
  3380                           
  3381                           ;menu_actions.c: 72:     line[5] = read_external_eeprom(addr++);
  3382     0BA2  0835               	movf	view_log@addr,w
  3383     0BA3  160A  158A  2710  120A  158A  	fcall	_read_external_eeprom
  3384     0BA8  1283               	bcf	3,5	;RP0=0, select bank0
  3385     0BA9  1303               	bcf	3,6	;RP1=0, select bank0
  3386     0BAA  00A8               	movwf	view_log@line+5
  3387     0BAB                     l3795:
  3388     0BAB  3001               	movlw	1
  3389     0BAC  07B5               	addwf	view_log@addr,f
  3390     0BAD  1803               	skipnc
  3391     0BAE  0AB6               	incf	view_log@addr+1,f
  3392     0BAF  3000               	movlw	0
  3393     0BB0  07B6               	addwf	view_log@addr+1,f
  3394     0BB1                     l3797:
  3395                           
  3396                           ;menu_actions.c: 73:     line[6] = read_external_eeprom(addr++);
  3397     0BB1  0835               	movf	view_log@addr,w
  3398     0BB2  160A  158A  2710  120A  158A  	fcall	_read_external_eeprom
  3399     0BB7  1283               	bcf	3,5	;RP0=0, select bank0
  3400     0BB8  1303               	bcf	3,6	;RP1=0, select bank0
  3401     0BB9  00A9               	movwf	view_log@line+6
  3402     0BBA  3001               	movlw	1
  3403     0BBB  07B5               	addwf	view_log@addr,f
  3404     0BBC  1803               	skipnc
  3405     0BBD  0AB6               	incf	view_log@addr+1,f
  3406     0BBE  3000               	movlw	0
  3407     0BBF  07B6               	addwf	view_log@addr+1,f
  3408     0BC0                     l3799:
  3409                           
  3410                           ;menu_actions.c: 74:     line[7] = ':';
  3411     0BC0  303A               	movlw	58
  3412     0BC1  00AA               	movwf	view_log@line+7
  3413     0BC2                     l3801:
  3414                           
  3415                           ;menu_actions.c: 75:     line[8] = read_external_eeprom(addr++);
  3416     0BC2  0835               	movf	view_log@addr,w
  3417     0BC3  160A  158A  2710  120A  158A  	fcall	_read_external_eeprom
  3418     0BC8  1283               	bcf	3,5	;RP0=0, select bank0
  3419     0BC9  1303               	bcf	3,6	;RP1=0, select bank0
  3420     0BCA  00AB               	movwf	view_log@line+8
  3421     0BCB                     l3803:
  3422     0BCB  3001               	movlw	1
  3423     0BCC  07B5               	addwf	view_log@addr,f
  3424     0BCD  1803               	skipnc
  3425     0BCE  0AB6               	incf	view_log@addr+1,f
  3426     0BCF  3000               	movlw	0
  3427     0BD0  07B6               	addwf	view_log@addr+1,f
  3428                           
  3429                           ;menu_actions.c: 76:     line[9] = read_external_eeprom(addr++);
  3430     0BD1  0835               	movf	view_log@addr,w
  3431     0BD2  160A  158A  2710  120A  158A  	fcall	_read_external_eeprom
  3432     0BD7  1283               	bcf	3,5	;RP0=0, select bank0
  3433     0BD8  1303               	bcf	3,6	;RP1=0, select bank0
  3434     0BD9  00AC               	movwf	view_log@line+9
  3435     0BDA                     l3805:
  3436     0BDA  3001               	movlw	1
  3437     0BDB  07B5               	addwf	view_log@addr,f
  3438     0BDC  1803               	skipnc
  3439     0BDD  0AB6               	incf	view_log@addr+1,f
  3440     0BDE  3000               	movlw	0
  3441     0BDF  07B6               	addwf	view_log@addr+1,f
  3442     0BE0                     l3807:
  3443                           
  3444                           ;menu_actions.c: 78:     line[10] = ' ';
  3445     0BE0  3020               	movlw	32
  3446     0BE1  00AD               	movwf	view_log@line+10
  3447     0BE2                     l3809:
  3448                           
  3449                           ;menu_actions.c: 79:     line[11] = read_external_eeprom(addr++);
  3450     0BE2  0835               	movf	view_log@addr,w
  3451     0BE3  160A  158A  2710  120A  158A  	fcall	_read_external_eeprom
  3452     0BE8  1283               	bcf	3,5	;RP0=0, select bank0
  3453     0BE9  1303               	bcf	3,6	;RP1=0, select bank0
  3454     0BEA  00AE               	movwf	view_log@line+11
  3455     0BEB  3001               	movlw	1
  3456     0BEC  07B5               	addwf	view_log@addr,f
  3457     0BED  1803               	skipnc
  3458     0BEE  0AB6               	incf	view_log@addr+1,f
  3459     0BEF  3000               	movlw	0
  3460     0BF0  07B6               	addwf	view_log@addr+1,f
  3461     0BF1                     l3811:
  3462                           
  3463                           ;menu_actions.c: 80:     line[12] = read_external_eeprom(addr++);
  3464     0BF1  0835               	movf	view_log@addr,w
  3465     0BF2  160A  158A  2710  120A  158A  	fcall	_read_external_eeprom
  3466     0BF7  1283               	bcf	3,5	;RP0=0, select bank0
  3467     0BF8  1303               	bcf	3,6	;RP1=0, select bank0
  3468     0BF9  00AF               	movwf	view_log@line+12
  3469     0BFA                     l3813:
  3470     0BFA  3001               	movlw	1
  3471     0BFB  07B5               	addwf	view_log@addr,f
  3472     0BFC  1803               	skipnc
  3473     0BFD  0AB6               	incf	view_log@addr+1,f
  3474     0BFE  3000               	movlw	0
  3475     0BFF  07B6               	addwf	view_log@addr+1,f
  3476     0C00                     l3815:
  3477                           
  3478                           ;menu_actions.c: 82:     line[13] = ' ';
  3479     0C00  3020               	movlw	32
  3480     0C01  00B0               	movwf	view_log@line+13
  3481                           
  3482                           ;menu_actions.c: 83:     line[14] = read_external_eeprom(addr++);
  3483     0C02  0835               	movf	view_log@addr,w
  3484     0C03  160A  158A  2710  120A  158A  	fcall	_read_external_eeprom
  3485     0C08  1283               	bcf	3,5	;RP0=0, select bank0
  3486     0C09  1303               	bcf	3,6	;RP1=0, select bank0
  3487     0C0A  00B1               	movwf	view_log@line+14
  3488     0C0B                     l3817:
  3489     0C0B  3001               	movlw	1
  3490     0C0C  07B5               	addwf	view_log@addr,f
  3491     0C0D  1803               	skipnc
  3492     0C0E  0AB6               	incf	view_log@addr+1,f
  3493     0C0F  3000               	movlw	0
  3494     0C10  07B6               	addwf	view_log@addr+1,f
  3495     0C11                     l3819:
  3496                           
  3497                           ;menu_actions.c: 84:     line[15] = read_external_eeprom(addr++);
  3498     0C11  0835               	movf	view_log@addr,w
  3499     0C12  160A  158A  2710  120A  158A  	fcall	_read_external_eeprom
  3500     0C17  1283               	bcf	3,5	;RP0=0, select bank0
  3501     0C18  1303               	bcf	3,6	;RP1=0, select bank0
  3502     0C19  00B2               	movwf	view_log@line+15
  3503     0C1A  3001               	movlw	1
  3504     0C1B  07B5               	addwf	view_log@addr,f
  3505     0C1C  1803               	skipnc
  3506     0C1D  0AB6               	incf	view_log@addr+1,f
  3507     0C1E  3000               	movlw	0
  3508     0C1F  07B6               	addwf	view_log@addr+1,f
  3509     0C20                     l3821:
  3510                           
  3511                           ;menu_actions.c: 86:     line[16] = '\0';
  3512     0C20  01B3               	clrf	view_log@line+16
  3513     0C21                     l3823:
  3514                           
  3515                           ;menu_actions.c: 88:     clcd_print(line, (0xC0 + 0));
  3516     0C21  3023               	movlw	(low (view_log@line| 0))& (0+255)
  3517     0C22  00A0               	movwf	clcd_print@str
  3518     0C23  3000               	movlw	0
  3519     0C24  00A1               	movwf	clcd_print@str+1
  3520     0C25  30C0               	movlw	192
  3521     0C26  00A2               	movwf	clcd_print@addr
  3522     0C27  160A  158A  279A  120A  158A  	fcall	_clcd_print
  3523     0C2C                     l514:
  3524     0C2C  0008               	return
  3525     0C2D                     __end_of_view_log:
  3526                           
  3527                           	psect	text2
  3528     0066                     __ptext2:	
  3529 ;; *************** function _set_time *****************
  3530 ;; Defined at:
  3531 ;;		line 292 in file "menu_actions.c"
  3532 ;; Parameters:    Size  Location     Type
  3533 ;;  key             1    wreg     unsigned char 
  3534 ;; Auto vars:     Size  Location     Type
  3535 ;;  key             1   16[BANK0 ] unsigned char 
  3536 ;;  pos             1   14[BANK0 ] unsigned char 
  3537 ;; Return value:  Size  Location     Type
  3538 ;;                  1    wreg      void 
  3539 ;; Registers used:
  3540 ;;		wreg, fsr0l, fsr0h, status,2, status,0, pclath, btemp1, cstack
  3541 ;; Tracked objects:
  3542 ;;		On entry : 0/0
  3543 ;;		On exit  : 0/0
  3544 ;;		Unchanged: 0/0
  3545 ;; Data sizes:     COMMON   BANK0   BANK1   BANK3   BANK2
  3546 ;;      Params:         0       0       0       0       0
  3547 ;;      Locals:         0       9       0       0       0
  3548 ;;      Temps:          0       4       0       0       0
  3549 ;;      Totals:         0      13       0       0       0
  3550 ;;Total ram usage:       13 bytes
  3551 ;; Hardware stack levels used: 1
  3552 ;; Hardware stack levels required when called: 2
  3553 ;; This function calls:
  3554 ;;		___lwdiv
  3555 ;;		___lwmod
  3556 ;;		___wmul
  3557 ;;		_clcd_print
  3558 ;;		_clcd_putch
  3559 ;;		_get_time
  3560 ;;		_write_ds1307
  3561 ;; This function is called by:
  3562 ;;		_main
  3563 ;; This function uses a non-reentrant model
  3564 ;;
  3565                           
  3566     0066                     _set_time:	
  3567                           ;psect for function _set_time
  3568                           
  3569                           
  3570                           ;incstack = 0
  3571                           ; Regs used in _set_time: [wreg-fsr0h+status,2+status,0+pclath+btemp1+cstack]
  3572                           ;set_time@key stored from wreg
  3573     0066  1283               	bcf	3,5	;RP0=0, select bank0
  3574     0067  1303               	bcf	3,6	;RP1=0, select bank0
  3575     0068  00B0               	movwf	set_time@key
  3576     0069                     l3925:
  3577                           
  3578                           ;menu_actions.c: 292: void set_time(unsigned char key);menu_actions.c: 293: {;menu_actio
      +                          ns.c: 294:     static unsigned char time[3];;menu_actions.c: 295:     static unsigned in
      +                          t hr, min, sec;;menu_actions.c: 296:     static unsigned int rtc_sec;;menu_actions.c: 29
      +                          7:     static int once = 1;;menu_actions.c: 298:     static time_field_t field = SET_HR;
      +                          ;menu_actions.c: 299:     static unsigned int prev_sec = 0;;menu_actions.c: 300:     sta
      +                          tic unsigned char prev_key = 0x3F;;menu_actions.c: 302:     if (once)
  3579     0069  1683               	bsf	3,5	;RP0=1, select bank1
  3580     006A  1303               	bcf	3,6	;RP1=0, select bank1
  3581     006B  085A               	movf	set_time@once^(0+128),w
  3582     006C  045B               	iorwf	(set_time@once+1)^(0+128),w
  3583     006D  1903               	btfsc	3,2
  3584     006E  2870               	goto	u3921
  3585     006F  2871               	goto	u3920
  3586     0070                     u3921:
  3587     0070  2906               	goto	l3937
  3588     0071                     u3920:
  3589     0071                     l3927:
  3590                           
  3591                           ;menu_actions.c: 303:     {;menu_actions.c: 304:         get_time(time);
  3592     0071  30D1               	movlw	(low (set_time@time| 0))& (0+255)
  3593     0072  00F6               	movwf	get_time@clock_reg
  3594     0073  160A  158A  25ED  120A  118A  	fcall	_get_time
  3595     0078                     l3929:
  3596                           
  3597                           ;menu_actions.c: 306:         sec = ((time[2] & 0x70) >> 4) * 10 + (time[2] & 0x0F);
  3598     0078  300F               	movlw	15
  3599     0079  1683               	bsf	3,5	;RP0=1, select bank1
  3600     007A  1303               	bcf	3,6	;RP1=0, select bank1
  3601     007B  0553               	andwf	(set_time@time^(0+128)+2),w
  3602     007C  1283               	bcf	3,5	;RP0=0, select bank0
  3603     007D  1303               	bcf	3,6	;RP1=0, select bank0
  3604     007E  00A4               	movwf	??_set_time
  3605     007F  1683               	bsf	3,5	;RP0=1, select bank1
  3606     0080  1303               	bcf	3,6	;RP1=0, select bank1
  3607     0081  0853               	movf	(set_time@time^(0+128)+2),w
  3608     0082  1283               	bcf	3,5	;RP0=0, select bank0
  3609     0083  1303               	bcf	3,6	;RP1=0, select bank0
  3610     0084  00A5               	movwf	??_set_time+1
  3611     0085  3004               	movlw	4
  3612     0086                     u3935:
  3613     0086  1003               	clrc
  3614     0087  0CA5               	rrf	??_set_time+1,f
  3615     0088  3EFF               	addlw	-1
  3616     0089  1D03               	skipz
  3617     008A  2886               	goto	u3935
  3618     008B  0825               	movf	??_set_time+1,w
  3619     008C  3907               	andlw	7
  3620     008D  00A6               	movwf	??_set_time+2
  3621     008E  01A7               	clrf	??_set_time+3
  3622     008F  0826               	movf	??_set_time+2,w
  3623     0090  00F2               	movwf	___wmul@multiplier
  3624     0091  0827               	movf	??_set_time+3,w
  3625     0092  00F3               	movwf	___wmul@multiplier+1
  3626     0093  300A               	movlw	10
  3627     0094  00F4               	movwf	___wmul@multiplicand
  3628     0095  3000               	movlw	0
  3629     0096  00F5               	movwf	___wmul@multiplicand+1
  3630     0097  160A  158A  2672  120A  118A  	fcall	___wmul
  3631     009C  1283               	bcf	3,5	;RP0=0, select bank0
  3632     009D  1303               	bcf	3,6	;RP1=0, select bank0
  3633     009E  0824               	movf	??_set_time,w
  3634     009F  0772               	addwf	?___wmul,w
  3635     00A0  00F8               	movwf	set_time@sec
  3636     00A1  3000               	movlw	0
  3637     00A2  1803               	skipnc
  3638     00A3  3001               	movlw	1
  3639     00A4  0773               	addwf	?___wmul+1,w
  3640     00A5  00F9               	movwf	set_time@sec+1
  3641     00A6                     l3931:
  3642                           
  3643                           ;menu_actions.c: 307:         min = ((time[1] & 0x70) >> 4) * 10 + (time[1] & 0x0F);
  3644     00A6  300F               	movlw	15
  3645     00A7  1683               	bsf	3,5	;RP0=1, select bank1
  3646     00A8  1303               	bcf	3,6	;RP1=0, select bank1
  3647     00A9  0552               	andwf	(set_time@time^(0+128)+1),w
  3648     00AA  1283               	bcf	3,5	;RP0=0, select bank0
  3649     00AB  1303               	bcf	3,6	;RP1=0, select bank0
  3650     00AC  00A4               	movwf	??_set_time
  3651     00AD  1683               	bsf	3,5	;RP0=1, select bank1
  3652     00AE  1303               	bcf	3,6	;RP1=0, select bank1
  3653     00AF  0852               	movf	(set_time@time^(0+128)+1),w
  3654     00B0  1283               	bcf	3,5	;RP0=0, select bank0
  3655     00B1  1303               	bcf	3,6	;RP1=0, select bank0
  3656     00B2  00A5               	movwf	??_set_time+1
  3657     00B3  3004               	movlw	4
  3658     00B4                     u3945:
  3659     00B4  1003               	clrc
  3660     00B5  0CA5               	rrf	??_set_time+1,f
  3661     00B6  3EFF               	addlw	-1
  3662     00B7  1D03               	skipz
  3663     00B8  28B4               	goto	u3945
  3664     00B9  0825               	movf	??_set_time+1,w
  3665     00BA  3907               	andlw	7
  3666     00BB  00A6               	movwf	??_set_time+2
  3667     00BC  01A7               	clrf	??_set_time+3
  3668     00BD  0826               	movf	??_set_time+2,w
  3669     00BE  00F2               	movwf	___wmul@multiplier
  3670     00BF  0827               	movf	??_set_time+3,w
  3671     00C0  00F3               	movwf	___wmul@multiplier+1
  3672     00C1  300A               	movlw	10
  3673     00C2  00F4               	movwf	___wmul@multiplicand
  3674     00C3  3000               	movlw	0
  3675     00C4  00F5               	movwf	___wmul@multiplicand+1
  3676     00C5  160A  158A  2672  120A  118A  	fcall	___wmul
  3677     00CA  1283               	bcf	3,5	;RP0=0, select bank0
  3678     00CB  1303               	bcf	3,6	;RP1=0, select bank0
  3679     00CC  0824               	movf	??_set_time,w
  3680     00CD  0772               	addwf	?___wmul,w
  3681     00CE  00FA               	movwf	set_time@min
  3682     00CF  3000               	movlw	0
  3683     00D0  1803               	skipnc
  3684     00D1  3001               	movlw	1
  3685     00D2  0773               	addwf	?___wmul+1,w
  3686     00D3  00FB               	movwf	set_time@min+1
  3687     00D4                     l3933:
  3688                           
  3689                           ;menu_actions.c: 308:         hr = ((time[0] & 0x30) >> 4) * 10 + (time[0] & 0x0F);
  3690     00D4  300F               	movlw	15
  3691     00D5  1683               	bsf	3,5	;RP0=1, select bank1
  3692     00D6  1303               	bcf	3,6	;RP1=0, select bank1
  3693     00D7  0551               	andwf	set_time@time^(0+128),w
  3694     00D8  1283               	bcf	3,5	;RP0=0, select bank0
  3695     00D9  1303               	bcf	3,6	;RP1=0, select bank0
  3696     00DA  00A4               	movwf	??_set_time
  3697     00DB  1683               	bsf	3,5	;RP0=1, select bank1
  3698     00DC  1303               	bcf	3,6	;RP1=0, select bank1
  3699     00DD  0851               	movf	set_time@time^(0+128),w
  3700     00DE  1283               	bcf	3,5	;RP0=0, select bank0
  3701     00DF  1303               	bcf	3,6	;RP1=0, select bank0
  3702     00E0  00A5               	movwf	??_set_time+1
  3703     00E1  3004               	movlw	4
  3704     00E2                     u3955:
  3705     00E2  1003               	clrc
  3706     00E3  0CA5               	rrf	??_set_time+1,f
  3707     00E4  3EFF               	addlw	-1
  3708     00E5  1D03               	skipz
  3709     00E6  28E2               	goto	u3955
  3710     00E7  0825               	movf	??_set_time+1,w
  3711     00E8  3903               	andlw	3
  3712     00E9  00A6               	movwf	??_set_time+2
  3713     00EA  01A7               	clrf	??_set_time+3
  3714     00EB  0826               	movf	??_set_time+2,w
  3715     00EC  00F2               	movwf	___wmul@multiplier
  3716     00ED  0827               	movf	??_set_time+3,w
  3717     00EE  00F3               	movwf	___wmul@multiplier+1
  3718     00EF  300A               	movlw	10
  3719     00F0  00F4               	movwf	___wmul@multiplicand
  3720     00F1  3000               	movlw	0
  3721     00F2  00F5               	movwf	___wmul@multiplicand+1
  3722     00F3  160A  158A  2672  120A  118A  	fcall	___wmul
  3723     00F8  1283               	bcf	3,5	;RP0=0, select bank0
  3724     00F9  1303               	bcf	3,6	;RP1=0, select bank0
  3725     00FA  0824               	movf	??_set_time,w
  3726     00FB  0772               	addwf	?___wmul,w
  3727     00FC  00DB               	movwf	set_time@hr
  3728     00FD  3000               	movlw	0
  3729     00FE  1803               	skipnc
  3730     00FF  3001               	movlw	1
  3731     0100  0773               	addwf	?___wmul+1,w
  3732     0101  00DC               	movwf	set_time@hr+1
  3733     0102                     l3935:
  3734                           
  3735                           ;menu_actions.c: 310:         once = 0;
  3736     0102  1683               	bsf	3,5	;RP0=1, select bank1
  3737     0103  1303               	bcf	3,6	;RP1=0, select bank1
  3738     0104  01DA               	clrf	set_time@once^(0+128)
  3739     0105  01DB               	clrf	(set_time@once+1)^(0+128)
  3740     0106                     l3937:
  3741                           
  3742                           ;menu_actions.c: 313:     get_time(time);
  3743     0106  30D1               	movlw	(low (set_time@time| 0))& (0+255)
  3744     0107  00F6               	movwf	get_time@clock_reg
  3745     0108  160A  158A  25ED  120A  118A  	fcall	_get_time
  3746     010D                     l3939:
  3747                           
  3748                           ;menu_actions.c: 314:     rtc_sec = ((time[2] & 0x70) >> 4) * 10 + (time[2] & 0x0F);
  3749     010D  300F               	movlw	15
  3750     010E  1683               	bsf	3,5	;RP0=1, select bank1
  3751     010F  1303               	bcf	3,6	;RP1=0, select bank1
  3752     0110  0553               	andwf	(set_time@time^(0+128)+2),w
  3753     0111  1283               	bcf	3,5	;RP0=0, select bank0
  3754     0112  1303               	bcf	3,6	;RP1=0, select bank0
  3755     0113  00A4               	movwf	??_set_time
  3756     0114  1683               	bsf	3,5	;RP0=1, select bank1
  3757     0115  1303               	bcf	3,6	;RP1=0, select bank1
  3758     0116  0853               	movf	(set_time@time^(0+128)+2),w
  3759     0117  1283               	bcf	3,5	;RP0=0, select bank0
  3760     0118  1303               	bcf	3,6	;RP1=0, select bank0
  3761     0119  00A5               	movwf	??_set_time+1
  3762     011A  3004               	movlw	4
  3763     011B                     u3965:
  3764     011B  1003               	clrc
  3765     011C  0CA5               	rrf	??_set_time+1,f
  3766     011D  3EFF               	addlw	-1
  3767     011E  1D03               	skipz
  3768     011F  291B               	goto	u3965
  3769     0120  0825               	movf	??_set_time+1,w
  3770     0121  3907               	andlw	7
  3771     0122  00A6               	movwf	??_set_time+2
  3772     0123  01A7               	clrf	??_set_time+3
  3773     0124  0826               	movf	??_set_time+2,w
  3774     0125  00F2               	movwf	___wmul@multiplier
  3775     0126  0827               	movf	??_set_time+3,w
  3776     0127  00F3               	movwf	___wmul@multiplier+1
  3777     0128  300A               	movlw	10
  3778     0129  00F4               	movwf	___wmul@multiplicand
  3779     012A  3000               	movlw	0
  3780     012B  00F5               	movwf	___wmul@multiplicand+1
  3781     012C  160A  158A  2672  120A  118A  	fcall	___wmul
  3782     0131  1283               	bcf	3,5	;RP0=0, select bank0
  3783     0132  1303               	bcf	3,6	;RP1=0, select bank0
  3784     0133  0824               	movf	??_set_time,w
  3785     0134  0772               	addwf	?___wmul,w
  3786     0135  1683               	bsf	3,5	;RP0=1, select bank1
  3787     0136  1303               	bcf	3,6	;RP1=0, select bank1
  3788     0137  00A2               	movwf	set_time@rtc_sec^(0+128)
  3789     0138  3000               	movlw	0
  3790     0139  1803               	skipnc
  3791     013A  3001               	movlw	1
  3792     013B  0773               	addwf	?___wmul+1,w
  3793     013C  00A3               	movwf	(set_time@rtc_sec+1)^(0+128)
  3794     013D                     l3941:
  3795                           
  3796                           ;menu_actions.c: 316:     if (key == 0x3F)
  3797     013D  303F               	movlw	63
  3798     013E  1283               	bcf	3,5	;RP0=0, select bank0
  3799     013F  1303               	bcf	3,6	;RP1=0, select bank0
  3800     0140  0630               	xorwf	set_time@key,w
  3801     0141  1D03               	btfss	3,2
  3802     0142  2944               	goto	u3971
  3803     0143  2945               	goto	u3970
  3804     0144                     u3971:
  3805     0144  2949               	goto	l3945
  3806     0145                     u3970:
  3807     0145                     l3943:
  3808                           
  3809                           ;menu_actions.c: 317:         prev_key = 0x3F;
  3810     0145  303F               	movlw	63
  3811     0146  1683               	bsf	3,5	;RP0=1, select bank1
  3812     0147  1303               	bcf	3,6	;RP1=0, select bank1
  3813     0148  00E4               	movwf	set_time@prev_key^(0+128)
  3814     0149                     l3945:
  3815                           
  3816                           ;menu_actions.c: 319:     if (key == 0x3D && key != prev_key)
  3817     0149  303D               	movlw	61
  3818     014A  1283               	bcf	3,5	;RP0=0, select bank0
  3819     014B  0630               	xorwf	set_time@key,w
  3820     014C  1D03               	btfss	3,2
  3821     014D  294F               	goto	u3981
  3822     014E  2950               	goto	u3980
  3823     014F                     u3981:
  3824     014F  2973               	goto	l3959
  3825     0150                     u3980:
  3826     0150                     l3947:
  3827     0150  0830               	movf	set_time@key,w
  3828     0151  1683               	bsf	3,5	;RP0=1, select bank1
  3829     0152  1303               	bcf	3,6	;RP1=0, select bank1
  3830     0153  0664               	xorwf	set_time@prev_key^(0+128),w
  3831     0154  1903               	skipnz
  3832     0155  2957               	goto	u3991
  3833     0156  2958               	goto	u3990
  3834     0157                     u3991:
  3835     0157  2973               	goto	l3959
  3836     0158                     u3990:
  3837     0158                     l3949:
  3838                           
  3839                           ;menu_actions.c: 320:     {;menu_actions.c: 321:         prev_key = key;
  3840     0158  1283               	bcf	3,5	;RP0=0, select bank0
  3841     0159  1303               	bcf	3,6	;RP1=0, select bank0
  3842     015A  0830               	movf	set_time@key,w
  3843     015B  1683               	bsf	3,5	;RP0=1, select bank1
  3844     015C  1303               	bcf	3,6	;RP1=0, select bank1
  3845     015D  00E4               	movwf	set_time@prev_key^(0+128)
  3846     015E                     l3951:
  3847                           
  3848                           ;menu_actions.c: 322:         field = (field == SET_HR) ? SET_MIN :
  3849     015E  1283               	bcf	3,5	;RP0=0, select bank0
  3850     015F  1303               	bcf	3,6	;RP1=0, select bank0
  3851     0160  0869               	movf	set_time@field,w
  3852     0161  1903               	btfsc	3,2
  3853     0162  2964               	goto	u4001
  3854     0163  2965               	goto	u4000
  3855     0164                     u4001:
  3856     0164  2971               	goto	l632
  3857     0165                     u4000:
  3858     0165                     l3953:
  3859     0165  0369               	decf	set_time@field,w
  3860     0166  1903               	btfsc	3,2
  3861     0167  2969               	goto	u4011
  3862     0168  296A               	goto	u4010
  3863     0169                     u4011:
  3864     0169  296C               	goto	l636
  3865     016A                     u4010:
  3866     016A                     l3955:
  3867     016A  01AF               	clrf	_set_time$433
  3868     016B  296E               	goto	l3957
  3869     016C                     l636:
  3870     016C  3002               	movlw	2
  3871     016D  00AF               	movwf	_set_time$433
  3872     016E                     l3957:
  3873     016E  082F               	movf	_set_time$433,w
  3874     016F  00E9               	movwf	set_time@field
  3875     0170  2973               	goto	l3959
  3876     0171                     l632:
  3877     0171  3001               	movlw	1
  3878     0172  00E9               	movwf	set_time@field
  3879     0173                     l3959:
  3880                           
  3881                           ;menu_actions.c: 326:     if (key == 0x3E && key != prev_key)
  3882     0173  303E               	movlw	62
  3883     0174  1283               	bcf	3,5	;RP0=0, select bank0
  3884     0175  0630               	xorwf	set_time@key,w
  3885     0176  1D03               	btfss	3,2
  3886     0177  2979               	goto	u4021
  3887     0178  297A               	goto	u4020
  3888     0179                     u4021:
  3889     0179  29D7               	goto	l3975
  3890     017A                     u4020:
  3891     017A                     l3961:
  3892     017A  0830               	movf	set_time@key,w
  3893     017B  1683               	bsf	3,5	;RP0=1, select bank1
  3894     017C  1303               	bcf	3,6	;RP1=0, select bank1
  3895     017D  0664               	xorwf	set_time@prev_key^(0+128),w
  3896     017E  1903               	skipnz
  3897     017F  2981               	goto	u4031
  3898     0180  2982               	goto	u4030
  3899     0181                     u4031:
  3900     0181  29D7               	goto	l3975
  3901     0182                     u4030:
  3902     0182                     l3963:
  3903                           
  3904                           ;menu_actions.c: 327:     {;menu_actions.c: 328:         prev_key = key;
  3905     0182  1283               	bcf	3,5	;RP0=0, select bank0
  3906     0183  1303               	bcf	3,6	;RP1=0, select bank0
  3907     0184  0830               	movf	set_time@key,w
  3908     0185  1683               	bsf	3,5	;RP0=1, select bank1
  3909     0186  1303               	bcf	3,6	;RP1=0, select bank1
  3910     0187  00E4               	movwf	set_time@prev_key^(0+128)
  3911     0188                     l3965:
  3912                           
  3913                           ;menu_actions.c: 329:         if (field == SET_HR) hr = (hr + 1) % 24;
  3914     0188  1283               	bcf	3,5	;RP0=0, select bank0
  3915     0189  1303               	bcf	3,6	;RP1=0, select bank0
  3916     018A  0869               	movf	set_time@field,w
  3917     018B  1D03               	btfss	3,2
  3918     018C  298E               	goto	u4041
  3919     018D  298F               	goto	u4040
  3920     018E                     u4041:
  3921     018E  29A7               	goto	l3969
  3922     018F                     u4040:
  3923     018F                     l3967:
  3924     018F  3018               	movlw	24
  3925     0190  00F2               	movwf	___lwmod@divisor
  3926     0191  3000               	movlw	0
  3927     0192  00F3               	movwf	___lwmod@divisor+1
  3928     0193  085B               	movf	set_time@hr,w
  3929     0194  3E01               	addlw	1
  3930     0195  00F4               	movwf	___lwmod@dividend
  3931     0196  085C               	movf	set_time@hr+1,w
  3932     0197  1803               	skipnc
  3933     0198  3E01               	addlw	1
  3934     0199  3E00               	addlw	0
  3935     019A  00F5               	movwf	___lwmod@dividend+1
  3936     019B  160A  118A  2221  120A  118A  	fcall	___lwmod
  3937     01A0  0873               	movf	?___lwmod+1,w
  3938     01A1  1283               	bcf	3,5	;RP0=0, select bank0
  3939     01A2  1303               	bcf	3,6	;RP1=0, select bank0
  3940     01A3  00DC               	movwf	set_time@hr+1
  3941     01A4  0872               	movf	?___lwmod,w
  3942     01A5  00DB               	movwf	set_time@hr
  3943     01A6  29D7               	goto	l3975
  3944     01A7                     l3969:
  3945     01A7  0369               	decf	set_time@field,w
  3946     01A8  1D03               	btfss	3,2
  3947     01A9  29AB               	goto	u4051
  3948     01AA  29AC               	goto	u4050
  3949     01AB                     u4051:
  3950     01AB  29C2               	goto	l3973
  3951     01AC                     u4050:
  3952     01AC                     l3971:
  3953     01AC  303C               	movlw	60
  3954     01AD  00F2               	movwf	___lwmod@divisor
  3955     01AE  3000               	movlw	0
  3956     01AF  00F3               	movwf	___lwmod@divisor+1
  3957     01B0  087A               	movf	set_time@min,w
  3958     01B1  3E01               	addlw	1
  3959     01B2  00F4               	movwf	___lwmod@dividend
  3960     01B3  087B               	movf	set_time@min+1,w
  3961     01B4  1803               	skipnc
  3962     01B5  3E01               	addlw	1
  3963     01B6  3E00               	addlw	0
  3964     01B7  00F5               	movwf	___lwmod@dividend+1
  3965     01B8  160A  118A  2221  120A  118A  	fcall	___lwmod
  3966     01BD  0873               	movf	?___lwmod+1,w
  3967     01BE  00FB               	movwf	set_time@min+1
  3968     01BF  0872               	movf	?___lwmod,w
  3969     01C0  00FA               	movwf	set_time@min
  3970     01C1  29D7               	goto	l3975
  3971     01C2                     l3973:
  3972     01C2  303C               	movlw	60
  3973     01C3  00F2               	movwf	___lwmod@divisor
  3974     01C4  3000               	movlw	0
  3975     01C5  00F3               	movwf	___lwmod@divisor+1
  3976     01C6  0878               	movf	set_time@sec,w
  3977     01C7  3E01               	addlw	1
  3978     01C8  00F4               	movwf	___lwmod@dividend
  3979     01C9  0879               	movf	set_time@sec+1,w
  3980     01CA  1803               	skipnc
  3981     01CB  3E01               	addlw	1
  3982     01CC  3E00               	addlw	0
  3983     01CD  00F5               	movwf	___lwmod@dividend+1
  3984     01CE  160A  118A  2221  120A  118A  	fcall	___lwmod
  3985     01D3  0873               	movf	?___lwmod+1,w
  3986     01D4  00F9               	movwf	set_time@sec+1
  3987     01D5  0872               	movf	?___lwmod,w
  3988     01D6  00F8               	movwf	set_time@sec
  3989     01D7                     l3975:
  3990                           
  3991                           ;menu_actions.c: 334:     clcd_print(" SET TIME       ", (0x80 + 0));
  3992     01D7  3049               	movlw	low (STR_38| (0+32768))
  3993     01D8  1283               	bcf	3,5	;RP0=0, select bank0
  3994     01D9  1303               	bcf	3,6	;RP1=0, select bank0
  3995     01DA  00A0               	movwf	clcd_print@str
  3996     01DB  3090               	movlw	high (STR_38| (0+32768))
  3997     01DC  00A1               	movwf	clcd_print@str+1
  3998     01DD  3080               	movlw	128
  3999     01DE  00A2               	movwf	clcd_print@addr
  4000     01DF  160A  158A  279A  120A  118A  	fcall	_clcd_print
  4001     01E4                     l3977:
  4002                           
  4003                           ;menu_actions.c: 336:     clcd_putch((hr / 10) + '0', (0xC0 + 3));
  4004     01E4  30C3               	movlw	195
  4005     01E5  00F7               	movwf	clcd_putch@addr
  4006     01E6  300A               	movlw	10
  4007     01E7  00F2               	movwf	___lwdiv@divisor
  4008     01E8  3000               	movlw	0
  4009     01E9  00F3               	movwf	___lwdiv@divisor+1
  4010     01EA  1283               	bcf	3,5	;RP0=0, select bank0
  4011     01EB  1303               	bcf	3,6	;RP1=0, select bank0
  4012     01EC  085C               	movf	set_time@hr+1,w
  4013     01ED  00F5               	movwf	___lwdiv@dividend+1
  4014     01EE  085B               	movf	set_time@hr,w
  4015     01EF  00F4               	movwf	___lwdiv@dividend
  4016     01F0  160A  118A  22D4  120A  118A  	fcall	___lwdiv
  4017     01F5  0872               	movf	?___lwdiv,w
  4018     01F6  3E30               	addlw	48
  4019     01F7  160A  118A  21A2  120A  118A  	fcall	_clcd_putch
  4020     01FC                     l3979:
  4021                           
  4022                           ;menu_actions.c: 337:     clcd_putch((hr % 10) + '0', (0xC0 + 4));
  4023     01FC  30C4               	movlw	196
  4024     01FD  00F7               	movwf	clcd_putch@addr
  4025     01FE  300A               	movlw	10
  4026     01FF  00F2               	movwf	___lwmod@divisor
  4027     0200  3000               	movlw	0
  4028     0201  00F3               	movwf	___lwmod@divisor+1
  4029     0202  1283               	bcf	3,5	;RP0=0, select bank0
  4030     0203  1303               	bcf	3,6	;RP1=0, select bank0
  4031     0204  085C               	movf	set_time@hr+1,w
  4032     0205  00F5               	movwf	___lwmod@dividend+1
  4033     0206  085B               	movf	set_time@hr,w
  4034     0207  00F4               	movwf	___lwmod@dividend
  4035     0208  160A  118A  2221  120A  118A  	fcall	___lwmod
  4036     020D  0872               	movf	?___lwmod,w
  4037     020E  3E30               	addlw	48
  4038     020F  160A  118A  21A2  120A  118A  	fcall	_clcd_putch
  4039     0214                     l3981:
  4040                           
  4041                           ;menu_actions.c: 338:     clcd_putch(':', (0xC0 + 5));
  4042     0214  30C5               	movlw	197
  4043     0215  00F7               	movwf	clcd_putch@addr
  4044     0216  303A               	movlw	58
  4045     0217  160A  118A  21A2  120A  118A  	fcall	_clcd_putch
  4046     021C                     l3983:
  4047                           
  4048                           ;menu_actions.c: 339:     clcd_putch((min / 10) + '0', (0xC0 + 6));
  4049     021C  30C6               	movlw	198
  4050     021D  00F7               	movwf	clcd_putch@addr
  4051     021E  300A               	movlw	10
  4052     021F  00F2               	movwf	___lwdiv@divisor
  4053     0220  3000               	movlw	0
  4054     0221  00F3               	movwf	___lwdiv@divisor+1
  4055     0222  087B               	movf	set_time@min+1,w
  4056     0223  00F5               	movwf	___lwdiv@dividend+1
  4057     0224  087A               	movf	set_time@min,w
  4058     0225  00F4               	movwf	___lwdiv@dividend
  4059     0226  160A  118A  22D4  120A  118A  	fcall	___lwdiv
  4060     022B  0872               	movf	?___lwdiv,w
  4061     022C  3E30               	addlw	48
  4062     022D  160A  118A  21A2  120A  118A  	fcall	_clcd_putch
  4063     0232                     l3985:
  4064                           
  4065                           ;menu_actions.c: 340:     clcd_putch((min % 10) + '0', (0xC0 + 7));
  4066     0232  30C7               	movlw	199
  4067     0233  00F7               	movwf	clcd_putch@addr
  4068     0234  300A               	movlw	10
  4069     0235  00F2               	movwf	___lwmod@divisor
  4070     0236  3000               	movlw	0
  4071     0237  00F3               	movwf	___lwmod@divisor+1
  4072     0238  087B               	movf	set_time@min+1,w
  4073     0239  00F5               	movwf	___lwmod@dividend+1
  4074     023A  087A               	movf	set_time@min,w
  4075     023B  00F4               	movwf	___lwmod@dividend
  4076     023C  160A  118A  2221  120A  118A  	fcall	___lwmod
  4077     0241  0872               	movf	?___lwmod,w
  4078     0242  3E30               	addlw	48
  4079     0243  160A  118A  21A2  120A  118A  	fcall	_clcd_putch
  4080     0248                     l3987:
  4081                           
  4082                           ;menu_actions.c: 341:     clcd_putch(':', (0xC0 + 8));
  4083     0248  30C8               	movlw	200
  4084     0249  00F7               	movwf	clcd_putch@addr
  4085     024A  303A               	movlw	58
  4086     024B  160A  118A  21A2  120A  118A  	fcall	_clcd_putch
  4087     0250                     l3989:
  4088                           
  4089                           ;menu_actions.c: 342:     clcd_putch((sec / 10) + '0', (0xC0 + 9));
  4090     0250  30C9               	movlw	201
  4091     0251  00F7               	movwf	clcd_putch@addr
  4092     0252  300A               	movlw	10
  4093     0253  00F2               	movwf	___lwdiv@divisor
  4094     0254  3000               	movlw	0
  4095     0255  00F3               	movwf	___lwdiv@divisor+1
  4096     0256  0879               	movf	set_time@sec+1,w
  4097     0257  00F5               	movwf	___lwdiv@dividend+1
  4098     0258  0878               	movf	set_time@sec,w
  4099     0259  00F4               	movwf	___lwdiv@dividend
  4100     025A  160A  118A  22D4  120A  118A  	fcall	___lwdiv
  4101     025F  0872               	movf	?___lwdiv,w
  4102     0260  3E30               	addlw	48
  4103     0261  160A  118A  21A2  120A  118A  	fcall	_clcd_putch
  4104     0266                     l3991:
  4105                           
  4106                           ;menu_actions.c: 343:     clcd_putch((sec % 10) + '0', (0xC0 + 10));
  4107     0266  30CA               	movlw	202
  4108     0267  00F7               	movwf	clcd_putch@addr
  4109     0268  300A               	movlw	10
  4110     0269  00F2               	movwf	___lwmod@divisor
  4111     026A  3000               	movlw	0
  4112     026B  00F3               	movwf	___lwmod@divisor+1
  4113     026C  0879               	movf	set_time@sec+1,w
  4114     026D  00F5               	movwf	___lwmod@dividend+1
  4115     026E  0878               	movf	set_time@sec,w
  4116     026F  00F4               	movwf	___lwmod@dividend
  4117     0270  160A  118A  2221  120A  118A  	fcall	___lwmod
  4118     0275  0872               	movf	?___lwmod,w
  4119     0276  3E30               	addlw	48
  4120     0277  160A  118A  21A2  120A  118A  	fcall	_clcd_putch
  4121     027C                     l3993:
  4122                           
  4123                           ;menu_actions.c: 345:     if (rtc_sec != prev_sec)
  4124     027C  1683               	bsf	3,5	;RP0=1, select bank1
  4125     027D  1303               	bcf	3,6	;RP1=0, select bank1
  4126     027E  0821               	movf	(set_time@prev_sec+1)^(0+128),w
  4127     027F  0623               	xorwf	(set_time@rtc_sec+1)^(0+128),w
  4128     0280  1D03               	skipz
  4129     0281  2A84               	goto	u4065
  4130     0282  0820               	movf	set_time@prev_sec^(0+128),w
  4131     0283  0622               	xorwf	set_time@rtc_sec^(0+128),w
  4132     0284                     u4065:
  4133     0284  1903               	skipnz
  4134     0285  2A87               	goto	u4061
  4135     0286  2A88               	goto	u4060
  4136     0287                     u4061:
  4137     0287  2AC8               	goto	l4015
  4138     0288                     u4060:
  4139     0288                     l3995:
  4140                           
  4141                           ;menu_actions.c: 346:     {;menu_actions.c: 347:         prev_sec = rtc_sec;
  4142     0288  0823               	movf	(set_time@rtc_sec+1)^(0+128),w
  4143     0289  00A1               	movwf	(set_time@prev_sec+1)^(0+128)
  4144     028A  0822               	movf	set_time@rtc_sec^(0+128),w
  4145     028B  00A0               	movwf	set_time@prev_sec^(0+128)
  4146     028C                     l3997:
  4147                           
  4148                           ;menu_actions.c: 348:         unsigned char pos = (field == SET_HR) ? 3 :
  4149     028C  1283               	bcf	3,5	;RP0=0, select bank0
  4150     028D  1303               	bcf	3,6	;RP1=0, select bank0
  4151     028E  0869               	movf	set_time@field,w
  4152     028F  1903               	btfsc	3,2
  4153     0290  2A92               	goto	u4071
  4154     0291  2A93               	goto	u4070
  4155     0292                     u4071:
  4156     0292  2AA6               	goto	l4005
  4157     0293                     u4070:
  4158     0293                     l3999:
  4159     0293  0369               	decf	set_time@field,w
  4160     0294  1903               	btfsc	3,2
  4161     0295  2A97               	goto	u4081
  4162     0296  2A98               	goto	u4080
  4163     0297                     u4081:
  4164     0297  2A9D               	goto	l4003
  4165     0298                     u4080:
  4166     0298                     l4001:
  4167     0298  3009               	movlw	9
  4168     0299  00AA               	movwf	_set_time$437
  4169     029A  3000               	movlw	0
  4170     029B  00AB               	movwf	_set_time$437+1
  4171     029C  2AA1               	goto	l652
  4172     029D                     l4003:
  4173     029D  3006               	movlw	6
  4174     029E  00AA               	movwf	_set_time$437
  4175     029F  3000               	movlw	0
  4176     02A0  00AB               	movwf	_set_time$437+1
  4177     02A1                     l652:
  4178     02A1  082B               	movf	_set_time$437+1,w
  4179     02A2  00A9               	movwf	_set_time$436+1
  4180     02A3  082A               	movf	_set_time$437,w
  4181     02A4  00A8               	movwf	_set_time$436
  4182     02A5  2AAA               	goto	l648
  4183     02A6                     l4005:
  4184     02A6  3003               	movlw	3
  4185     02A7  00A8               	movwf	_set_time$436
  4186     02A8  3000               	movlw	0
  4187     02A9  00A9               	movwf	_set_time$436+1
  4188     02AA                     l648:
  4189     02AA  0828               	movf	_set_time$436,w
  4190     02AB  00AE               	movwf	set_time@pos
  4191     02AC                     l4007:
  4192                           
  4193                           ;menu_actions.c: 350:         clcd_putch((rtc_sec % 2) ? ' ' : 0xFF, (0xC0 + pos));
  4194     02AC  1683               	bsf	3,5	;RP0=1, select bank1
  4195     02AD  1303               	bcf	3,6	;RP1=0, select bank1
  4196     02AE  1822               	btfsc	set_time@rtc_sec^(0+128),0
  4197     02AF  2AB1               	goto	u4091
  4198     02B0  2AB2               	goto	u4090
  4199     02B1                     u4091:
  4200     02B1  2AB9               	goto	l4011
  4201     02B2                     u4090:
  4202     02B2                     l4009:
  4203     02B2  30FF               	movlw	255
  4204     02B3  1283               	bcf	3,5	;RP0=0, select bank0
  4205     02B4  1303               	bcf	3,6	;RP1=0, select bank0
  4206     02B5  00AC               	movwf	_set_time$438
  4207     02B6  3000               	movlw	0
  4208     02B7  00AD               	movwf	_set_time$438+1
  4209     02B8  2ABF               	goto	l4013
  4210     02B9                     l4011:
  4211     02B9  3020               	movlw	32
  4212     02BA  1283               	bcf	3,5	;RP0=0, select bank0
  4213     02BB  1303               	bcf	3,6	;RP1=0, select bank0
  4214     02BC  00AC               	movwf	_set_time$438
  4215     02BD  3000               	movlw	0
  4216     02BE  00AD               	movwf	_set_time$438+1
  4217     02BF                     l4013:
  4218     02BF  082E               	movf	set_time@pos,w
  4219     02C0  3EC0               	addlw	192
  4220     02C1  00F7               	movwf	clcd_putch@addr
  4221     02C2  082C               	movf	_set_time$438,w
  4222     02C3  160A  118A  21A2  120A  118A  	fcall	_clcd_putch
  4223     02C8                     l4015:
  4224                           
  4225                           ;menu_actions.c: 353:     if (key == 0x37)
  4226     02C8  3037               	movlw	55
  4227     02C9  1283               	bcf	3,5	;RP0=0, select bank0
  4228     02CA  1303               	bcf	3,6	;RP1=0, select bank0
  4229     02CB  0630               	xorwf	set_time@key,w
  4230     02CC  1D03               	btfss	3,2
  4231     02CD  2ACF               	goto	u4101
  4232     02CE  2AD0               	goto	u4100
  4233     02CF                     u4101:
  4234     02CF  2B7C               	goto	l4027
  4235     02D0                     u4100:
  4236     02D0                     l4017:
  4237                           
  4238                           ;menu_actions.c: 354:     {;menu_actions.c: 355:         write_ds1307(0x02, ((hr / 10) <
      +                          < 4) | (hr % 10));
  4239     02D0  300A               	movlw	10
  4240     02D1  00F2               	movwf	___lwmod@divisor
  4241     02D2  3000               	movlw	0
  4242     02D3  00F3               	movwf	___lwmod@divisor+1
  4243     02D4  085C               	movf	set_time@hr+1,w
  4244     02D5  00F5               	movwf	___lwmod@dividend+1
  4245     02D6  085B               	movf	set_time@hr,w
  4246     02D7  00F4               	movwf	___lwmod@dividend
  4247     02D8  160A  118A  2221  120A  118A  	fcall	___lwmod
  4248     02DD  0872               	movf	?___lwmod,w
  4249     02DE  1283               	bcf	3,5	;RP0=0, select bank0
  4250     02DF  1303               	bcf	3,6	;RP1=0, select bank0
  4251     02E0  00A4               	movwf	??_set_time
  4252     02E1  0873               	movf	?___lwmod+1,w
  4253     02E2  00A5               	movwf	??_set_time+1
  4254     02E3  300A               	movlw	10
  4255     02E4  00F2               	movwf	___lwdiv@divisor
  4256     02E5  3000               	movlw	0
  4257     02E6  00F3               	movwf	___lwdiv@divisor+1
  4258     02E7  085C               	movf	set_time@hr+1,w
  4259     02E8  00F5               	movwf	___lwdiv@dividend+1
  4260     02E9  085B               	movf	set_time@hr,w
  4261     02EA  00F4               	movwf	___lwdiv@dividend
  4262     02EB  160A  118A  22D4  120A  118A  	fcall	___lwdiv
  4263     02F0  0872               	movf	?___lwdiv,w
  4264     02F1  1283               	bcf	3,5	;RP0=0, select bank0
  4265     02F2  1303               	bcf	3,6	;RP1=0, select bank0
  4266     02F3  00A6               	movwf	??_set_time+2
  4267     02F4  3003               	movlw	3
  4268     02F5                     u4115:
  4269     02F5  1003               	clrc
  4270     02F6  0DA6               	rlf	??_set_time+2,f
  4271     02F7  3EFF               	addlw	-1
  4272     02F8  1D03               	skipz
  4273     02F9  2AF5               	goto	u4115
  4274     02FA  1003               	clrc
  4275     02FB  0D26               	rlf	??_set_time+2,w
  4276     02FC  0424               	iorwf	??_set_time,w
  4277     02FD  00F7               	movwf	write_ds1307@data
  4278     02FE  3002               	movlw	2
  4279     02FF  160A  158A  262E  120A  118A  	fcall	_write_ds1307
  4280                           
  4281                           ;menu_actions.c: 356:         write_ds1307(0x01, ((min / 10) << 4) | (min % 10));
  4282     0304  300A               	movlw	10
  4283     0305  00F2               	movwf	___lwmod@divisor
  4284     0306  3000               	movlw	0
  4285     0307  00F3               	movwf	___lwmod@divisor+1
  4286     0308  087B               	movf	set_time@min+1,w
  4287     0309  00F5               	movwf	___lwmod@dividend+1
  4288     030A  087A               	movf	set_time@min,w
  4289     030B  00F4               	movwf	___lwmod@dividend
  4290     030C  160A  118A  2221  120A  118A  	fcall	___lwmod
  4291     0311  0872               	movf	?___lwmod,w
  4292     0312  1283               	bcf	3,5	;RP0=0, select bank0
  4293     0313  1303               	bcf	3,6	;RP1=0, select bank0
  4294     0314  00A4               	movwf	??_set_time
  4295     0315  0873               	movf	?___lwmod+1,w
  4296     0316  00A5               	movwf	??_set_time+1
  4297     0317  300A               	movlw	10
  4298     0318  00F2               	movwf	___lwdiv@divisor
  4299     0319  3000               	movlw	0
  4300     031A  00F3               	movwf	___lwdiv@divisor+1
  4301     031B  087B               	movf	set_time@min+1,w
  4302     031C  00F5               	movwf	___lwdiv@dividend+1
  4303     031D  087A               	movf	set_time@min,w
  4304     031E  00F4               	movwf	___lwdiv@dividend
  4305     031F  160A  118A  22D4  120A  118A  	fcall	___lwdiv
  4306     0324  0872               	movf	?___lwdiv,w
  4307     0325  1283               	bcf	3,5	;RP0=0, select bank0
  4308     0326  1303               	bcf	3,6	;RP1=0, select bank0
  4309     0327  00A6               	movwf	??_set_time+2
  4310     0328  3003               	movlw	3
  4311     0329                     u4125:
  4312     0329  1003               	clrc
  4313     032A  0DA6               	rlf	??_set_time+2,f
  4314     032B  3EFF               	addlw	-1
  4315     032C  1D03               	skipz
  4316     032D  2B29               	goto	u4125
  4317     032E  1003               	clrc
  4318     032F  0D26               	rlf	??_set_time+2,w
  4319     0330  0424               	iorwf	??_set_time,w
  4320     0331  00F7               	movwf	write_ds1307@data
  4321     0332  3001               	movlw	1
  4322     0333  160A  158A  262E  120A  118A  	fcall	_write_ds1307
  4323                           
  4324                           ;menu_actions.c: 357:         write_ds1307(0x00, ((sec / 10) << 4) | (sec % 10));
  4325     0338  300A               	movlw	10
  4326     0339  00F2               	movwf	___lwmod@divisor
  4327     033A  3000               	movlw	0
  4328     033B  00F3               	movwf	___lwmod@divisor+1
  4329     033C  0879               	movf	set_time@sec+1,w
  4330     033D  00F5               	movwf	___lwmod@dividend+1
  4331     033E  0878               	movf	set_time@sec,w
  4332     033F  00F4               	movwf	___lwmod@dividend
  4333     0340  160A  118A  2221  120A  118A  	fcall	___lwmod
  4334     0345  0872               	movf	?___lwmod,w
  4335     0346  1283               	bcf	3,5	;RP0=0, select bank0
  4336     0347  1303               	bcf	3,6	;RP1=0, select bank0
  4337     0348  00A4               	movwf	??_set_time
  4338     0349  0873               	movf	?___lwmod+1,w
  4339     034A  00A5               	movwf	??_set_time+1
  4340     034B  300A               	movlw	10
  4341     034C  00F2               	movwf	___lwdiv@divisor
  4342     034D  3000               	movlw	0
  4343     034E  00F3               	movwf	___lwdiv@divisor+1
  4344     034F  0879               	movf	set_time@sec+1,w
  4345     0350  00F5               	movwf	___lwdiv@dividend+1
  4346     0351  0878               	movf	set_time@sec,w
  4347     0352  00F4               	movwf	___lwdiv@dividend
  4348     0353  160A  118A  22D4  120A  118A  	fcall	___lwdiv
  4349     0358  0872               	movf	?___lwdiv,w
  4350     0359  1283               	bcf	3,5	;RP0=0, select bank0
  4351     035A  1303               	bcf	3,6	;RP1=0, select bank0
  4352     035B  00A6               	movwf	??_set_time+2
  4353     035C  3003               	movlw	3
  4354     035D                     u4135:
  4355     035D  1003               	clrc
  4356     035E  0DA6               	rlf	??_set_time+2,f
  4357     035F  3EFF               	addlw	-1
  4358     0360  1D03               	skipz
  4359     0361  2B5D               	goto	u4135
  4360     0362  1003               	clrc
  4361     0363  0D26               	rlf	??_set_time+2,w
  4362     0364  0424               	iorwf	??_set_time,w
  4363     0365  00F7               	movwf	write_ds1307@data
  4364     0366  3000               	movlw	0
  4365     0367  160A  158A  262E  120A  118A  	fcall	_write_ds1307
  4366     036C                     l4019:
  4367                           
  4368                           ;menu_actions.c: 359:         operation = 0;
  4369     036C  1283               	bcf	3,5	;RP0=0, select bank0
  4370     036D  1303               	bcf	3,6	;RP1=0, select bank0
  4371     036E  01EB               	clrf	_operation
  4372     036F                     l4021:
  4373                           
  4374                           ;menu_actions.c: 360:         once = 1;
  4375     036F  3001               	movlw	1
  4376     0370  1683               	bsf	3,5	;RP0=1, select bank1
  4377     0371  1303               	bcf	3,6	;RP1=0, select bank1
  4378     0372  00DA               	movwf	set_time@once^(0+128)
  4379     0373  3000               	movlw	0
  4380     0374  00DB               	movwf	(set_time@once^(0+128)+1)
  4381     0375                     l4023:
  4382                           
  4383                           ;menu_actions.c: 361:         field = SET_HR;
  4384     0375  1283               	bcf	3,5	;RP0=0, select bank0
  4385     0376  1303               	bcf	3,6	;RP1=0, select bank0
  4386     0377  01E9               	clrf	set_time@field
  4387     0378                     l4025:
  4388                           
  4389                           ;menu_actions.c: 362:         prev_key = 0x3F;
  4390     0378  303F               	movlw	63
  4391     0379  1683               	bsf	3,5	;RP0=1, select bank1
  4392     037A  1303               	bcf	3,6	;RP1=0, select bank1
  4393     037B  00E4               	movwf	set_time@prev_key^(0+128)
  4394     037C                     l4027:
  4395                           
  4396                           ;menu_actions.c: 365:     if(key == 0x2F)
  4397     037C  302F               	movlw	47
  4398     037D  1283               	bcf	3,5	;RP0=0, select bank0
  4399     037E  0630               	xorwf	set_time@key,w
  4400     037F  1D03               	btfss	3,2
  4401     0380  2B82               	goto	u4141
  4402     0381  2B83               	goto	u4140
  4403     0382                     u4141:
  4404     0382  2B91               	goto	l659
  4405     0383                     u4140:
  4406     0383                     l4029:
  4407                           
  4408                           ;menu_actions.c: 366:     {;menu_actions.c: 367:         operation = 0;
  4409     0383  01EB               	clrf	_operation
  4410     0384                     l4031:
  4411                           
  4412                           ;menu_actions.c: 368:         once = 1;
  4413     0384  3001               	movlw	1
  4414     0385  1683               	bsf	3,5	;RP0=1, select bank1
  4415     0386  1303               	bcf	3,6	;RP1=0, select bank1
  4416     0387  00DA               	movwf	set_time@once^(0+128)
  4417     0388  3000               	movlw	0
  4418     0389  00DB               	movwf	(set_time@once^(0+128)+1)
  4419     038A                     l4033:
  4420                           
  4421                           ;menu_actions.c: 369:         field = SET_HR;
  4422     038A  1283               	bcf	3,5	;RP0=0, select bank0
  4423     038B  1303               	bcf	3,6	;RP1=0, select bank0
  4424     038C  01E9               	clrf	set_time@field
  4425     038D                     l4035:
  4426                           
  4427                           ;menu_actions.c: 370:         prev_key = 0x3F;
  4428     038D  303F               	movlw	63
  4429     038E  1683               	bsf	3,5	;RP0=1, select bank1
  4430     038F  1303               	bcf	3,6	;RP1=0, select bank1
  4431     0390  00E4               	movwf	set_time@prev_key^(0+128)
  4432     0391                     l659:
  4433     0391  0008               	return
  4434     0392                     __end_of_set_time:
  4435                           
  4436                           	psect	text3
  4437     1F3B                     __ptext3:	
  4438 ;; *************** function _read_digital_keypad *****************
  4439 ;; Defined at:
  4440 ;;		line 10 in file "digital_keypad.c"
  4441 ;; Parameters:    Size  Location     Type
  4442 ;;  mode            1    wreg     unsigned char 
  4443 ;; Auto vars:     Size  Location     Type
  4444 ;;  mode            1    3[COMMON] unsigned char 
  4445 ;; Return value:  Size  Location     Type
  4446 ;;                  1    wreg      unsigned char 
  4447 ;; Registers used:
  4448 ;;		wreg, status,2, status,0
  4449 ;; Tracked objects:
  4450 ;;		On entry : 0/0
  4451 ;;		On exit  : 0/0
  4452 ;;		Unchanged: 0/0
  4453 ;; Data sizes:     COMMON   BANK0   BANK1   BANK3   BANK2
  4454 ;;      Params:         0       0       0       0       0
  4455 ;;      Locals:         1       0       0       0       0
  4456 ;;      Temps:          1       0       0       0       0
  4457 ;;      Totals:         2       0       0       0       0
  4458 ;;Total ram usage:        2 bytes
  4459 ;; Hardware stack levels used: 1
  4460 ;; Hardware stack levels required when called: 1
  4461 ;; This function calls:
  4462 ;;		Nothing
  4463 ;; This function is called by:
  4464 ;;		_main
  4465 ;; This function uses a non-reentrant model
  4466 ;;
  4467                           
  4468     1F3B                     _read_digital_keypad:	
  4469                           ;psect for function _read_digital_keypad
  4470                           
  4471                           
  4472                           ;incstack = 0
  4473                           ; Regs used in _read_digital_keypad: [wreg+status,2+status,0]
  4474                           ;read_digital_keypad@mode stored from wreg
  4475     1F3B  00F3               	movwf	read_digital_keypad@mode
  4476     1F3C                     l3447:
  4477                           
  4478                           ;digital_keypad.c: 10: unsigned char read_digital_keypad(unsigned char mode);digital_key
      +                          pad.c: 11: {;digital_keypad.c: 12:     static unsigned char once = 1;;digital_keypad.c: 
      +                          14:     if (mode == 0)
  4479     1F3C  0873               	movf	read_digital_keypad@mode,w
  4480     1F3D  1D03               	btfss	3,2
  4481     1F3E  2F40               	goto	u3391
  4482     1F3F  2F41               	goto	u3390
  4483     1F40                     u3391:
  4484     1F40  2F46               	goto	l3455
  4485     1F41                     u3390:
  4486     1F41                     l3449:
  4487                           
  4488                           ;digital_keypad.c: 15:     {;digital_keypad.c: 16:         return PORTB & 0x3F;
  4489     1F41  1283               	bcf	3,5	;RP0=0, select bank0
  4490     1F42  1303               	bcf	3,6	;RP1=0, select bank0
  4491     1F43  0806               	movf	6,w	;volatile
  4492     1F44  393F               	andlw	63
  4493     1F45  2F69               	goto	l136
  4494     1F46                     l3455:
  4495                           
  4496                           ;digital_keypad.c: 19:     {;digital_keypad.c: 20:         if (((PORTB & 0x3F) != 0x3F) 
      +                          && once)
  4497     1F46  303F               	movlw	63
  4498     1F47  1283               	bcf	3,5	;RP0=0, select bank0
  4499     1F48  1303               	bcf	3,6	;RP1=0, select bank0
  4500     1F49  0506               	andwf	6,w	;volatile
  4501     1F4A  00F2               	movwf	??_read_digital_keypad
  4502     1F4B  303F               	movlw	63
  4503     1F4C  0672               	xorwf	??_read_digital_keypad,w
  4504     1F4D  1903               	btfsc	3,2
  4505     1F4E  2F50               	goto	u3401
  4506     1F4F  2F51               	goto	u3400
  4507     1F50                     u3401:
  4508     1F50  2F5A               	goto	l3467
  4509     1F51                     u3400:
  4510     1F51                     l3457:
  4511     1F51  1683               	bsf	3,5	;RP0=1, select bank1
  4512     1F52  1303               	bcf	3,6	;RP1=0, select bank1
  4513     1F53  086B               	movf	read_digital_keypad@once^(0+128),w
  4514     1F54  1903               	btfsc	3,2
  4515     1F55  2F57               	goto	u3411
  4516     1F56  2F58               	goto	u3410
  4517     1F57                     u3411:
  4518     1F57  2F5A               	goto	l3467
  4519     1F58                     u3410:
  4520     1F58                     l3459:
  4521                           
  4522                           ;digital_keypad.c: 21:         {;digital_keypad.c: 22:             once = 0;
  4523     1F58  01EB               	clrf	read_digital_keypad@once^(0+128)
  4524     1F59  2F41               	goto	l3449
  4525     1F5A                     l3467:
  4526     1F5A  303F               	movlw	63
  4527     1F5B  1283               	bcf	3,5	;RP0=0, select bank0
  4528     1F5C  0506               	andwf	6,w	;volatile
  4529     1F5D  00F2               	movwf	??_read_digital_keypad
  4530     1F5E  303F               	movlw	63
  4531     1F5F  0672               	xorwf	??_read_digital_keypad,w
  4532     1F60  1D03               	btfss	3,2
  4533     1F61  2F63               	goto	u3421
  4534     1F62  2F64               	goto	u3420
  4535     1F63                     u3421:
  4536     1F63  2F68               	goto	l3471
  4537     1F64                     u3420:
  4538     1F64                     l3469:
  4539                           
  4540                           ;digital_keypad.c: 27:         {;digital_keypad.c: 28:             once = 1;
  4541     1F64  3001               	movlw	1
  4542     1F65  1683               	bsf	3,5	;RP0=1, select bank1
  4543     1F66  1303               	bcf	3,6	;RP1=0, select bank1
  4544     1F67  00EB               	movwf	read_digital_keypad@once^(0+128)
  4545     1F68                     l3471:
  4546                           
  4547                           ;digital_keypad.c: 32:     return 0x3F;
  4548     1F68  303F               	movlw	63
  4549     1F69                     l136:
  4550     1F69  0008               	return
  4551     1F6A                     __end_of_read_digital_keypad:
  4552                           
  4553                           	psect	text4
  4554     0960                     __ptext4:	
  4555 ;; *************** function _main_menu *****************
  4556 ;; Defined at:
  4557 ;;		line 16 in file "main_menu.c"
  4558 ;; Parameters:    Size  Location     Type
  4559 ;;  key             1    wreg     unsigned char 
  4560 ;; Auto vars:     Size  Location     Type
  4561 ;;  key             1    6[BANK0 ] unsigned char 
  4562 ;; Return value:  Size  Location     Type
  4563 ;;                  1    wreg      void 
  4564 ;; Registers used:
  4565 ;;		wreg, fsr0l, fsr0h, status,2, status,0, pclath, btemp1, cstack
  4566 ;; Tracked objects:
  4567 ;;		On entry : 0/0
  4568 ;;		On exit  : 0/0
  4569 ;;		Unchanged: 0/0
  4570 ;; Data sizes:     COMMON   BANK0   BANK1   BANK3   BANK2
  4571 ;;      Params:         0       0       0       0       0
  4572 ;;      Locals:         0       1       0       0       0
  4573 ;;      Temps:          0       2       0       0       0
  4574 ;;      Totals:         0       3       0       0       0
  4575 ;;Total ram usage:        3 bytes
  4576 ;; Hardware stack levels used: 1
  4577 ;; Hardware stack levels required when called: 2
  4578 ;; This function calls:
  4579 ;;		___awdiv
  4580 ;;		_clcd_print
  4581 ;;		_clcd_putch
  4582 ;; This function is called by:
  4583 ;;		_main
  4584 ;; This function uses a non-reentrant model
  4585 ;;
  4586                           
  4587     0960                     _main_menu:	
  4588                           ;psect for function _main_menu
  4589                           
  4590                           
  4591                           ;incstack = 0
  4592                           ; Regs used in _main_menu: [wreg-fsr0h+status,2+status,0+pclath+btemp1+cstack]
  4593                           ;main_menu@key stored from wreg
  4594     0960  1283               	bcf	3,5	;RP0=0, select bank0
  4595     0961  1303               	bcf	3,6	;RP1=0, select bank0
  4596     0962  00A6               	movwf	main_menu@key
  4597     0963                     l3605:
  4598                           
  4599                           ;main_menu.c: 16: void main_menu(unsigned char key);main_menu.c: 17: {;main_menu.c: 19: 
      +                              static int display;;main_menu.c: 22:     static int state = -1;;main_menu.c: 25:    
      +                           static int state_active = 0;;main_menu.c: 28:     static unsigned char sel = 0;;main_me
      +                          nu.c: 31:     static int user_active = 0;;main_menu.c: 34:     static unsigned char menu
      +                          _once = 1;;main_menu.c: 37:     if(operation != 2)
  4600     0963  3002               	movlw	2
  4601     0964  066B               	xorwf	_operation,w
  4602     0965  1903               	btfsc	3,2
  4603     0966  2968               	goto	u3611
  4604     0967  2969               	goto	u3610
  4605     0968                     u3611:
  4606     0968  296E               	goto	l3609
  4607     0969                     u3610:
  4608     0969                     l3607:
  4609                           
  4610                           ;main_menu.c: 38:     {;main_menu.c: 39:         menu_once = 1;
  4611     0969  3001               	movlw	1
  4612     096A  1683               	bsf	3,5	;RP0=1, select bank1
  4613     096B  1303               	bcf	3,6	;RP1=0, select bank1
  4614     096C  00EA               	movwf	main_menu@menu_once^(0+128)
  4615                           
  4616                           ;main_menu.c: 40:         return;
  4617     096D  2AB3               	goto	l372
  4618     096E                     l3609:
  4619                           
  4620                           ;main_menu.c: 44:     if(menu_once)
  4621     096E  1683               	bsf	3,5	;RP0=1, select bank1
  4622     096F  1303               	bcf	3,6	;RP1=0, select bank1
  4623     0970  086A               	movf	main_menu@menu_once^(0+128),w
  4624     0971  1903               	btfsc	3,2
  4625     0972  2974               	goto	u3621
  4626     0973  2975               	goto	u3620
  4627     0974                     u3621:
  4628     0974  2982               	goto	l3619
  4629     0975                     u3620:
  4630     0975                     l3611:
  4631                           
  4632                           ;main_menu.c: 45:     {;main_menu.c: 46:         state = -1;
  4633     0975  30FF               	movlw	255
  4634     0976  1283               	bcf	3,5	;RP0=0, select bank0
  4635     0977  1303               	bcf	3,6	;RP1=0, select bank0
  4636     0978  00ED               	movwf	main_menu@state
  4637     0979  30FF               	movlw	255
  4638     097A  00EE               	movwf	main_menu@state+1
  4639     097B                     l3613:
  4640                           
  4641                           ;main_menu.c: 47:         pos1 = 0;
  4642     097B  01E1               	clrf	_pos1
  4643     097C  01E2               	clrf	_pos1+1
  4644     097D                     l3615:
  4645                           
  4646                           ;main_menu.c: 48:         user_active = 0;
  4647     097D  1683               	bsf	3,5	;RP0=1, select bank1
  4648     097E  1303               	bcf	3,6	;RP1=0, select bank1
  4649     097F  01B2               	clrf	main_menu@user_active^(0+128)
  4650     0980  01B3               	clrf	(main_menu@user_active+1)^(0+128)
  4651     0981                     l3617:
  4652                           
  4653                           ;main_menu.c: 49:         menu_once = 0;
  4654     0981  01EA               	clrf	main_menu@menu_once^(0+128)
  4655     0982                     l3619:
  4656                           
  4657                           ;main_menu.c: 53:     if(state == -1)
  4658     0982  1283               	bcf	3,5	;RP0=0, select bank0
  4659     0983  1303               	bcf	3,6	;RP1=0, select bank0
  4660     0984  0A6D               	incf	main_menu@state,w
  4661     0985  1D03               	skipz
  4662     0986  298B               	goto	u3631
  4663     0987  0A6E               	incf	main_menu@state+1,w
  4664     0988  1D03               	btfss	3,2
  4665     0989  298B               	goto	u3631
  4666     098A  298C               	goto	u3630
  4667     098B                     u3631:
  4668     098B  2A76               	goto	l3667
  4669     098C                     u3630:
  4670     098C                     l3621:
  4671                           
  4672                           ;main_menu.c: 54:     {;main_menu.c: 56:         if(key == 0x3E)
  4673     098C  303E               	movlw	62
  4674     098D  0626               	xorwf	main_menu@key,w
  4675     098E  1D03               	btfss	3,2
  4676     098F  2991               	goto	u3641
  4677     0990  2992               	goto	u3640
  4678     0991                     u3641:
  4679     0991  29AB               	goto	l3629
  4680     0992                     u3640:
  4681     0992                     l3623:
  4682                           
  4683                           ;main_menu.c: 57:         {;main_menu.c: 58:             if(pos1 < 4)
  4684     0992  0862               	movf	_pos1+1,w
  4685     0993  3A80               	xorlw	128
  4686     0994  00FF               	movwf	btemp1
  4687     0995  3080               	movlw	128
  4688     0996  027F               	subwf	btemp1,w
  4689     0997  1D03               	skipz
  4690     0998  299B               	goto	u3655
  4691     0999  3004               	movlw	4
  4692     099A  0261               	subwf	_pos1,w
  4693     099B                     u3655:
  4694     099B  1803               	skipnc
  4695     099C  299E               	goto	u3651
  4696     099D  299F               	goto	u3650
  4697     099E                     u3651:
  4698     099E  29AB               	goto	l3629
  4699     099F                     u3650:
  4700     099F                     l3625:
  4701                           
  4702                           ;main_menu.c: 59:             {;main_menu.c: 60:                 user_active = 0;
  4703     099F  1683               	bsf	3,5	;RP0=1, select bank1
  4704     09A0  1303               	bcf	3,6	;RP1=0, select bank1
  4705     09A1  01B2               	clrf	main_menu@user_active^(0+128)
  4706     09A2  01B3               	clrf	(main_menu@user_active+1)^(0+128)
  4707     09A3                     l3627:
  4708                           
  4709                           ;main_menu.c: 61:                 pos1++;
  4710     09A3  3001               	movlw	1
  4711     09A4  1283               	bcf	3,5	;RP0=0, select bank0
  4712     09A5  1303               	bcf	3,6	;RP1=0, select bank0
  4713     09A6  07E1               	addwf	_pos1,f
  4714     09A7  1803               	skipnc
  4715     09A8  0AE2               	incf	_pos1+1,f
  4716     09A9  3000               	movlw	0
  4717     09AA  07E2               	addwf	_pos1+1,f
  4718     09AB                     l3629:
  4719                           
  4720                           ;main_menu.c: 66:         if(key == 0x3D)
  4721     09AB  303D               	movlw	61
  4722     09AC  1283               	bcf	3,5	;RP0=0, select bank0
  4723     09AD  1303               	bcf	3,6	;RP1=0, select bank0
  4724     09AE  0626               	xorwf	main_menu@key,w
  4725     09AF  1D03               	btfss	3,2
  4726     09B0  29B2               	goto	u3661
  4727     09B1  29B3               	goto	u3660
  4728     09B2                     u3661:
  4729     09B2  29CC               	goto	l3637
  4730     09B3                     u3660:
  4731     09B3                     l3631:
  4732                           
  4733                           ;main_menu.c: 67:         {;main_menu.c: 68:             if(pos1 > 0)
  4734     09B3  0862               	movf	_pos1+1,w
  4735     09B4  3A80               	xorlw	128
  4736     09B5  00FF               	movwf	btemp1
  4737     09B6  3080               	movlw	128
  4738     09B7  027F               	subwf	btemp1,w
  4739     09B8  1D03               	skipz
  4740     09B9  29BC               	goto	u3675
  4741     09BA  3001               	movlw	1
  4742     09BB  0261               	subwf	_pos1,w
  4743     09BC                     u3675:
  4744     09BC  1C03               	skipc
  4745     09BD  29BF               	goto	u3671
  4746     09BE  29C0               	goto	u3670
  4747     09BF                     u3671:
  4748     09BF  29CC               	goto	l3637
  4749     09C0                     u3670:
  4750     09C0                     l3633:
  4751                           
  4752                           ;main_menu.c: 69:             {;main_menu.c: 70:                 user_active = 0;
  4753     09C0  1683               	bsf	3,5	;RP0=1, select bank1
  4754     09C1  1303               	bcf	3,6	;RP1=0, select bank1
  4755     09C2  01B2               	clrf	main_menu@user_active^(0+128)
  4756     09C3  01B3               	clrf	(main_menu@user_active+1)^(0+128)
  4757     09C4                     l3635:
  4758                           
  4759                           ;main_menu.c: 71:                 pos1--;
  4760     09C4  30FF               	movlw	255
  4761     09C5  1283               	bcf	3,5	;RP0=0, select bank0
  4762     09C6  1303               	bcf	3,6	;RP1=0, select bank0
  4763     09C7  07E1               	addwf	_pos1,f
  4764     09C8  1803               	skipnc
  4765     09C9  0AE2               	incf	_pos1+1,f
  4766     09CA  30FF               	movlw	255
  4767     09CB  07E2               	addwf	_pos1+1,f
  4768     09CC                     l3637:
  4769                           
  4770                           ;main_menu.c: 76:         if(user_active == 0)
  4771     09CC  1683               	bsf	3,5	;RP0=1, select bank1
  4772     09CD  1303               	bcf	3,6	;RP1=0, select bank1
  4773     09CE  0832               	movf	main_menu@user_active^(0+128),w
  4774     09CF  0433               	iorwf	(main_menu@user_active+1)^(0+128),w
  4775     09D0  1D03               	btfss	3,2
  4776     09D1  29D3               	goto	u3681
  4777     09D2  29D4               	goto	u3680
  4778     09D3                     u3681:
  4779     09D3  2A64               	goto	l3659
  4780     09D4                     u3680:
  4781     09D4                     l3639:
  4782                           
  4783                           ;main_menu.c: 77:         {;main_menu.c: 79:             display = (pos1 / 2) * 2;
  4784     09D4  3002               	movlw	2
  4785     09D5  00F2               	movwf	___awdiv@divisor
  4786     09D6  3000               	movlw	0
  4787     09D7  00F3               	movwf	___awdiv@divisor+1
  4788     09D8  1283               	bcf	3,5	;RP0=0, select bank0
  4789     09D9  1303               	bcf	3,6	;RP1=0, select bank0
  4790     09DA  0862               	movf	_pos1+1,w
  4791     09DB  00F5               	movwf	___awdiv@dividend+1
  4792     09DC  0861               	movf	_pos1,w
  4793     09DD  00F4               	movwf	___awdiv@dividend
  4794     09DE  160A  118A  23CF  120A  158A  	fcall	___awdiv
  4795     09E3  1003               	clrc
  4796     09E4  0D72               	rlf	?___awdiv,w
  4797     09E5  1683               	bsf	3,5	;RP0=1, select bank1
  4798     09E6  1303               	bcf	3,6	;RP1=0, select bank1
  4799     09E7  00B6               	movwf	main_menu@display^(0+128)
  4800     09E8  0D73               	rlf	?___awdiv+1,w
  4801     09E9  00B7               	movwf	(main_menu@display+1)^(0+128)
  4802     09EA                     l3641:
  4803                           
  4804                           ;main_menu.c: 82:             if (display > 3)
  4805     09EA  0837               	movf	(main_menu@display+1)^(0+128),w
  4806     09EB  3A80               	xorlw	128
  4807     09EC  00FF               	movwf	btemp1
  4808     09ED  3080               	movlw	128
  4809     09EE  027F               	subwf	btemp1,w
  4810     09EF  1D03               	skipz
  4811     09F0  29F3               	goto	u3695
  4812     09F1  3004               	movlw	4
  4813     09F2  0236               	subwf	main_menu@display^(0+128),w
  4814     09F3                     u3695:
  4815     09F3  1C03               	skipc
  4816     09F4  29F6               	goto	u3691
  4817     09F5  29F7               	goto	u3690
  4818     09F6                     u3691:
  4819     09F6  29FD               	goto	l3645
  4820     09F7                     u3690:
  4821     09F7                     l3643:
  4822                           
  4823                           ;main_menu.c: 83:             {;main_menu.c: 84:                 display = 3;
  4824     09F7  3003               	movlw	3
  4825     09F8  1683               	bsf	3,5	;RP0=1, select bank1
  4826     09F9  1303               	bcf	3,6	;RP1=0, select bank1
  4827     09FA  00B6               	movwf	main_menu@display^(0+128)
  4828     09FB  3000               	movlw	0
  4829     09FC  00B7               	movwf	(main_menu@display^(0+128)+1)
  4830     09FD                     l3645:
  4831                           
  4832                           ;main_menu.c: 88:             clcd_print(menu[display], (0x80 + 1));
  4833     09FD  1683               	bsf	3,5	;RP0=1, select bank1
  4834     09FE  1303               	bcf	3,6	;RP1=0, select bank1
  4835     09FF  0836               	movf	main_menu@display^(0+128),w
  4836     0A00  1283               	bcf	3,5	;RP0=0, select bank0
  4837     0A01  1303               	bcf	3,6	;RP1=0, select bank0
  4838     0A02  00A4               	movwf	??_main_menu
  4839     0A03  0724               	addwf	??_main_menu,w
  4840     0A04  3EDA               	addlw	(low (_menu| (0+256)))& (0+255)
  4841     0A05  0084               	movwf	4
  4842     0A06  1783               	bsf	3,7	;select IRP bank3
  4843     0A07  0800               	movf	0,w
  4844     0A08  00A0               	movwf	clcd_print@str
  4845     0A09  0A84               	incf	4,f
  4846     0A0A  0800               	movf	0,w
  4847     0A0B  0384               	decf	4,f
  4848     0A0C  00A1               	movwf	clcd_print@str+1
  4849     0A0D  3081               	movlw	129
  4850     0A0E  00A2               	movwf	clcd_print@addr
  4851     0A0F  160A  158A  279A  120A  158A  	fcall	_clcd_print
  4852     0A14                     l3647:
  4853                           
  4854                           ;main_menu.c: 89:             clcd_print(menu[display + 1], (0xC0 + 1));
  4855     0A14  1683               	bsf	3,5	;RP0=1, select bank1
  4856     0A15  1303               	bcf	3,6	;RP1=0, select bank1
  4857     0A16  0836               	movf	main_menu@display^(0+128),w
  4858     0A17  1283               	bcf	3,5	;RP0=0, select bank0
  4859     0A18  1303               	bcf	3,6	;RP1=0, select bank0
  4860     0A19  00A4               	movwf	??_main_menu
  4861     0A1A  0724               	addwf	??_main_menu,w
  4862     0A1B  3EDC               	addlw	(low ((_menu| (0+256)+2)))& (0+255)
  4863     0A1C  0084               	movwf	4
  4864     0A1D  1783               	bsf	3,7	;select IRP bank3
  4865     0A1E  0800               	movf	0,w
  4866     0A1F  00A0               	movwf	clcd_print@str
  4867     0A20  0A84               	incf	4,f
  4868     0A21  0800               	movf	0,w
  4869     0A22  0384               	decf	4,f
  4870     0A23  00A1               	movwf	clcd_print@str+1
  4871     0A24  30C1               	movlw	193
  4872     0A25  00A2               	movwf	clcd_print@addr
  4873     0A26  160A  158A  279A  120A  158A  	fcall	_clcd_print
  4874     0A2B                     l3649:
  4875                           
  4876                           ;main_menu.c: 92:             clcd_putch(' ', (0x80 + 0));
  4877     0A2B  3080               	movlw	128
  4878     0A2C  00F7               	movwf	clcd_putch@addr
  4879     0A2D  3020               	movlw	32
  4880     0A2E  160A  118A  21A2  120A  158A  	fcall	_clcd_putch
  4881     0A33                     l3651:
  4882                           
  4883                           ;main_menu.c: 93:             clcd_putch(' ', (0xC0 + 0));
  4884     0A33  30C0               	movlw	192
  4885     0A34  00F7               	movwf	clcd_putch@addr
  4886     0A35  3020               	movlw	32
  4887     0A36  160A  118A  21A2  120A  158A  	fcall	_clcd_putch
  4888                           
  4889                           ;main_menu.c: 96:             if(pos1 == display)
  4890     0A3B  1683               	bsf	3,5	;RP0=1, select bank1
  4891     0A3C  1303               	bcf	3,6	;RP1=0, select bank1
  4892     0A3D  0837               	movf	(main_menu@display+1)^(0+128),w
  4893     0A3E  1283               	bcf	3,5	;RP0=0, select bank0
  4894     0A3F  1303               	bcf	3,6	;RP1=0, select bank0
  4895     0A40  0662               	xorwf	_pos1+1,w
  4896     0A41  1D03               	skipz
  4897     0A42  2A49               	goto	u3705
  4898     0A43  1683               	bsf	3,5	;RP0=1, select bank1
  4899     0A44  1303               	bcf	3,6	;RP1=0, select bank1
  4900     0A45  0836               	movf	main_menu@display^(0+128),w
  4901     0A46  1283               	bcf	3,5	;RP0=0, select bank0
  4902     0A47  1303               	bcf	3,6	;RP1=0, select bank0
  4903     0A48  0661               	xorwf	_pos1,w
  4904     0A49                     u3705:
  4905     0A49  1D03               	skipz
  4906     0A4A  2A4C               	goto	u3701
  4907     0A4B  2A4D               	goto	u3700
  4908     0A4C                     u3701:
  4909     0A4C  2A56               	goto	l3655
  4910     0A4D                     u3700:
  4911     0A4D                     l3653:
  4912                           
  4913                           ;main_menu.c: 97:             {;main_menu.c: 98:                 clcd_putch('>', (0x80 +
      +                           0));
  4914     0A4D  3080               	movlw	128
  4915     0A4E  00F7               	movwf	clcd_putch@addr
  4916     0A4F  303E               	movlw	62
  4917     0A50  160A  118A  21A2  120A  158A  	fcall	_clcd_putch
  4918                           
  4919                           ;main_menu.c: 99:             }
  4920     0A55  2A5E               	goto	l3657
  4921     0A56                     l3655:
  4922                           
  4923                           ;main_menu.c: 101:             {;main_menu.c: 102:                 clcd_putch('>', (0xC0
      +                           + 0));
  4924     0A56  30C0               	movlw	192
  4925     0A57  00F7               	movwf	clcd_putch@addr
  4926     0A58  303E               	movlw	62
  4927     0A59  160A  118A  21A2  120A  158A  	fcall	_clcd_putch
  4928     0A5E                     l3657:
  4929                           
  4930                           ;main_menu.c: 105:             user_active = 1;
  4931     0A5E  3001               	movlw	1
  4932     0A5F  1683               	bsf	3,5	;RP0=1, select bank1
  4933     0A60  1303               	bcf	3,6	;RP1=0, select bank1
  4934     0A61  00B2               	movwf	main_menu@user_active^(0+128)
  4935     0A62  3000               	movlw	0
  4936     0A63  00B3               	movwf	(main_menu@user_active^(0+128)+1)
  4937     0A64                     l3659:
  4938                           
  4939                           ;main_menu.c: 109:         if(key == 0x37)
  4940     0A64  3037               	movlw	55
  4941     0A65  1283               	bcf	3,5	;RP0=0, select bank0
  4942     0A66  1303               	bcf	3,6	;RP1=0, select bank0
  4943     0A67  0626               	xorwf	main_menu@key,w
  4944     0A68  1D03               	btfss	3,2
  4945     0A69  2A6B               	goto	u3711
  4946     0A6A  2A6C               	goto	u3710
  4947     0A6B                     u3711:
  4948     0A6B  2A76               	goto	l3667
  4949     0A6C                     u3710:
  4950     0A6C                     l3661:
  4951                           
  4952                           ;main_menu.c: 110:         {;main_menu.c: 111:             state = pos1;
  4953     0A6C  0862               	movf	_pos1+1,w
  4954     0A6D  00EE               	movwf	main_menu@state+1
  4955     0A6E  0861               	movf	_pos1,w
  4956     0A6F  00ED               	movwf	main_menu@state
  4957     0A70                     l3663:
  4958                           
  4959                           ;main_menu.c: 112:             state_active = 0;
  4960     0A70  1683               	bsf	3,5	;RP0=1, select bank1
  4961     0A71  1303               	bcf	3,6	;RP1=0, select bank1
  4962     0A72  01B4               	clrf	main_menu@state_active^(0+128)
  4963     0A73  01B5               	clrf	(main_menu@state_active+1)^(0+128)
  4964     0A74                     l3665:
  4965                           
  4966                           ;main_menu.c: 113:             user_active = 0;
  4967     0A74  01B2               	clrf	main_menu@user_active^(0+128)
  4968     0A75  01B3               	clrf	(main_menu@user_active+1)^(0+128)
  4969     0A76                     l3667:
  4970                           
  4971                           ;main_menu.c: 118:     if(state != -1)
  4972     0A76  1283               	bcf	3,5	;RP0=0, select bank0
  4973     0A77  0A6D               	incf	main_menu@state,w
  4974     0A78  1D03               	skipz
  4975     0A79  2A7F               	goto	u3720
  4976     0A7A  0A6E               	incf	main_menu@state+1,w
  4977     0A7B  1903               	btfsc	3,2
  4978     0A7C  2A7E               	goto	u3721
  4979     0A7D  2A7F               	goto	u3720
  4980     0A7E                     u3721:
  4981     0A7E  2AB3               	goto	l372
  4982     0A7F                     u3720:
  4983     0A7F                     l3669:
  4984                           
  4985                           ;main_menu.c: 119:     {;main_menu.c: 120:         if(state == 0)
  4986     0A7F  086D               	movf	main_menu@state,w
  4987     0A80  046E               	iorwf	main_menu@state+1,w
  4988     0A81  1D03               	btfss	3,2
  4989     0A82  2A84               	goto	u3731
  4990     0A83  2A85               	goto	u3730
  4991     0A84                     u3731:
  4992     0A84  2A8C               	goto	l3679
  4993     0A85                     u3730:
  4994     0A85                     l3671:
  4995                           
  4996                           ;main_menu.c: 121:         {;main_menu.c: 122:             operation = 3;
  4997     0A85  3003               	movlw	3
  4998     0A86  00EB               	movwf	_operation
  4999     0A87                     l3673:
  5000                           
  5001                           ;main_menu.c: 123:             state = -1;
  5002     0A87  30FF               	movlw	255
  5003     0A88  00ED               	movwf	main_menu@state
  5004     0A89  30FF               	movlw	255
  5005     0A8A  00EE               	movwf	main_menu@state+1
  5006     0A8B  2AB3               	goto	l372
  5007     0A8C                     l3679:
  5008     0A8C  036D               	decf	main_menu@state,w
  5009     0A8D  046E               	iorwf	main_menu@state+1,w
  5010     0A8E  1D03               	btfss	3,2
  5011     0A8F  2A91               	goto	u3741
  5012     0A90  2A92               	goto	u3740
  5013     0A91                     u3741:
  5014     0A91  2A95               	goto	l3689
  5015     0A92                     u3740:
  5016     0A92                     l3681:
  5017                           
  5018                           ;main_menu.c: 127:         {;main_menu.c: 128:             operation = 4;
  5019     0A92  3004               	movlw	4
  5020     0A93  00EB               	movwf	_operation
  5021     0A94  2A87               	goto	l3673
  5022     0A95                     l3689:
  5023     0A95  3002               	movlw	2
  5024     0A96  066D               	xorwf	main_menu@state,w
  5025     0A97  046E               	iorwf	main_menu@state+1,w
  5026     0A98  1D03               	btfss	3,2
  5027     0A99  2A9B               	goto	u3751
  5028     0A9A  2A9C               	goto	u3750
  5029     0A9B                     u3751:
  5030     0A9B  2A9F               	goto	l3699
  5031     0A9C                     u3750:
  5032     0A9C                     l3691:
  5033                           
  5034                           ;main_menu.c: 133:         {;main_menu.c: 134:             operation = 5;
  5035     0A9C  3005               	movlw	5
  5036     0A9D  00EB               	movwf	_operation
  5037     0A9E  2A87               	goto	l3673
  5038     0A9F                     l3699:
  5039     0A9F  3003               	movlw	3
  5040     0AA0  066D               	xorwf	main_menu@state,w
  5041     0AA1  046E               	iorwf	main_menu@state+1,w
  5042     0AA2  1D03               	btfss	3,2
  5043     0AA3  2AA5               	goto	u3761
  5044     0AA4  2AA6               	goto	u3760
  5045     0AA5                     u3761:
  5046     0AA5  2AA9               	goto	l3709
  5047     0AA6                     u3760:
  5048     0AA6                     l3701:
  5049                           
  5050                           ;main_menu.c: 139:         {;main_menu.c: 140:             operation = 6;
  5051     0AA6  3006               	movlw	6
  5052     0AA7  00EB               	movwf	_operation
  5053     0AA8  2A87               	goto	l3673
  5054     0AA9                     l3709:
  5055     0AA9  3004               	movlw	4
  5056     0AAA  066D               	xorwf	main_menu@state,w
  5057     0AAB  046E               	iorwf	main_menu@state+1,w
  5058     0AAC  1D03               	btfss	3,2
  5059     0AAD  2AAF               	goto	u3771
  5060     0AAE  2AB0               	goto	u3770
  5061     0AAF                     u3771:
  5062     0AAF  2AB3               	goto	l372
  5063     0AB0                     u3770:
  5064     0AB0                     l3711:
  5065                           
  5066                           ;main_menu.c: 145:         {;main_menu.c: 146:             operation = 7;
  5067     0AB0  3007               	movlw	7
  5068     0AB1  00EB               	movwf	_operation
  5069     0AB2  2A87               	goto	l3673
  5070     0AB3                     l372:
  5071     0AB3  0008               	return
  5072     0AB4                     __end_of_main_menu:
  5073                           
  5074                           	psect	text5
  5075     13CF                     __ptext5:	
  5076 ;; *************** function ___awdiv *****************
  5077 ;; Defined at:
  5078 ;;		line 5 in file "C:\Program Files\Microchip\xc8\v3.10\pic\sources\c99\common\awdiv.c"
  5079 ;; Parameters:    Size  Location     Type
  5080 ;;  divisor         2    2[COMMON] int 
  5081 ;;  dividend        2    4[COMMON] int 
  5082 ;; Auto vars:     Size  Location     Type
  5083 ;;  quotient        2    2[BANK0 ] int 
  5084 ;;  sign            1    1[BANK0 ] unsigned char 
  5085 ;;  counter         1    0[BANK0 ] unsigned char 
  5086 ;; Return value:  Size  Location     Type
  5087 ;;                  2    2[COMMON] int 
  5088 ;; Registers used:
  5089 ;;		wreg, status,2, status,0
  5090 ;; Tracked objects:
  5091 ;;		On entry : 0/0
  5092 ;;		On exit  : 0/0
  5093 ;;		Unchanged: 0/0
  5094 ;; Data sizes:     COMMON   BANK0   BANK1   BANK3   BANK2
  5095 ;;      Params:         4       0       0       0       0
  5096 ;;      Locals:         0       4       0       0       0
  5097 ;;      Temps:          0       0       0       0       0
  5098 ;;      Totals:         4       4       0       0       0
  5099 ;;Total ram usage:        8 bytes
  5100 ;; Hardware stack levels used: 1
  5101 ;; Hardware stack levels required when called: 1
  5102 ;; This function calls:
  5103 ;;		Nothing
  5104 ;; This function is called by:
  5105 ;;		_main_menu
  5106 ;; This function uses a non-reentrant model
  5107 ;;
  5108                           
  5109     13CF                     ___awdiv:	
  5110                           ;psect for function ___awdiv
  5111                           
  5112     13CF                     l3019:	
  5113                           ;incstack = 0
  5114                           ; Regs used in ___awdiv: [wreg+status,2+status,0]
  5115                           
  5116     13CF  1283               	bcf	3,5	;RP0=0, select bank0
  5117     13D0  1303               	bcf	3,6	;RP1=0, select bank0
  5118     13D1  01A1               	clrf	___awdiv@sign
  5119     13D2                     l3021:
  5120     13D2  1FF3               	btfss	___awdiv@divisor+1,7
  5121     13D3  2BD5               	goto	u2561
  5122     13D4  2BD6               	goto	u2560
  5123     13D5                     u2561:
  5124     13D5  2BDD               	goto	l3027
  5125     13D6                     u2560:
  5126     13D6                     l3023:
  5127     13D6  09F2               	comf	___awdiv@divisor,f
  5128     13D7  09F3               	comf	___awdiv@divisor+1,f
  5129     13D8  0AF2               	incf	___awdiv@divisor,f
  5130     13D9  1903               	skipnz
  5131     13DA  0AF3               	incf	___awdiv@divisor+1,f
  5132     13DB                     l3025:
  5133     13DB  3001               	movlw	1
  5134     13DC  00A1               	movwf	___awdiv@sign
  5135     13DD                     l3027:
  5136     13DD  1FF5               	btfss	___awdiv@dividend+1,7
  5137     13DE  2BE0               	goto	u2571
  5138     13DF  2BE1               	goto	u2570
  5139     13E0                     u2571:
  5140     13E0  2BE8               	goto	l3033
  5141     13E1                     u2570:
  5142     13E1                     l3029:
  5143     13E1  09F4               	comf	___awdiv@dividend,f
  5144     13E2  09F5               	comf	___awdiv@dividend+1,f
  5145     13E3  0AF4               	incf	___awdiv@dividend,f
  5146     13E4  1903               	skipnz
  5147     13E5  0AF5               	incf	___awdiv@dividend+1,f
  5148     13E6                     l3031:
  5149     13E6  3001               	movlw	1
  5150     13E7  06A1               	xorwf	___awdiv@sign,f
  5151     13E8                     l3033:
  5152     13E8  01A2               	clrf	___awdiv@quotient
  5153     13E9  01A3               	clrf	___awdiv@quotient+1
  5154     13EA                     l3035:
  5155     13EA  0872               	movf	___awdiv@divisor,w
  5156     13EB  0473               	iorwf	___awdiv@divisor+1,w
  5157     13EC  1903               	btfsc	3,2
  5158     13ED  2BEF               	goto	u2581
  5159     13EE  2BF0               	goto	u2580
  5160     13EF                     u2581:
  5161     13EF  2C25               	goto	l3055
  5162     13F0                     u2580:
  5163     13F0                     l3037:
  5164     13F0  3001               	movlw	1
  5165     13F1  00A0               	movwf	___awdiv@counter
  5166     13F2  2BFC               	goto	l3043
  5167     13F3                     l3039:
  5168     13F3  3001               	movlw	1
  5169     13F4                     u2595:
  5170     13F4  1003               	clrc
  5171     13F5  0DF2               	rlf	___awdiv@divisor,f
  5172     13F6  0DF3               	rlf	___awdiv@divisor+1,f
  5173     13F7  3EFF               	addlw	-1
  5174     13F8  1D03               	skipz
  5175     13F9  2BF4               	goto	u2595
  5176     13FA                     l3041:
  5177     13FA  3001               	movlw	1
  5178     13FB  07A0               	addwf	___awdiv@counter,f
  5179     13FC                     l3043:
  5180     13FC  1FF3               	btfss	___awdiv@divisor+1,7
  5181     13FD  2BFF               	goto	u2601
  5182     13FE  2C00               	goto	u2600
  5183     13FF                     u2601:
  5184     13FF  2BF3               	goto	l3039
  5185     1400                     u2600:
  5186     1400                     l3045:
  5187     1400  3001               	movlw	1
  5188     1401                     u2615:
  5189     1401  1003               	clrc
  5190     1402  0DA2               	rlf	___awdiv@quotient,f
  5191     1403  0DA3               	rlf	___awdiv@quotient+1,f
  5192     1404  3EFF               	addlw	-1
  5193     1405  1D03               	skipz
  5194     1406  2C01               	goto	u2615
  5195     1407  0873               	movf	___awdiv@divisor+1,w
  5196     1408  0275               	subwf	___awdiv@dividend+1,w
  5197     1409  1D03               	skipz
  5198     140A  2C0D               	goto	u2625
  5199     140B  0872               	movf	___awdiv@divisor,w
  5200     140C  0274               	subwf	___awdiv@dividend,w
  5201     140D                     u2625:
  5202     140D  1C03               	skipc
  5203     140E  2C10               	goto	u2621
  5204     140F  2C11               	goto	u2620
  5205     1410                     u2621:
  5206     1410  2C18               	goto	l3051
  5207     1411                     u2620:
  5208     1411                     l3047:
  5209     1411  0872               	movf	___awdiv@divisor,w
  5210     1412  02F4               	subwf	___awdiv@dividend,f
  5211     1413  0873               	movf	___awdiv@divisor+1,w
  5212     1414  1C03               	skipc
  5213     1415  03F5               	decf	___awdiv@dividend+1,f
  5214     1416  02F5               	subwf	___awdiv@dividend+1,f
  5215     1417                     l3049:
  5216     1417  1422               	bsf	___awdiv@quotient,0
  5217     1418                     l3051:
  5218     1418  3001               	movlw	1
  5219     1419                     u2635:
  5220     1419  1003               	clrc
  5221     141A  0CF3               	rrf	___awdiv@divisor+1,f
  5222     141B  0CF2               	rrf	___awdiv@divisor,f
  5223     141C  3EFF               	addlw	-1
  5224     141D  1D03               	skipz
  5225     141E  2C19               	goto	u2635
  5226     141F                     l3053:
  5227     141F  3001               	movlw	1
  5228     1420  02A0               	subwf	___awdiv@counter,f
  5229     1421  1D03               	btfss	3,2
  5230     1422  2C24               	goto	u2641
  5231     1423  2C25               	goto	u2640
  5232     1424                     u2641:
  5233     1424  2C00               	goto	l3045
  5234     1425                     u2640:
  5235     1425                     l3055:
  5236     1425  0821               	movf	___awdiv@sign,w
  5237     1426  1903               	btfsc	3,2
  5238     1427  2C29               	goto	u2651
  5239     1428  2C2A               	goto	u2650
  5240     1429                     u2651:
  5241     1429  2C2F               	goto	l3059
  5242     142A                     u2650:
  5243     142A                     l3057:
  5244     142A  09A2               	comf	___awdiv@quotient,f
  5245     142B  09A3               	comf	___awdiv@quotient+1,f
  5246     142C  0AA2               	incf	___awdiv@quotient,f
  5247     142D  1903               	skipnz
  5248     142E  0AA3               	incf	___awdiv@quotient+1,f
  5249     142F                     l3059:
  5250     142F  0823               	movf	___awdiv@quotient+1,w
  5251     1430  00F3               	movwf	?___awdiv+1
  5252     1431  0822               	movf	___awdiv@quotient,w
  5253     1432  00F2               	movwf	?___awdiv
  5254     1433                     l948:
  5255     1433  0008               	return
  5256     1434                     __end_of___awdiv:
  5257                           
  5258                           	psect	text6
  5259     0392                     __ptext6:	
  5260 ;; *************** function _login_screen *****************
  5261 ;; Defined at:
  5262 ;;		line 12 in file "login_screen.c"
  5263 ;; Parameters:    Size  Location     Type
  5264 ;;  key             1    wreg     unsigned char 
  5265 ;; Auto vars:     Size  Location     Type
  5266 ;;  key             1   15[BANK0 ] unsigned char 
  5267 ;;  remain          2   13[BANK0 ] unsigned int 
  5268 ;;  elapsed         2   11[BANK0 ] unsigned int 
  5269 ;; Return value:  Size  Location     Type
  5270 ;;                  1    wreg      void 
  5271 ;; Registers used:
  5272 ;;		wreg, fsr0l, fsr0h, status,2, status,0, pclath, btemp1, cstack
  5273 ;; Tracked objects:
  5274 ;;		On entry : 0/0
  5275 ;;		On exit  : 0/0
  5276 ;;		Unchanged: 0/0
  5277 ;; Data sizes:     COMMON   BANK0   BANK1   BANK3   BANK2
  5278 ;;      Params:         0       0       0       0       0
  5279 ;;      Locals:         0       9       0       0       0
  5280 ;;      Temps:          0       3       0       0       0
  5281 ;;      Totals:         0      12       0       0       0
  5282 ;;Total ram usage:       12 bytes
  5283 ;; Hardware stack levels used: 1
  5284 ;; Hardware stack levels required when called: 2
  5285 ;; This function calls:
  5286 ;;		___lwdiv
  5287 ;;		___lwmod
  5288 ;;		_clcd_print
  5289 ;;		_clcd_putch
  5290 ;;		_my_strcmp
  5291 ;; This function is called by:
  5292 ;;		_main
  5293 ;; This function uses a non-reentrant model
  5294 ;;
  5295                           
  5296     0392                     _login_screen:	
  5297                           ;psect for function _login_screen
  5298                           
  5299                           
  5300                           ;incstack = 0
  5301                           ; Regs used in _login_screen: [wreg-fsr0h+status,2+status,0+pclath+btemp1+cstack]
  5302                           ;login_screen@key stored from wreg
  5303     0392  1283               	bcf	3,5	;RP0=0, select bank0
  5304     0393  1303               	bcf	3,6	;RP1=0, select bank0
  5305     0394  00AF               	movwf	login_screen@key
  5306     0395                     l3475:
  5307                           
  5308                           ;login_screen.c: 12: void login_screen(unsigned char key);login_screen.c: 13: {;login_sc
      +                          reen.c: 15:     static unsigned int i = 0;;login_screen.c: 18:     static int attempt = 
      +                          3;;login_screen.c: 21:     static unsigned int block_start_sec = 0;;login_screen.c: 24: 
      +                              static int user_active = 0;;login_screen.c: 27:     static unsigned int prev_sec = 0
      +                          ;;login_screen.c: 28:     static unsigned int idle_prev_sec = 0;;login_screen.c: 31:    
      +                           static int flag = 0;;login_screen.c: 34:     static unsigned int idle_count = 0;
  5309     0395  1683               	bsf	3,5	;RP0=1, select bank1
  5310     0396  1303               	bcf	3,6	;RP1=0, select bank1
  5311     0397  083C               	movf	login_screen@flag^(0+128),w
  5312     0398  043D               	iorwf	(login_screen@flag+1)^(0+128),w
  5313     0399  1D03               	btfss	3,2
  5314     039A  2B9C               	goto	u3431
  5315     039B  2B9D               	goto	u3430
  5316     039C                     u3431:
  5317     039C  2D23               	goto	l3571
  5318     039D                     u3430:
  5319     039D                     l3477:
  5320                           
  5321                           ;login_screen.c: 41:     {;login_screen.c: 42:         clcd_print(" ENTER PASSWORD ", (0
      +                          x80 + 0));
  5322     039D  3004               	movlw	low (STR_11| (0+32768))
  5323     039E  1283               	bcf	3,5	;RP0=0, select bank0
  5324     039F  1303               	bcf	3,6	;RP1=0, select bank0
  5325     03A0  00A0               	movwf	clcd_print@str
  5326     03A1  3091               	movlw	high (STR_11| (0+32768))
  5327     03A2  00A1               	movwf	clcd_print@str+1
  5328     03A3  3080               	movlw	128
  5329     03A4  00A2               	movwf	clcd_print@addr
  5330     03A5  160A  158A  279A  120A  118A  	fcall	_clcd_print
  5331     03AA                     l3479:
  5332                           
  5333                           ;login_screen.c: 44:         if (i == 0)
  5334     03AA  1283               	bcf	3,5	;RP0=0, select bank0
  5335     03AB  1303               	bcf	3,6	;RP1=0, select bank0
  5336     03AC  0863               	movf	login_screen@i,w
  5337     03AD  0464               	iorwf	login_screen@i+1,w
  5338     03AE  1D03               	btfss	3,2
  5339     03AF  2BB1               	goto	u3441
  5340     03B0  2BB2               	goto	u3440
  5341     03B1                     u3441:
  5342     03B1  2BBD               	goto	l3483
  5343     03B2                     u3440:
  5344     03B2                     l3481:
  5345                           
  5346                           ;login_screen.c: 45:             clcd_print(str, (0xC0 + 0));
  5347     03B2  3021               	movlw	(low (login_screen@str| (0+256)))& (0+255)
  5348     03B3  00A0               	movwf	clcd_print@str
  5349     03B4  3001               	movlw	1
  5350     03B5  00A1               	movwf	clcd_print@str+1
  5351     03B6  30C0               	movlw	192
  5352     03B7  00A2               	movwf	clcd_print@addr
  5353     03B8  160A  158A  279A  120A  118A  	fcall	_clcd_print
  5354     03BD                     l3483:
  5355                           
  5356                           ;login_screen.c: 48:         if (i < 4)
  5357     03BD  3000               	movlw	0
  5358     03BE  1283               	bcf	3,5	;RP0=0, select bank0
  5359     03BF  1303               	bcf	3,6	;RP1=0, select bank0
  5360     03C0  0264               	subwf	login_screen@i+1,w
  5361     03C1  3004               	movlw	4
  5362     03C2  1903               	skipnz
  5363     03C3  0263               	subwf	login_screen@i,w
  5364     03C4  1803               	skipnc
  5365     03C5  2BC7               	goto	u3451
  5366     03C6  2BC8               	goto	u3450
  5367     03C7                     u3451:
  5368     03C7  2C74               	goto	l3527
  5369     03C8                     u3450:
  5370     03C8                     l3485:
  5371                           
  5372                           ;login_screen.c: 49:         {;login_screen.c: 51:             if (sec != prev_sec)
  5373     03C8  1683               	bsf	3,5	;RP0=1, select bank1
  5374     03C9  1303               	bcf	3,6	;RP1=0, select bank1
  5375     03CA  0841               	movf	(login_screen@prev_sec+1)^(0+128),w
  5376     03CB  1283               	bcf	3,5	;RP0=0, select bank0
  5377     03CC  1303               	bcf	3,6	;RP1=0, select bank0
  5378     03CD  0666               	xorwf	_sec+1,w	;volatile
  5379     03CE  1D03               	skipz
  5380     03CF  2BD6               	goto	u3465
  5381     03D0  1683               	bsf	3,5	;RP0=1, select bank1
  5382     03D1  1303               	bcf	3,6	;RP1=0, select bank1
  5383     03D2  0840               	movf	login_screen@prev_sec^(0+128),w
  5384     03D3  1283               	bcf	3,5	;RP0=0, select bank0
  5385     03D4  1303               	bcf	3,6	;RP1=0, select bank0
  5386     03D5  0665               	xorwf	_sec,w	;volatile
  5387     03D6                     u3465:
  5388     03D6  1903               	skipnz
  5389     03D7  2BD9               	goto	u3461
  5390     03D8  2BDA               	goto	u3460
  5391     03D9                     u3461:
  5392     03D9  2BFC               	goto	l3497
  5393     03DA                     u3460:
  5394     03DA                     l3487:
  5395                           
  5396                           ;login_screen.c: 52:             {;login_screen.c: 53:                 prev_sec = sec;
  5397     03DA  0866               	movf	_sec+1,w	;volatile
  5398     03DB  1683               	bsf	3,5	;RP0=1, select bank1
  5399     03DC  1303               	bcf	3,6	;RP1=0, select bank1
  5400     03DD  00C1               	movwf	(login_screen@prev_sec+1)^(0+128)
  5401     03DE  1283               	bcf	3,5	;RP0=0, select bank0
  5402     03DF  1303               	bcf	3,6	;RP1=0, select bank0
  5403     03E0  0865               	movf	_sec,w	;volatile
  5404     03E1  1683               	bsf	3,5	;RP0=1, select bank1
  5405     03E2  1303               	bcf	3,6	;RP1=0, select bank1
  5406     03E3  00C0               	movwf	login_screen@prev_sec^(0+128)
  5407     03E4                     l3489:
  5408                           
  5409                           ;login_screen.c: 54:                 clcd_putch((sec % 2) ? ' ' : 0xFF, (0xC0 + i + 3));
  5410     03E4  1283               	bcf	3,5	;RP0=0, select bank0
  5411     03E5  1303               	bcf	3,6	;RP1=0, select bank0
  5412     03E6  1865               	btfsc	_sec,0	;volatile
  5413     03E7  2BE9               	goto	u3471
  5414     03E8  2BEA               	goto	u3470
  5415     03E9                     u3471:
  5416     03E9  2BEF               	goto	l3493
  5417     03EA                     u3470:
  5418     03EA                     l3491:
  5419     03EA  30FF               	movlw	255
  5420     03EB  00A7               	movwf	_login_screen$252
  5421     03EC  3000               	movlw	0
  5422     03ED  00A8               	movwf	_login_screen$252+1
  5423     03EE  2BF3               	goto	l3495
  5424     03EF                     l3493:
  5425     03EF  3020               	movlw	32
  5426     03F0  00A7               	movwf	_login_screen$252
  5427     03F1  3000               	movlw	0
  5428     03F2  00A8               	movwf	_login_screen$252+1
  5429     03F3                     l3495:
  5430     03F3  0863               	movf	login_screen@i,w
  5431     03F4  3EC3               	addlw	195
  5432     03F5  00F7               	movwf	clcd_putch@addr
  5433     03F6  0827               	movf	_login_screen$252,w
  5434     03F7  160A  118A  21A2  120A  118A  	fcall	_clcd_putch
  5435     03FC                     l3497:
  5436                           
  5437                           ;login_screen.c: 58:             if (user_active == 0)
  5438     03FC  1683               	bsf	3,5	;RP0=1, select bank1
  5439     03FD  1303               	bcf	3,6	;RP1=0, select bank1
  5440     03FE  0842               	movf	login_screen@user_active^(0+128),w
  5441     03FF  0443               	iorwf	(login_screen@user_active+1)^(0+128),w
  5442     0400  1D03               	btfss	3,2
  5443     0401  2C03               	goto	u3481
  5444     0402  2C04               	goto	u3480
  5445     0403                     u3481:
  5446     0403  2C35               	goto	l3507
  5447     0404                     u3480:
  5448     0404                     l3499:
  5449                           
  5450                           ;login_screen.c: 59:             {;login_screen.c: 60:                 if (sec != idle_p
      +                          rev_sec)
  5451     0404  083F               	movf	(login_screen@idle_prev_sec+1)^(0+128),w
  5452     0405  1283               	bcf	3,5	;RP0=0, select bank0
  5453     0406  1303               	bcf	3,6	;RP1=0, select bank0
  5454     0407  0666               	xorwf	_sec+1,w	;volatile
  5455     0408  1D03               	skipz
  5456     0409  2C10               	goto	u3495
  5457     040A  1683               	bsf	3,5	;RP0=1, select bank1
  5458     040B  1303               	bcf	3,6	;RP1=0, select bank1
  5459     040C  083E               	movf	login_screen@idle_prev_sec^(0+128),w
  5460     040D  1283               	bcf	3,5	;RP0=0, select bank0
  5461     040E  1303               	bcf	3,6	;RP1=0, select bank0
  5462     040F  0665               	xorwf	_sec,w	;volatile
  5463     0410                     u3495:
  5464     0410  1903               	skipnz
  5465     0411  2C13               	goto	u3491
  5466     0412  2C14               	goto	u3490
  5467     0413                     u3491:
  5468     0413  2C24               	goto	l322
  5469     0414                     u3490:
  5470     0414                     l3501:
  5471                           
  5472                           ;login_screen.c: 61:                 {;login_screen.c: 62:                     idle_prev
      +                          _sec = sec;
  5473     0414  0866               	movf	_sec+1,w	;volatile
  5474     0415  1683               	bsf	3,5	;RP0=1, select bank1
  5475     0416  1303               	bcf	3,6	;RP1=0, select bank1
  5476     0417  00BF               	movwf	(login_screen@idle_prev_sec+1)^(0+128)
  5477     0418  1283               	bcf	3,5	;RP0=0, select bank0
  5478     0419  1303               	bcf	3,6	;RP1=0, select bank0
  5479     041A  0865               	movf	_sec,w	;volatile
  5480     041B  1683               	bsf	3,5	;RP0=1, select bank1
  5481     041C  1303               	bcf	3,6	;RP1=0, select bank1
  5482     041D  00BE               	movwf	login_screen@idle_prev_sec^(0+128)
  5483                           
  5484                           ;login_screen.c: 63:                     idle_count++;
  5485     041E  3001               	movlw	1
  5486     041F  07BA               	addwf	login_screen@idle_count^(0+128),f
  5487     0420  1803               	skipnc
  5488     0421  0ABB               	incf	(login_screen@idle_count+1)^(0+128),f
  5489     0422  3000               	movlw	0
  5490     0423  07BB               	addwf	(login_screen@idle_count+1)^(0+128),f
  5491     0424                     l322:	
  5492                           ;login_screen.c: 64:                 }
  5493                           
  5494                           
  5495                           ;login_screen.c: 66:                 if (idle_count >= 10)
  5496     0424  3000               	movlw	0
  5497     0425  1683               	bsf	3,5	;RP0=1, select bank1
  5498     0426  1303               	bcf	3,6	;RP1=0, select bank1
  5499     0427  023B               	subwf	(login_screen@idle_count+1)^(0+128),w
  5500     0428  300A               	movlw	10
  5501     0429  1903               	skipnz
  5502     042A  023A               	subwf	login_screen@idle_count^(0+128),w
  5503     042B  1C03               	skipc
  5504     042C  2C2E               	goto	u3501
  5505     042D  2C2F               	goto	u3500
  5506     042E                     u3501:
  5507     042E  2C35               	goto	l3507
  5508     042F                     u3500:
  5509     042F                     l3503:
  5510                           
  5511                           ;login_screen.c: 67:                 {;login_screen.c: 68:                     flag = 3;
  5512     042F  3003               	movlw	3
  5513     0430  00BC               	movwf	login_screen@flag^(0+128)
  5514     0431  3000               	movlw	0
  5515     0432  00BD               	movwf	(login_screen@flag^(0+128)+1)
  5516     0433                     l3505:
  5517                           
  5518                           ;login_screen.c: 69:                     idle_count = 0;
  5519     0433  01BA               	clrf	login_screen@idle_count^(0+128)
  5520     0434  01BB               	clrf	(login_screen@idle_count+1)^(0+128)
  5521     0435                     l3507:
  5522                           
  5523                           ;login_screen.c: 74:             if (key == 0x3E || key == 0x3D)
  5524     0435  303E               	movlw	62
  5525     0436  1283               	bcf	3,5	;RP0=0, select bank0
  5526     0437  1303               	bcf	3,6	;RP1=0, select bank0
  5527     0438  062F               	xorwf	login_screen@key,w
  5528     0439  1903               	btfsc	3,2
  5529     043A  2C3C               	goto	u3511
  5530     043B  2C3D               	goto	u3510
  5531     043C                     u3511:
  5532     043C  2C43               	goto	l3511
  5533     043D                     u3510:
  5534     043D                     l3509:
  5535     043D  303D               	movlw	61
  5536     043E  062F               	xorwf	login_screen@key,w
  5537     043F  1D03               	btfss	3,2
  5538     0440  2C42               	goto	u3521
  5539     0441  2C43               	goto	u3520
  5540     0442                     u3521:
  5541     0442  2DE5               	goto	l333
  5542     0443                     u3520:
  5543     0443                     l3511:
  5544                           
  5545                           ;login_screen.c: 75:             {;login_screen.c: 76:                 user_active = 1;
  5546     0443  3001               	movlw	1
  5547     0444  1683               	bsf	3,5	;RP0=1, select bank1
  5548     0445  1303               	bcf	3,6	;RP1=0, select bank1
  5549     0446  00C2               	movwf	login_screen@user_active^(0+128)
  5550     0447  3000               	movlw	0
  5551     0448  00C3               	movwf	(login_screen@user_active^(0+128)+1)
  5552     0449                     l3513:
  5553                           
  5554                           ;login_screen.c: 77:                 idle_count = 0;
  5555     0449  01BA               	clrf	login_screen@idle_count^(0+128)
  5556     044A  01BB               	clrf	(login_screen@idle_count+1)^(0+128)
  5557     044B                     l3515:
  5558                           
  5559                           ;login_screen.c: 79:                 clcd_putch('*', (0xC0 + i + 3));
  5560     044B  1283               	bcf	3,5	;RP0=0, select bank0
  5561     044C  1303               	bcf	3,6	;RP1=0, select bank0
  5562     044D  0863               	movf	login_screen@i,w
  5563     044E  3EC3               	addlw	195
  5564     044F  00F7               	movwf	clcd_putch@addr
  5565     0450  302A               	movlw	42
  5566     0451  160A  118A  21A2  120A  118A  	fcall	_clcd_putch
  5567     0456                     l3517:
  5568                           
  5569                           ;login_screen.c: 80:                 user_pass[i++] = (key == 0x3E) ? '0' : '1';
  5570     0456  303E               	movlw	62
  5571     0457  1283               	bcf	3,5	;RP0=0, select bank0
  5572     0458  1303               	bcf	3,6	;RP1=0, select bank0
  5573     0459  062F               	xorwf	login_screen@key,w
  5574     045A  1903               	btfsc	3,2
  5575     045B  2C5D               	goto	u3531
  5576     045C  2C5E               	goto	u3530
  5577     045D                     u3531:
  5578     045D  2C63               	goto	l3521
  5579     045E                     u3530:
  5580     045E                     l3519:
  5581     045E  3031               	movlw	49
  5582     045F  00A9               	movwf	_login_screen$253
  5583     0460  3000               	movlw	0
  5584     0461  00AA               	movwf	_login_screen$253+1
  5585     0462  2C67               	goto	l3523
  5586     0463                     l3521:
  5587     0463  3030               	movlw	48
  5588     0464  00A9               	movwf	_login_screen$253
  5589     0465  3000               	movlw	0
  5590     0466  00AA               	movwf	_login_screen$253+1
  5591     0467                     l3523:
  5592     0467  0863               	movf	login_screen@i,w
  5593     0468  3EC5               	addlw	(low (_user_pass| (0+256)))& (0+255)
  5594     0469  0084               	movwf	4
  5595     046A  0829               	movf	_login_screen$253,w
  5596     046B  1783               	bsf	3,7	;select IRP bank3
  5597     046C  0080               	movwf	0
  5598     046D                     l3525:
  5599     046D  3001               	movlw	1
  5600     046E  07E3               	addwf	login_screen@i,f
  5601     046F  1803               	skipnc
  5602     0470  0AE4               	incf	login_screen@i+1,f
  5603     0471  3000               	movlw	0
  5604     0472  07E4               	addwf	login_screen@i+1,f
  5605     0473  2DE5               	goto	l333
  5606     0474                     l3527:
  5607                           
  5608                           ;login_screen.c: 84:         {;login_screen.c: 85:             user_pass[i] = '\0';
  5609     0474  0863               	movf	login_screen@i,w
  5610     0475  3EC5               	addlw	(low (_user_pass| (0+256)))& (0+255)
  5611     0476  0084               	movwf	4
  5612     0477  1783               	bsf	3,7	;select IRP bank3
  5613     0478  0180               	clrf	0
  5614     0479                     l3529:
  5615                           
  5616                           ;login_screen.c: 88:             if (my_strcmp(pass, user_pass) == 0)
  5617     0479  30E4               	movlw	(low (_pass| (0+256)))& (0+255)
  5618     047A  00F2               	movwf	my_strcmp@str1
  5619     047B  30C5               	movlw	(low (_user_pass| (0+256)))& (0+255)
  5620     047C  00F3               	movwf	my_strcmp@str2
  5621     047D  160A  158A  26BD  120A  118A  	fcall	_my_strcmp
  5622     0482  0872               	movf	?_my_strcmp,w
  5623     0483  0473               	iorwf	?_my_strcmp+1,w
  5624     0484  1D03               	btfss	3,2
  5625     0485  2C87               	goto	u3541
  5626     0486  2C88               	goto	u3540
  5627     0487                     u3541:
  5628     0487  2CD0               	goto	l3551
  5629     0488                     u3540:
  5630     0488                     l3531:
  5631                           
  5632                           ;login_screen.c: 89:             {;login_screen.c: 90:                 clcd_print("  LOG
      +                          IN SUCCESS", (0x80 + 0));
  5633     0488  3075               	movlw	low (STR_12| (0+32768))
  5634     0489  1283               	bcf	3,5	;RP0=0, select bank0
  5635     048A  1303               	bcf	3,6	;RP1=0, select bank0
  5636     048B  00A0               	movwf	clcd_print@str
  5637     048C  3091               	movlw	high (STR_12| (0+32768))
  5638     048D  00A1               	movwf	clcd_print@str+1
  5639     048E  3080               	movlw	128
  5640     048F  00A2               	movwf	clcd_print@addr
  5641     0490  160A  158A  279A  120A  118A  	fcall	_clcd_print
  5642                           
  5643                           ;login_screen.c: 91:                 clcd_print("               ", (0xC0 + 0));
  5644     0495  3015               	movlw	low ((STR_37+2)| (0+32768))
  5645     0496  1283               	bcf	3,5	;RP0=0, select bank0
  5646     0497  1303               	bcf	3,6	;RP1=0, select bank0
  5647     0498  00A0               	movwf	clcd_print@str
  5648     0499  3090               	movlw	high ((STR_37+2)| (0+32768))
  5649     049A  00A1               	movwf	clcd_print@str+1
  5650     049B  30C0               	movlw	192
  5651     049C  00A2               	movwf	clcd_print@addr
  5652     049D  160A  158A  279A  120A  118A  	fcall	_clcd_print
  5653     04A2                     l3533:
  5654                           
  5655                           ;login_screen.c: 92:                 _delay((unsigned long)((1500)*(20000000/4000.0)));
  5656     04A2  3027               	movlw	39
  5657     04A3  1283               	bcf	3,5	;RP0=0, select bank0
  5658     04A4  1303               	bcf	3,6	;RP1=0, select bank0
  5659     04A5  00A6               	movwf	??_login_screen+2
  5660     04A6  300D               	movlw	13
  5661     04A7  00A5               	movwf	??_login_screen+1
  5662     04A8  3025               	movlw	37
  5663     04A9  00A4               	movwf	??_login_screen
  5664     04AA                     u4617:
  5665     04AA  0BA4               	decfsz	??_login_screen,f
  5666     04AB  2CAA               	goto	u4617
  5667     04AC  0BA5               	decfsz	??_login_screen+1,f
  5668     04AD  2CAA               	goto	u4617
  5669     04AE  0BA6               	decfsz	??_login_screen+2,f
  5670     04AF  2CAA               	goto	u4617
  5671     04B0  2CB1               	nop2
  5672     04B1                     l3535:
  5673                           
  5674                           ;login_screen.c: 94:                 operation = 2;
  5675     04B1  3002               	movlw	2
  5676     04B2  1283               	bcf	3,5	;RP0=0, select bank0
  5677     04B3  1303               	bcf	3,6	;RP1=0, select bank0
  5678     04B4  00EB               	movwf	_operation
  5679     04B5                     l3537:
  5680                           
  5681                           ;login_screen.c: 95:                 flag = 0;
  5682     04B5  1683               	bsf	3,5	;RP0=1, select bank1
  5683     04B6  1303               	bcf	3,6	;RP1=0, select bank1
  5684     04B7  01BC               	clrf	login_screen@flag^(0+128)
  5685     04B8  01BD               	clrf	(login_screen@flag+1)^(0+128)
  5686     04B9                     l3539:
  5687                           
  5688                           ;login_screen.c: 96:                 i = 0;
  5689     04B9  1283               	bcf	3,5	;RP0=0, select bank0
  5690     04BA  1303               	bcf	3,6	;RP1=0, select bank0
  5691     04BB  01E3               	clrf	login_screen@i
  5692     04BC  01E4               	clrf	login_screen@i+1
  5693     04BD                     l3541:
  5694                           
  5695                           ;login_screen.c: 97:                 user_active = 0;
  5696     04BD  1683               	bsf	3,5	;RP0=1, select bank1
  5697     04BE  1303               	bcf	3,6	;RP1=0, select bank1
  5698     04BF  01C2               	clrf	login_screen@user_active^(0+128)
  5699     04C0  01C3               	clrf	(login_screen@user_active+1)^(0+128)
  5700     04C1                     l3543:
  5701                           
  5702                           ;login_screen.c: 98:                 idle_count = 0;
  5703     04C1  01BA               	clrf	login_screen@idle_count^(0+128)
  5704     04C2  01BB               	clrf	(login_screen@idle_count+1)^(0+128)
  5705     04C3                     l3545:
  5706                           
  5707                           ;login_screen.c: 99:                 idle_prev_sec = sec;
  5708     04C3  1283               	bcf	3,5	;RP0=0, select bank0
  5709     04C4  1303               	bcf	3,6	;RP1=0, select bank0
  5710     04C5  0866               	movf	_sec+1,w	;volatile
  5711     04C6  1683               	bsf	3,5	;RP0=1, select bank1
  5712     04C7  1303               	bcf	3,6	;RP1=0, select bank1
  5713     04C8  00BF               	movwf	(login_screen@idle_prev_sec+1)^(0+128)
  5714     04C9  1283               	bcf	3,5	;RP0=0, select bank0
  5715     04CA  1303               	bcf	3,6	;RP1=0, select bank0
  5716     04CB  0865               	movf	_sec,w	;volatile
  5717     04CC  1683               	bsf	3,5	;RP0=1, select bank1
  5718     04CD  1303               	bcf	3,6	;RP1=0, select bank1
  5719     04CE  00BE               	movwf	login_screen@idle_prev_sec^(0+128)
  5720     04CF  2DE5               	goto	l333
  5721     04D0                     l3551:
  5722                           
  5723                           ;login_screen.c: 103:             {;login_screen.c: 104:                 attempt--;
  5724     04D0  30FF               	movlw	255
  5725     04D1  1683               	bsf	3,5	;RP0=1, select bank1
  5726     04D2  1303               	bcf	3,6	;RP1=0, select bank1
  5727     04D3  07DE               	addwf	login_screen@attempt^(0+128),f
  5728     04D4  1803               	skipnc
  5729     04D5  0ADF               	incf	(login_screen@attempt+1)^(0+128),f
  5730     04D6  30FF               	movlw	255
  5731     04D7  07DF               	addwf	(login_screen@attempt+1)^(0+128),f
  5732     04D8                     l3553:
  5733                           
  5734                           ;login_screen.c: 107:                 if (attempt == 0)
  5735     04D8  085E               	movf	login_screen@attempt^(0+128),w
  5736     04D9  045F               	iorwf	(login_screen@attempt+1)^(0+128),w
  5737     04DA  1D03               	btfss	3,2
  5738     04DB  2CDD               	goto	u3551
  5739     04DC  2CDE               	goto	u3550
  5740     04DD                     u3551:
  5741     04DD  2CEF               	goto	l3557
  5742     04DE                     u3550:
  5743     04DE                     l3555:
  5744                           
  5745                           ;login_screen.c: 108:                 {;login_screen.c: 109:                     flag = 
      +                          2;
  5746     04DE  3002               	movlw	2
  5747     04DF  00BC               	movwf	login_screen@flag^(0+128)
  5748     04E0  3000               	movlw	0
  5749     04E1  00BD               	movwf	(login_screen@flag^(0+128)+1)
  5750                           
  5751                           ;login_screen.c: 110:                     block_start_sec = sec;
  5752     04E2  1283               	bcf	3,5	;RP0=0, select bank0
  5753     04E3  1303               	bcf	3,6	;RP1=0, select bank0
  5754     04E4  0866               	movf	_sec+1,w	;volatile
  5755     04E5  1683               	bsf	3,5	;RP0=1, select bank1
  5756     04E6  1303               	bcf	3,6	;RP1=0, select bank1
  5757     04E7  00C5               	movwf	(login_screen@block_start_sec+1)^(0+128)
  5758     04E8  1283               	bcf	3,5	;RP0=0, select bank0
  5759     04E9  1303               	bcf	3,6	;RP1=0, select bank0
  5760     04EA  0865               	movf	_sec,w	;volatile
  5761     04EB  1683               	bsf	3,5	;RP0=1, select bank1
  5762     04EC  1303               	bcf	3,6	;RP1=0, select bank1
  5763     04ED  00C4               	movwf	login_screen@block_start_sec^(0+128)
  5764                           
  5765                           ;login_screen.c: 111:                 }
  5766     04EE  2DE5               	goto	l333
  5767     04EF                     l3557:
  5768                           
  5769                           ;login_screen.c: 113:                 {;login_screen.c: 114:                     clcd_pr
      +                          int(" WRONG PASSWORD ", (0x80 + 0));
  5770     04EF  30F3               	movlw	low (STR_14| (0+32768))
  5771     04F0  1283               	bcf	3,5	;RP0=0, select bank0
  5772     04F1  1303               	bcf	3,6	;RP1=0, select bank0
  5773     04F2  00A0               	movwf	clcd_print@str
  5774     04F3  3090               	movlw	high (STR_14| (0+32768))
  5775     04F4  00A1               	movwf	clcd_print@str+1
  5776     04F5  3080               	movlw	128
  5777     04F6  00A2               	movwf	clcd_print@addr
  5778     04F7  160A  158A  279A  120A  118A  	fcall	_clcd_print
  5779                           
  5780                           ;login_screen.c: 115:                     clcd_print(" ATTEMPTS LEFT  ", (0xC0 + 0));
  5781     04FC  30E2               	movlw	low (STR_15| (0+32768))
  5782     04FD  1283               	bcf	3,5	;RP0=0, select bank0
  5783     04FE  1303               	bcf	3,6	;RP1=0, select bank0
  5784     04FF  00A0               	movwf	clcd_print@str
  5785     0500  3090               	movlw	high (STR_15| (0+32768))
  5786     0501  00A1               	movwf	clcd_print@str+1
  5787     0502  30C0               	movlw	192
  5788     0503  00A2               	movwf	clcd_print@addr
  5789     0504  160A  158A  279A  120A  118A  	fcall	_clcd_print
  5790     0509                     l3559:
  5791                           
  5792                           ;login_screen.c: 116:                     clcd_putch(attempt + '0', (0xC0 + 15));
  5793     0509  30CF               	movlw	207
  5794     050A  00F7               	movwf	clcd_putch@addr
  5795     050B  1683               	bsf	3,5	;RP0=1, select bank1
  5796     050C  1303               	bcf	3,6	;RP1=0, select bank1
  5797     050D  085E               	movf	login_screen@attempt^(0+128),w
  5798     050E  3E30               	addlw	48
  5799     050F  160A  118A  21A2  120A  118A  	fcall	_clcd_putch
  5800     0514                     l3561:
  5801                           
  5802                           ;login_screen.c: 117:                     _delay((unsigned long)((2500)*(20000000/4000.0
      +                          )));
  5803     0514  3040               	movlw	64
  5804     0515  1283               	bcf	3,5	;RP0=0, select bank0
  5805     0516  1303               	bcf	3,6	;RP1=0, select bank0
  5806     0517  00A6               	movwf	??_login_screen+2
  5807     0518  306A               	movlw	106
  5808     0519  00A5               	movwf	??_login_screen+1
  5809     051A  3097               	movlw	151
  5810     051B  00A4               	movwf	??_login_screen
  5811     051C                     u4627:
  5812     051C  0BA4               	decfsz	??_login_screen,f
  5813     051D  2D1C               	goto	u4627
  5814     051E  0BA5               	decfsz	??_login_screen+1,f
  5815     051F  2D1C               	goto	u4627
  5816     0520  0BA6               	decfsz	??_login_screen+2,f
  5817     0521  2D1C               	goto	u4627
  5818     0522  2CB9               	goto	l3539
  5819     0523                     l3571:
  5820     0523  3002               	movlw	2
  5821     0524  063C               	xorwf	login_screen@flag^(0+128),w
  5822     0525  043D               	iorwf	(login_screen@flag+1)^(0+128),w
  5823     0526  1D03               	btfss	3,2
  5824     0527  2D29               	goto	u3561
  5825     0528  2D2A               	goto	u3560
  5826     0529                     u3561:
  5827     0529  2DC8               	goto	l3597
  5828     052A                     u3560:
  5829     052A                     l3573:
  5830                           
  5831                           ;login_screen.c: 130:     {;login_screen.c: 131:         if (sec != prev_sec)
  5832     052A  0841               	movf	(login_screen@prev_sec+1)^(0+128),w
  5833     052B  1283               	bcf	3,5	;RP0=0, select bank0
  5834     052C  1303               	bcf	3,6	;RP1=0, select bank0
  5835     052D  0666               	xorwf	_sec+1,w	;volatile
  5836     052E  1D03               	skipz
  5837     052F  2D36               	goto	u3575
  5838     0530  1683               	bsf	3,5	;RP0=1, select bank1
  5839     0531  1303               	bcf	3,6	;RP1=0, select bank1
  5840     0532  0840               	movf	login_screen@prev_sec^(0+128),w
  5841     0533  1283               	bcf	3,5	;RP0=0, select bank0
  5842     0534  1303               	bcf	3,6	;RP1=0, select bank0
  5843     0535  0665               	xorwf	_sec,w	;volatile
  5844     0536                     u3575:
  5845     0536  1903               	skipnz
  5846     0537  2D39               	goto	u3571
  5847     0538  2D3A               	goto	u3570
  5848     0539                     u3571:
  5849     0539  2DE5               	goto	l333
  5850     053A                     u3570:
  5851     053A                     l3575:
  5852                           
  5853                           ;login_screen.c: 132:         {;login_screen.c: 133:             prev_sec = sec;
  5854     053A  0866               	movf	_sec+1,w	;volatile
  5855     053B  1683               	bsf	3,5	;RP0=1, select bank1
  5856     053C  1303               	bcf	3,6	;RP1=0, select bank1
  5857     053D  00C1               	movwf	(login_screen@prev_sec+1)^(0+128)
  5858     053E  1283               	bcf	3,5	;RP0=0, select bank0
  5859     053F  1303               	bcf	3,6	;RP1=0, select bank0
  5860     0540  0865               	movf	_sec,w	;volatile
  5861     0541  1683               	bsf	3,5	;RP0=1, select bank1
  5862     0542  1303               	bcf	3,6	;RP1=0, select bank1
  5863     0543  00C0               	movwf	login_screen@prev_sec^(0+128)
  5864     0544                     l3577:
  5865                           
  5866                           ;login_screen.c: 134:             unsigned int elapsed = sec - block_start_sec;
  5867     0544  0844               	movf	login_screen@block_start_sec^(0+128),w
  5868     0545  1283               	bcf	3,5	;RP0=0, select bank0
  5869     0546  1303               	bcf	3,6	;RP1=0, select bank0
  5870     0547  0265               	subwf	_sec,w	;volatile
  5871     0548  00AB               	movwf	login_screen@elapsed
  5872     0549  1683               	bsf	3,5	;RP0=1, select bank1
  5873     054A  1303               	bcf	3,6	;RP1=0, select bank1
  5874     054B  0845               	movf	(login_screen@block_start_sec+1)^(0+128),w
  5875     054C  1C03               	skipc
  5876     054D  0A45               	incf	(login_screen@block_start_sec+1)^(0+128),w
  5877     054E  1283               	bcf	3,5	;RP0=0, select bank0
  5878     054F  1303               	bcf	3,6	;RP1=0, select bank0
  5879     0550  0266               	subwf	_sec+1,w	;volatile
  5880     0551  00AC               	movwf	login_screen@elapsed+1
  5881     0552                     l3579:
  5882                           
  5883                           ;login_screen.c: 136:             if (elapsed <= 59)
  5884     0552  3000               	movlw	0
  5885     0553  022C               	subwf	login_screen@elapsed+1,w
  5886     0554  303C               	movlw	60
  5887     0555  1903               	skipnz
  5888     0556  022B               	subwf	login_screen@elapsed,w
  5889     0557  1803               	skipnc
  5890     0558  2D5A               	goto	u3581
  5891     0559  2D5B               	goto	u3580
  5892     055A                     u3581:
  5893     055A  2DAD               	goto	l3591
  5894     055B                     u3580:
  5895     055B                     l3581:
  5896                           
  5897                           ;login_screen.c: 137:             {;login_screen.c: 138:                 unsigned int re
      +                          main = 59 - elapsed;
  5898     055B  303B               	movlw	59
  5899     055C  00A4               	movwf	??_login_screen
  5900     055D  082B               	movf	login_screen@elapsed,w
  5901     055E  0224               	subwf	??_login_screen,w
  5902     055F  00AD               	movwf	login_screen@remain
  5903     0560  092C               	comf	login_screen@elapsed+1,w
  5904     0561  1803               	skipnc
  5905     0562  3E01               	addlw	1
  5906     0563  00AE               	movwf	login_screen@remain+1
  5907     0564                     l3583:
  5908                           
  5909                           ;login_screen.c: 139:                 clcd_print("YOU ARE BLOCKED", (0x80 + 0));
  5910     0564  3065               	movlw	low (STR_16| (0+32768))
  5911     0565  00A0               	movwf	clcd_print@str
  5912     0566  3091               	movlw	high (STR_16| (0+32768))
  5913     0567  00A1               	movwf	clcd_print@str+1
  5914     0568  3080               	movlw	128
  5915     0569  00A2               	movwf	clcd_print@addr
  5916     056A  160A  158A  279A  120A  118A  	fcall	_clcd_print
  5917     056F                     l3585:
  5918                           
  5919                           ;login_screen.c: 140:                 clcd_print("WAIT FOR    SEC", (0xC0 + 0));
  5920     056F  3055               	movlw	low (STR_17| (0+32768))
  5921     0570  1283               	bcf	3,5	;RP0=0, select bank0
  5922     0571  1303               	bcf	3,6	;RP1=0, select bank0
  5923     0572  00A0               	movwf	clcd_print@str
  5924     0573  3091               	movlw	high (STR_17| (0+32768))
  5925     0574  00A1               	movwf	clcd_print@str+1
  5926     0575  30C0               	movlw	192
  5927     0576  00A2               	movwf	clcd_print@addr
  5928     0577  160A  158A  279A  120A  118A  	fcall	_clcd_print
  5929     057C                     l3587:
  5930                           
  5931                           ;login_screen.c: 141:                 clcd_putch((remain / 10) + '0', (0xC0 + 9));
  5932     057C  30C9               	movlw	201
  5933     057D  00F7               	movwf	clcd_putch@addr
  5934     057E  300A               	movlw	10
  5935     057F  00F2               	movwf	___lwdiv@divisor
  5936     0580  3000               	movlw	0
  5937     0581  00F3               	movwf	___lwdiv@divisor+1
  5938     0582  1283               	bcf	3,5	;RP0=0, select bank0
  5939     0583  1303               	bcf	3,6	;RP1=0, select bank0
  5940     0584  082E               	movf	login_screen@remain+1,w
  5941     0585  00F5               	movwf	___lwdiv@dividend+1
  5942     0586  082D               	movf	login_screen@remain,w
  5943     0587  00F4               	movwf	___lwdiv@dividend
  5944     0588  160A  118A  22D4  120A  118A  	fcall	___lwdiv
  5945     058D  0872               	movf	?___lwdiv,w
  5946     058E  3E30               	addlw	48
  5947     058F  160A  118A  21A2  120A  118A  	fcall	_clcd_putch
  5948     0594                     l3589:
  5949                           
  5950                           ;login_screen.c: 142:                 clcd_putch((remain % 10) + '0', (0xC0 + 10));
  5951     0594  30CA               	movlw	202
  5952     0595  00F7               	movwf	clcd_putch@addr
  5953     0596  300A               	movlw	10
  5954     0597  00F2               	movwf	___lwmod@divisor
  5955     0598  3000               	movlw	0
  5956     0599  00F3               	movwf	___lwmod@divisor+1
  5957     059A  1283               	bcf	3,5	;RP0=0, select bank0
  5958     059B  1303               	bcf	3,6	;RP1=0, select bank0
  5959     059C  082E               	movf	login_screen@remain+1,w
  5960     059D  00F5               	movwf	___lwmod@dividend+1
  5961     059E  082D               	movf	login_screen@remain,w
  5962     059F  00F4               	movwf	___lwmod@dividend
  5963     05A0  160A  118A  2221  120A  118A  	fcall	___lwmod
  5964     05A5  0872               	movf	?___lwmod,w
  5965     05A6  3E30               	addlw	48
  5966     05A7  160A  118A  21A2  120A  118A  	fcall	_clcd_putch
  5967                           
  5968                           ;login_screen.c: 143:             }
  5969     05AC  2DE5               	goto	l333
  5970     05AD                     l3591:
  5971                           
  5972                           ;login_screen.c: 145:             {;login_screen.c: 146:                 attempt = 3;
  5973     05AD  3003               	movlw	3
  5974     05AE  1683               	bsf	3,5	;RP0=1, select bank1
  5975     05AF  1303               	bcf	3,6	;RP1=0, select bank1
  5976     05B0  00DE               	movwf	login_screen@attempt^(0+128)
  5977     05B1  3000               	movlw	0
  5978     05B2  00DF               	movwf	(login_screen@attempt^(0+128)+1)
  5979     05B3                     l3593:
  5980                           
  5981                           ;login_screen.c: 147:                 i = 0;
  5982     05B3  1283               	bcf	3,5	;RP0=0, select bank0
  5983     05B4  1303               	bcf	3,6	;RP1=0, select bank0
  5984     05B5  01E3               	clrf	login_screen@i
  5985     05B6  01E4               	clrf	login_screen@i+1
  5986     05B7                     l3595:
  5987                           
  5988                           ;login_screen.c: 148:                 flag = 0;
  5989     05B7  1683               	bsf	3,5	;RP0=1, select bank1
  5990     05B8  1303               	bcf	3,6	;RP1=0, select bank1
  5991     05B9  01BC               	clrf	login_screen@flag^(0+128)
  5992     05BA  01BD               	clrf	(login_screen@flag+1)^(0+128)
  5993                           
  5994                           ;login_screen.c: 149:                 idle_prev_sec = sec;
  5995     05BB  1283               	bcf	3,5	;RP0=0, select bank0
  5996     05BC  1303               	bcf	3,6	;RP1=0, select bank0
  5997     05BD  0866               	movf	_sec+1,w	;volatile
  5998     05BE  1683               	bsf	3,5	;RP0=1, select bank1
  5999     05BF  1303               	bcf	3,6	;RP1=0, select bank1
  6000     05C0  00BF               	movwf	(login_screen@idle_prev_sec+1)^(0+128)
  6001     05C1  1283               	bcf	3,5	;RP0=0, select bank0
  6002     05C2  1303               	bcf	3,6	;RP1=0, select bank0
  6003     05C3  0865               	movf	_sec,w	;volatile
  6004     05C4  1683               	bsf	3,5	;RP0=1, select bank1
  6005     05C5  1303               	bcf	3,6	;RP1=0, select bank1
  6006     05C6  00BE               	movwf	login_screen@idle_prev_sec^(0+128)
  6007     05C7  2DE5               	goto	l333
  6008     05C8                     l3597:
  6009     05C8  3003               	movlw	3
  6010     05C9  063C               	xorwf	login_screen@flag^(0+128),w
  6011     05CA  043D               	iorwf	(login_screen@flag+1)^(0+128),w
  6012     05CB  1D03               	btfss	3,2
  6013     05CC  2DCE               	goto	u3591
  6014     05CD  2DCF               	goto	u3590
  6015     05CE                     u3591:
  6016     05CE  2DE5               	goto	l333
  6017     05CF                     u3590:
  6018     05CF                     l3599:
  6019                           
  6020                           ;login_screen.c: 156:     {;login_screen.c: 157:         if (key == 0x37)
  6021     05CF  3037               	movlw	55
  6022     05D0  1283               	bcf	3,5	;RP0=0, select bank0
  6023     05D1  1303               	bcf	3,6	;RP1=0, select bank0
  6024     05D2  062F               	xorwf	login_screen@key,w
  6025     05D3  1D03               	btfss	3,2
  6026     05D4  2DD6               	goto	u3601
  6027     05D5  2DD7               	goto	u3600
  6028     05D6                     u3601:
  6029     05D6  2DE5               	goto	l333
  6030     05D7                     u3600:
  6031     05D7                     l3601:
  6032                           
  6033                           ;login_screen.c: 158:         {;login_screen.c: 159:             flag = 0;
  6034     05D7  1683               	bsf	3,5	;RP0=1, select bank1
  6035     05D8  1303               	bcf	3,6	;RP1=0, select bank1
  6036     05D9  01BC               	clrf	login_screen@flag^(0+128)
  6037     05DA  01BD               	clrf	(login_screen@flag+1)^(0+128)
  6038                           
  6039                           ;login_screen.c: 160:             operation = 0;
  6040     05DB  1283               	bcf	3,5	;RP0=0, select bank0
  6041     05DC  1303               	bcf	3,6	;RP1=0, select bank0
  6042     05DD  01EB               	clrf	_operation
  6043                           
  6044                           ;login_screen.c: 161:             user_active = 0;
  6045     05DE  1683               	bsf	3,5	;RP0=1, select bank1
  6046     05DF  1303               	bcf	3,6	;RP1=0, select bank1
  6047     05E0  01C2               	clrf	login_screen@user_active^(0+128)
  6048     05E1  01C3               	clrf	(login_screen@user_active+1)^(0+128)
  6049                           
  6050                           ;login_screen.c: 162:             idle_count = 0;
  6051     05E2  01BA               	clrf	login_screen@idle_count^(0+128)
  6052     05E3  01BB               	clrf	(login_screen@idle_count+1)^(0+128)
  6053     05E4  2CC3               	goto	l3545
  6054     05E5                     l333:
  6055     05E5  0008               	return
  6056     05E6                     __end_of_login_screen:
  6057                           
  6058                           	psect	text7
  6059     1259                     __ptext7:	
  6060 ;; *************** function _init_config *****************
  6061 ;; Defined at:
  6062 ;;		line 23 in file "main.c"
  6063 ;; Parameters:    Size  Location     Type
  6064 ;;		None
  6065 ;; Auto vars:     Size  Location     Type
  6066 ;;		None
  6067 ;; Return value:  Size  Location     Type
  6068 ;;                  1    wreg      void 
  6069 ;; Registers used:
  6070 ;;		wreg, status,2, status,0, pclath, cstack
  6071 ;; Tracked objects:
  6072 ;;		On entry : 0/0
  6073 ;;		On exit  : 0/0
  6074 ;;		Unchanged: 0/0
  6075 ;; Data sizes:     COMMON   BANK0   BANK1   BANK3   BANK2
  6076 ;;      Params:         0       0       0       0       0
  6077 ;;      Locals:         0       0       0       0       0
  6078 ;;      Temps:          0       0       0       0       0
  6079 ;;      Totals:         0       0       0       0       0
  6080 ;;Total ram usage:        0 bytes
  6081 ;; Hardware stack levels used: 1
  6082 ;; Hardware stack levels required when called: 4
  6083 ;; This function calls:
  6084 ;;		_init_adc
  6085 ;;		_init_clcd
  6086 ;;		_init_digital_keypad
  6087 ;;		_init_ds1307
  6088 ;;		_init_i2c
  6089 ;;		_init_timer0
  6090 ;;		_init_uart
  6091 ;; This function is called by:
  6092 ;;		_main
  6093 ;; This function uses a non-reentrant model
  6094 ;;
  6095                           
  6096     1259                     _init_config:	
  6097                           ;psect for function _init_config
  6098                           
  6099     1259                     l3717:	
  6100                           ;incstack = 0
  6101                           ; Regs used in _init_config: [wreg+status,2+status,0+pclath+cstack]
  6102                           
  6103                           
  6104                           ;main.c: 25:     init_adc();
  6105     1259  160A  158A  2509  160A  118A  	fcall	_init_adc
  6106     125E                     l3719:
  6107                           
  6108                           ;main.c: 26:     init_clcd();
  6109     125E  160A  158A  2542  160A  118A  	fcall	_init_clcd
  6110     1263                     l3721:
  6111                           
  6112                           ;main.c: 27:     init_digital_keypad();
  6113     1263  160A  158A  2503  160A  118A  	fcall	_init_digital_keypad
  6114     1268                     l3723:
  6115                           
  6116                           ;main.c: 28:     init_i2c(100000);
  6117     1268  3000               	movlw	0
  6118     1269  1283               	bcf	3,5	;RP0=0, select bank0
  6119     126A  1303               	bcf	3,6	;RP1=0, select bank0
  6120     126B  00AB               	movwf	init_i2c@baud+3
  6121     126C  3001               	movlw	1
  6122     126D  00AA               	movwf	init_i2c@baud+2
  6123     126E  3086               	movlw	134
  6124     126F  00A9               	movwf	init_i2c@baud+1
  6125     1270  30A0               	movlw	160
  6126     1271  00A8               	movwf	init_i2c@baud
  6127     1272  160A  118A  21B7  160A  118A  	fcall	_init_i2c
  6128     1277                     l3725:
  6129                           
  6130                           ;main.c: 29:     init_uart(9600);
  6131     1277  3000               	movlw	0
  6132     1278  1283               	bcf	3,5	;RP0=0, select bank0
  6133     1279  1303               	bcf	3,6	;RP1=0, select bank0
  6134     127A  00AB               	movwf	init_uart@baud+3
  6135     127B  3000               	movlw	0
  6136     127C  00AA               	movwf	init_uart@baud+2
  6137     127D  3025               	movlw	37
  6138     127E  00A9               	movwf	init_uart@baud+1
  6139     127F  3080               	movlw	128
  6140     1280  00A8               	movwf	init_uart@baud
  6141     1281  160A  158A  27CD  160A  118A  	fcall	_init_uart
  6142     1286                     l3727:
  6143                           
  6144                           ;main.c: 30:     init_ds1307();
  6145     1286  160A  158A  259B  160A  118A  	fcall	_init_ds1307
  6146     128B                     l3729:
  6147                           
  6148                           ;main.c: 31:     init_timer0();
  6149     128B  160A  158A  254D  160A  118A  	fcall	_init_timer0
  6150     1290                     l3731:
  6151                           
  6152                           ;main.c: 32:     GIE = 1;
  6153     1290  178B               	bsf	11,7	;volatile
  6154     1291                     l440:
  6155     1291  0008               	return
  6156     1292                     __end_of_init_config:
  6157                           
  6158                           	psect	text8
  6159     1FCD                     __ptext8:	
  6160 ;; *************** function _init_uart *****************
  6161 ;; Defined at:
  6162 ;;		line 3 in file "uart.c"
  6163 ;; Parameters:    Size  Location     Type
  6164 ;;  baud            4    8[BANK0 ] unsigned long 
  6165 ;; Auto vars:     Size  Location     Type
  6166 ;;		None
  6167 ;; Return value:  Size  Location     Type
  6168 ;;                  1    wreg      void 
  6169 ;; Registers used:
  6170 ;;		wreg, status,2, status,0, pclath, cstack
  6171 ;; Tracked objects:
  6172 ;;		On entry : 0/0
  6173 ;;		On exit  : 0/0
  6174 ;;		Unchanged: 0/0
  6175 ;; Data sizes:     COMMON   BANK0   BANK1   BANK3   BANK2
  6176 ;;      Params:         0       4       0       0       0
  6177 ;;      Locals:         0       0       0       0       0
  6178 ;;      Temps:          0       4       0       0       0
  6179 ;;      Totals:         0       8       0       0       0
  6180 ;;Total ram usage:        8 bytes
  6181 ;; Hardware stack levels used: 1
  6182 ;; Hardware stack levels required when called: 2
  6183 ;; This function calls:
  6184 ;;		___lldiv
  6185 ;; This function is called by:
  6186 ;;		_init_config
  6187 ;; This function uses a non-reentrant model
  6188 ;;
  6189                           
  6190     1FCD                     _init_uart:	
  6191                           ;psect for function _init_uart
  6192                           
  6193     1FCD                     l2989:	
  6194                           ;incstack = 0
  6195                           ; Regs used in _init_uart: [wreg+status,2+status,0+pclath+cstack]
  6196                           
  6197                           
  6198                           ;uart.c: 3: void init_uart(unsigned long baud);uart.c: 4: {;uart.c: 6:     SPEN = 1;
  6199     1FCD  1283               	bcf	3,5	;RP0=0, select bank0
  6200     1FCE  1303               	bcf	3,6	;RP1=0, select bank0
  6201     1FCF  1798               	bsf	24,7	;volatile
  6202                           
  6203                           ;uart.c: 9:     CREN = 1;
  6204     1FD0  1618               	bsf	24,4	;volatile
  6205     1FD1                     l2991:
  6206                           
  6207                           ;uart.c: 12:     SPBRG = (20000000 / (16 * baud)) - 1;
  6208     1FD1  0828               	movf	init_uart@baud,w
  6209     1FD2  00AC               	movwf	??_init_uart
  6210     1FD3  0829               	movf	init_uart@baud+1,w
  6211     1FD4  00AD               	movwf	??_init_uart+1
  6212     1FD5  082A               	movf	init_uart@baud+2,w
  6213     1FD6  00AE               	movwf	??_init_uart+2
  6214     1FD7  082B               	movf	init_uart@baud+3,w
  6215     1FD8  00AF               	movwf	??_init_uart+3
  6216     1FD9  3004               	movlw	4
  6217     1FDA                     u2505:
  6218     1FDA  1003               	clrc
  6219     1FDB  0DAC               	rlf	??_init_uart,f
  6220     1FDC  0DAD               	rlf	??_init_uart+1,f
  6221     1FDD  0DAE               	rlf	??_init_uart+2,f
  6222     1FDE  0DAF               	rlf	??_init_uart+3,f
  6223     1FDF                     u2500:
  6224     1FDF  3EFF               	addlw	-1
  6225     1FE0  1D03               	skipz
  6226     1FE1  2FDA               	goto	u2505
  6227     1FE2  082F               	movf	??_init_uart+3,w
  6228     1FE3  00A3               	movwf	___lldiv@divisor+3
  6229     1FE4  082E               	movf	??_init_uart+2,w
  6230     1FE5  00A2               	movwf	___lldiv@divisor+2
  6231     1FE6  082D               	movf	??_init_uart+1,w
  6232     1FE7  00A1               	movwf	___lldiv@divisor+1
  6233     1FE8  082C               	movf	??_init_uart,w
  6234     1FE9  00A0               	movwf	___lldiv@divisor
  6235     1FEA  3001               	movlw	1
  6236     1FEB  00A7               	movwf	___lldiv@dividend+3
  6237     1FEC  3031               	movlw	49
  6238     1FED  00A6               	movwf	___lldiv@dividend+2
  6239     1FEE  302D               	movlw	45
  6240     1FEF  00A5               	movwf	___lldiv@dividend+1
  6241     1FF0  3000               	movlw	0
  6242     1FF1  00A4               	movwf	___lldiv@dividend
  6243     1FF2  160A  118A  2434  160A  158A  	fcall	___lldiv
  6244     1FF7  1283               	bcf	3,5	;RP0=0, select bank0
  6245     1FF8  1303               	bcf	3,6	;RP1=0, select bank0
  6246     1FF9  0820               	movf	?___lldiv,w
  6247     1FFA  3EFF               	addlw	255
  6248     1FFB  1683               	bsf	3,5	;RP0=1, select bank1
  6249     1FFC  1303               	bcf	3,6	;RP1=0, select bank1
  6250     1FFD  0099               	movwf	25	;volatile
  6251     1FFE                     l2993:
  6252                           
  6253                           ;uart.c: 15:     RCIE = 1;
  6254     1FFE  168C               	bsf	12,5	;volatile
  6255     1FFF                     l691:
  6256     1FFF  0008               	return
  6257     2000                     __end_of_init_uart:
  6258                           
  6259                           	psect	text9
  6260     1D4D                     __ptext9:	
  6261 ;; *************** function _init_timer0 *****************
  6262 ;; Defined at:
  6263 ;;		line 4 in file "Timer.c"
  6264 ;; Parameters:    Size  Location     Type
  6265 ;;		None
  6266 ;; Auto vars:     Size  Location     Type
  6267 ;;		None
  6268 ;; Return value:  Size  Location     Type
  6269 ;;                  1    wreg      void 
  6270 ;; Registers used:
  6271 ;;		None
  6272 ;; Tracked objects:
  6273 ;;		On entry : 0/0
  6274 ;;		On exit  : 0/0
  6275 ;;		Unchanged: 0/0
  6276 ;; Data sizes:     COMMON   BANK0   BANK1   BANK3   BANK2
  6277 ;;      Params:         0       0       0       0       0
  6278 ;;      Locals:         0       0       0       0       0
  6279 ;;      Temps:          0       0       0       0       0
  6280 ;;      Totals:         0       0       0       0       0
  6281 ;;Total ram usage:        0 bytes
  6282 ;; Hardware stack levels used: 1
  6283 ;; Hardware stack levels required when called: 1
  6284 ;; This function calls:
  6285 ;;		Nothing
  6286 ;; This function is called by:
  6287 ;;		_init_config
  6288 ;; This function uses a non-reentrant model
  6289 ;;
  6290                           
  6291     1D4D                     _init_timer0:	
  6292                           ;psect for function _init_timer0
  6293                           
  6294     1D4D                     l2995:	
  6295                           ;incstack = 0
  6296                           ; Regs used in _init_timer0: []
  6297                           
  6298                           
  6299                           ;Timer.c: 7:     T0CS = 0;
  6300     1D4D  1683               	bsf	3,5	;RP0=1, select bank1
  6301     1D4E  1303               	bcf	3,6	;RP1=0, select bank1
  6302     1D4F  1281               	bcf	1,5	;volatile
  6303                           
  6304                           ;Timer.c: 9:     PSA = 1;
  6305     1D50  1581               	bsf	1,3	;volatile
  6306                           
  6307                           ;Timer.c: 11:     TMR0 = 6;
  6308     1D51  3006               	movlw	6
  6309     1D52  1283               	bcf	3,5	;RP0=0, select bank0
  6310     1D53  1303               	bcf	3,6	;RP1=0, select bank0
  6311     1D54  0081               	movwf	1	;volatile
  6312                           
  6313                           ;Timer.c: 13:     TMR0IE = 1;
  6314     1D55  168B               	bsf	11,5	;volatile
  6315                           
  6316                           ;Timer.c: 15:     TMR0IF = 0;
  6317     1D56  110B               	bcf	11,2	;volatile
  6318     1D57                     l672:
  6319     1D57  0008               	return
  6320     1D58                     __end_of_init_timer0:
  6321                           
  6322                           	psect	text10
  6323     11B7                     __ptext10:	
  6324 ;; *************** function _init_i2c *****************
  6325 ;; Defined at:
  6326 ;;		line 4 in file "i2c.c"
  6327 ;; Parameters:    Size  Location     Type
  6328 ;;  baud            4    8[BANK0 ] unsigned long 
  6329 ;; Auto vars:     Size  Location     Type
  6330 ;;		None
  6331 ;; Return value:  Size  Location     Type
  6332 ;;                  1    wreg      void 
  6333 ;; Registers used:
  6334 ;;		wreg, status,2, status,0, pclath, cstack
  6335 ;; Tracked objects:
  6336 ;;		On entry : 0/0
  6337 ;;		On exit  : 0/0
  6338 ;;		Unchanged: 0/0
  6339 ;; Data sizes:     COMMON   BANK0   BANK1   BANK3   BANK2
  6340 ;;      Params:         0       4       0       0       0
  6341 ;;      Locals:         0       0       0       0       0
  6342 ;;      Temps:          0       4       0       0       0
  6343 ;;      Totals:         0       8       0       0       0
  6344 ;;Total ram usage:        8 bytes
  6345 ;; Hardware stack levels used: 1
  6346 ;; Hardware stack levels required when called: 2
  6347 ;; This function calls:
  6348 ;;		___lldiv
  6349 ;; This function is called by:
  6350 ;;		_init_config
  6351 ;; This function uses a non-reentrant model
  6352 ;;
  6353                           
  6354     11B7                     _init_i2c:	
  6355                           ;psect for function _init_i2c
  6356                           
  6357     11B7                     l2983:	
  6358                           ;incstack = 0
  6359                           ; Regs used in _init_i2c: [wreg+status,2+status,0+pclath+cstack]
  6360                           
  6361                           
  6362                           ;i2c.c: 4: void init_i2c(unsigned long baud);i2c.c: 5: {;i2c.c: 7:     SSPM3 = 1;
  6363     11B7  1283               	bcf	3,5	;RP0=0, select bank0
  6364     11B8  1303               	bcf	3,6	;RP1=0, select bank0
  6365     11B9  1594               	bsf	20,3	;volatile
  6366     11BA                     l2985:
  6367                           
  6368                           ;i2c.c: 10:     SSPADD = (unsigned char)(20000000 / (4 * baud)) - 1;
  6369     11BA  0828               	movf	init_i2c@baud,w
  6370     11BB  00AC               	movwf	??_init_i2c
  6371     11BC  0829               	movf	init_i2c@baud+1,w
  6372     11BD  00AD               	movwf	??_init_i2c+1
  6373     11BE  082A               	movf	init_i2c@baud+2,w
  6374     11BF  00AE               	movwf	??_init_i2c+2
  6375     11C0  082B               	movf	init_i2c@baud+3,w
  6376     11C1  00AF               	movwf	??_init_i2c+3
  6377     11C2  3002               	movlw	2
  6378     11C3                     u2495:
  6379     11C3  1003               	clrc
  6380     11C4  0DAC               	rlf	??_init_i2c,f
  6381     11C5  0DAD               	rlf	??_init_i2c+1,f
  6382     11C6  0DAE               	rlf	??_init_i2c+2,f
  6383     11C7  0DAF               	rlf	??_init_i2c+3,f
  6384     11C8                     u2490:
  6385     11C8  3EFF               	addlw	-1
  6386     11C9  1D03               	skipz
  6387     11CA  29C3               	goto	u2495
  6388     11CB  082F               	movf	??_init_i2c+3,w
  6389     11CC  00A3               	movwf	___lldiv@divisor+3
  6390     11CD  082E               	movf	??_init_i2c+2,w
  6391     11CE  00A2               	movwf	___lldiv@divisor+2
  6392     11CF  082D               	movf	??_init_i2c+1,w
  6393     11D0  00A1               	movwf	___lldiv@divisor+1
  6394     11D1  082C               	movf	??_init_i2c,w
  6395     11D2  00A0               	movwf	___lldiv@divisor
  6396     11D3  3001               	movlw	1
  6397     11D4  00A7               	movwf	___lldiv@dividend+3
  6398     11D5  3031               	movlw	49
  6399     11D6  00A6               	movwf	___lldiv@dividend+2
  6400     11D7  302D               	movlw	45
  6401     11D8  00A5               	movwf	___lldiv@dividend+1
  6402     11D9  3000               	movlw	0
  6403     11DA  00A4               	movwf	___lldiv@dividend
  6404     11DB  160A  118A  2434  160A  118A  	fcall	___lldiv
  6405     11E0  1283               	bcf	3,5	;RP0=0, select bank0
  6406     11E1  1303               	bcf	3,6	;RP1=0, select bank0
  6407     11E2  0820               	movf	?___lldiv,w
  6408     11E3  3EFF               	addlw	255
  6409     11E4  1683               	bsf	3,5	;RP0=1, select bank1
  6410     11E5  1303               	bcf	3,6	;RP1=0, select bank1
  6411     11E6  0093               	movwf	19	;volatile
  6412     11E7                     l2987:
  6413                           
  6414                           ;i2c.c: 13:     SSPEN = 1;
  6415     11E7  1283               	bcf	3,5	;RP0=0, select bank0
  6416     11E8  1303               	bcf	3,6	;RP1=0, select bank0
  6417     11E9  1694               	bsf	20,5	;volatile
  6418     11EA                     l233:
  6419     11EA  0008               	return
  6420     11EB                     __end_of_init_i2c:
  6421                           
  6422                           	psect	text11
  6423     1434                     __ptext11:	
  6424 ;; *************** function ___lldiv *****************
  6425 ;; Defined at:
  6426 ;;		line 5 in file "C:\Program Files\Microchip\xc8\v3.10\pic\sources\c99\common\__lldiv.c"
  6427 ;; Parameters:    Size  Location     Type
  6428 ;;  divisor         4    0[BANK0 ] unsigned long 
  6429 ;;  dividend        4    4[BANK0 ] unsigned long 
  6430 ;; Auto vars:     Size  Location     Type
  6431 ;;  quotient        4    3[COMMON] unsigned long 
  6432 ;;  counter         1    7[COMMON] unsigned char 
  6433 ;; Return value:  Size  Location     Type
  6434 ;;                  4    0[BANK0 ] unsigned long 
  6435 ;; Registers used:
  6436 ;;		wreg, status,2, status,0
  6437 ;; Tracked objects:
  6438 ;;		On entry : 0/0
  6439 ;;		On exit  : 0/0
  6440 ;;		Unchanged: 0/0
  6441 ;; Data sizes:     COMMON   BANK0   BANK1   BANK3   BANK2
  6442 ;;      Params:         0       8       0       0       0
  6443 ;;      Locals:         5       0       0       0       0
  6444 ;;      Temps:          1       0       0       0       0
  6445 ;;      Totals:         6       8       0       0       0
  6446 ;;Total ram usage:       14 bytes
  6447 ;; Hardware stack levels used: 1
  6448 ;; Hardware stack levels required when called: 1
  6449 ;; This function calls:
  6450 ;;		Nothing
  6451 ;; This function is called by:
  6452 ;;		_init_i2c
  6453 ;;		_init_uart
  6454 ;; This function uses a non-reentrant model
  6455 ;;
  6456                           
  6457     1434                     ___lldiv:	
  6458                           ;psect for function ___lldiv
  6459                           
  6460     1434                     l2847:	
  6461                           ;incstack = 0
  6462                           ; Regs used in ___lldiv: [wreg+status,2+status,0]
  6463                           
  6464     1434  3000               	movlw	0
  6465     1435  00F6               	movwf	___lldiv@quotient+3
  6466     1436  3000               	movlw	0
  6467     1437  00F5               	movwf	___lldiv@quotient+2
  6468     1438  3000               	movlw	0
  6469     1439  00F4               	movwf	___lldiv@quotient+1
  6470     143A  3000               	movlw	0
  6471     143B  00F3               	movwf	___lldiv@quotient
  6472     143C  1283               	bcf	3,5	;RP0=0, select bank0
  6473     143D  1303               	bcf	3,6	;RP1=0, select bank0
  6474     143E  0823               	movf	___lldiv@divisor+3,w
  6475     143F  0422               	iorwf	___lldiv@divisor+2,w
  6476     1440  0421               	iorwf	___lldiv@divisor+1,w
  6477     1441  0420               	iorwf	___lldiv@divisor,w
  6478     1442  1903               	skipnz
  6479     1443  2C45               	goto	u2281
  6480     1444  2C46               	goto	u2280
  6481     1445                     u2281:
  6482     1445  2C91               	goto	l2867
  6483     1446                     u2280:
  6484     1446                     l2849:
  6485     1446  3001               	movlw	1
  6486     1447  00F7               	movwf	___lldiv@counter
  6487     1448  2C54               	goto	l2853
  6488     1449                     l2851:
  6489     1449  3001               	movlw	1
  6490     144A  00F2               	movwf	??___lldiv
  6491     144B                     u2295:
  6492     144B  1003               	clrc
  6493     144C  0DA0               	rlf	___lldiv@divisor,f
  6494     144D  0DA1               	rlf	___lldiv@divisor+1,f
  6495     144E  0DA2               	rlf	___lldiv@divisor+2,f
  6496     144F  0DA3               	rlf	___lldiv@divisor+3,f
  6497     1450  0BF2               	decfsz	??___lldiv,f
  6498     1451  2C4B               	goto	u2295
  6499     1452  3001               	movlw	1
  6500     1453  07F7               	addwf	___lldiv@counter,f
  6501     1454                     l2853:
  6502     1454  1FA3               	btfss	___lldiv@divisor+3,7
  6503     1455  2C57               	goto	u2301
  6504     1456  2C58               	goto	u2300
  6505     1457                     u2301:
  6506     1457  2C49               	goto	l2851
  6507     1458                     u2300:
  6508     1458                     l2855:
  6509     1458  3001               	movlw	1
  6510     1459  00F2               	movwf	??___lldiv
  6511     145A                     u2315:
  6512     145A  1003               	clrc
  6513     145B  0DF3               	rlf	___lldiv@quotient,f
  6514     145C  0DF4               	rlf	___lldiv@quotient+1,f
  6515     145D  0DF5               	rlf	___lldiv@quotient+2,f
  6516     145E  0DF6               	rlf	___lldiv@quotient+3,f
  6517     145F  0BF2               	decfsz	??___lldiv,f
  6518     1460  2C5A               	goto	u2315
  6519     1461                     l2857:
  6520     1461  0823               	movf	___lldiv@divisor+3,w
  6521     1462  0227               	subwf	___lldiv@dividend+3,w
  6522     1463  1D03               	skipz
  6523     1464  2C6F               	goto	u2325
  6524     1465  0822               	movf	___lldiv@divisor+2,w
  6525     1466  0226               	subwf	___lldiv@dividend+2,w
  6526     1467  1D03               	skipz
  6527     1468  2C6F               	goto	u2325
  6528     1469  0821               	movf	___lldiv@divisor+1,w
  6529     146A  0225               	subwf	___lldiv@dividend+1,w
  6530     146B  1D03               	skipz
  6531     146C  2C6F               	goto	u2325
  6532     146D  0820               	movf	___lldiv@divisor,w
  6533     146E  0224               	subwf	___lldiv@dividend,w
  6534     146F                     u2325:
  6535     146F  1C03               	skipc
  6536     1470  2C72               	goto	u2321
  6537     1471  2C73               	goto	u2320
  6538     1472                     u2321:
  6539     1472  2C82               	goto	l2863
  6540     1473                     u2320:
  6541     1473                     l2859:
  6542     1473  0820               	movf	___lldiv@divisor,w
  6543     1474  02A4               	subwf	___lldiv@dividend,f
  6544     1475  0821               	movf	___lldiv@divisor+1,w
  6545     1476  1C03               	skipc
  6546     1477  0F21               	incfsz	___lldiv@divisor+1,w
  6547     1478  02A5               	subwf	___lldiv@dividend+1,f
  6548     1479  0822               	movf	___lldiv@divisor+2,w
  6549     147A  1C03               	skipc
  6550     147B  0F22               	incfsz	___lldiv@divisor+2,w
  6551     147C  02A6               	subwf	___lldiv@dividend+2,f
  6552     147D  0823               	movf	___lldiv@divisor+3,w
  6553     147E  1C03               	skipc
  6554     147F  0F23               	incfsz	___lldiv@divisor+3,w
  6555     1480  02A7               	subwf	___lldiv@dividend+3,f
  6556     1481                     l2861:
  6557     1481  1473               	bsf	___lldiv@quotient,0
  6558     1482                     l2863:
  6559     1482  3001               	movlw	1
  6560     1483                     u2335:
  6561     1483  1003               	clrc
  6562     1484  0CA3               	rrf	___lldiv@divisor+3,f
  6563     1485  0CA2               	rrf	___lldiv@divisor+2,f
  6564     1486  0CA1               	rrf	___lldiv@divisor+1,f
  6565     1487  0CA0               	rrf	___lldiv@divisor,f
  6566     1488  3EFF               	addlw	-1
  6567     1489  1D03               	skipz
  6568     148A  2C83               	goto	u2335
  6569     148B                     l2865:
  6570     148B  3001               	movlw	1
  6571     148C  02F7               	subwf	___lldiv@counter,f
  6572     148D  1D03               	btfss	3,2
  6573     148E  2C90               	goto	u2341
  6574     148F  2C91               	goto	u2340
  6575     1490                     u2341:
  6576     1490  2C58               	goto	l2855
  6577     1491                     u2340:
  6578     1491                     l2867:
  6579     1491  0876               	movf	___lldiv@quotient+3,w
  6580     1492  00A3               	movwf	?___lldiv+3
  6581     1493  0875               	movf	___lldiv@quotient+2,w
  6582     1494  00A2               	movwf	?___lldiv+2
  6583     1495  0874               	movf	___lldiv@quotient+1,w
  6584     1496  00A1               	movwf	?___lldiv+1
  6585     1497  0873               	movf	___lldiv@quotient,w
  6586     1498  00A0               	movwf	?___lldiv
  6587     1499                     l831:
  6588     1499  0008               	return
  6589     149A                     __end_of___lldiv:
  6590                           
  6591                           	psect	text12
  6592     1D9B                     __ptext12:	
  6593 ;; *************** function _init_ds1307 *****************
  6594 ;; Defined at:
  6595 ;;		line 4 in file "ds1307.c"
  6596 ;; Parameters:    Size  Location     Type
  6597 ;;		None
  6598 ;; Auto vars:     Size  Location     Type
  6599 ;;  dummy           1    4[BANK0 ] unsigned char 
  6600 ;; Return value:  Size  Location     Type
  6601 ;;                  1    wreg      void 
  6602 ;; Registers used:
  6603 ;;		wreg, status,2, status,0, pclath, cstack
  6604 ;; Tracked objects:
  6605 ;;		On entry : 0/0
  6606 ;;		On exit  : 0/0
  6607 ;;		Unchanged: 0/0
  6608 ;; Data sizes:     COMMON   BANK0   BANK1   BANK3   BANK2
  6609 ;;      Params:         0       0       0       0       0
  6610 ;;      Locals:         0       1       0       0       0
  6611 ;;      Temps:          0       0       0       0       0
  6612 ;;      Totals:         0       1       0       0       0
  6613 ;;Total ram usage:        1 bytes
  6614 ;; Hardware stack levels used: 1
  6615 ;; Hardware stack levels required when called: 3
  6616 ;; This function calls:
  6617 ;;		_read_ds1307
  6618 ;;		_write_ds1307
  6619 ;; This function is called by:
  6620 ;;		_init_config
  6621 ;; This function uses a non-reentrant model
  6622 ;;
  6623                           
  6624     1D9B                     _init_ds1307:	
  6625                           ;psect for function _init_ds1307
  6626                           
  6627     1D9B                     l2971:	
  6628                           ;incstack = 0
  6629                           ; Regs used in _init_ds1307: [wreg+status,2+status,0+pclath+cstack]
  6630                           
  6631                           
  6632                           ;ds1307.c: 6:     unsigned char dummy;;ds1307.c: 8:     dummy = read_ds1307(0x00);
  6633     1D9B  3000               	movlw	0
  6634     1D9C  160A  158A  26E5  160A  158A  	fcall	_read_ds1307
  6635     1DA1  1283               	bcf	3,5	;RP0=0, select bank0
  6636     1DA2  1303               	bcf	3,6	;RP1=0, select bank0
  6637     1DA3  00A4               	movwf	init_ds1307@dummy
  6638     1DA4                     l2973:
  6639                           
  6640                           ;ds1307.c: 9:     dummy = dummy & 0x7F;
  6641     1DA4  307F               	movlw	127
  6642     1DA5  05A4               	andwf	init_ds1307@dummy,f
  6643     1DA6                     l2975:
  6644                           
  6645                           ;ds1307.c: 10:     write_ds1307(0x00, dummy);
  6646     1DA6  0824               	movf	init_ds1307@dummy,w
  6647     1DA7  00F7               	movwf	write_ds1307@data
  6648     1DA8  3000               	movlw	0
  6649     1DA9  160A  158A  262E  160A  158A  	fcall	_write_ds1307
  6650     1DAE                     l161:
  6651     1DAE  0008               	return
  6652     1DAF                     __end_of_init_ds1307:
  6653                           
  6654                           	psect	text13
  6655     1E2E                     __ptext13:	
  6656 ;; *************** function _write_ds1307 *****************
  6657 ;; Defined at:
  6658 ;;		line 28 in file "ds1307.c"
  6659 ;; Parameters:    Size  Location     Type
  6660 ;;  addr            1    wreg     unsigned char 
  6661 ;;  data            1    7[COMMON] unsigned char 
  6662 ;; Auto vars:     Size  Location     Type
  6663 ;;  addr            1    3[BANK0 ] unsigned char 
  6664 ;; Return value:  Size  Location     Type
  6665 ;;                  1    wreg      void 
  6666 ;; Registers used:
  6667 ;;		wreg, status,2, status,0, pclath, cstack
  6668 ;; Tracked objects:
  6669 ;;		On entry : 0/0
  6670 ;;		On exit  : 0/0
  6671 ;;		Unchanged: 0/0
  6672 ;; Data sizes:     COMMON   BANK0   BANK1   BANK3   BANK2
  6673 ;;      Params:         1       0       0       0       0
  6674 ;;      Locals:         0       1       0       0       0
  6675 ;;      Temps:          0       0       0       0       0
  6676 ;;      Totals:         1       1       0       0       0
  6677 ;;Total ram usage:        2 bytes
  6678 ;; Hardware stack levels used: 1
  6679 ;; Hardware stack levels required when called: 1
  6680 ;; This function calls:
  6681 ;;		_i2c_start
  6682 ;;		_i2c_stop
  6683 ;;		_i2c_write
  6684 ;; This function is called by:
  6685 ;;		_init_ds1307
  6686 ;;		_set_time
  6687 ;; This function uses a non-reentrant model
  6688 ;;
  6689                           
  6690     1E2E                     _write_ds1307:	
  6691                           ;psect for function _write_ds1307
  6692                           
  6693                           
  6694                           ;incstack = 0
  6695                           ; Regs used in _write_ds1307: [wreg+status,2+status,0+pclath+cstack]
  6696                           ;write_ds1307@addr stored from wreg
  6697     1E2E  1283               	bcf	3,5	;RP0=0, select bank0
  6698     1E2F  1303               	bcf	3,6	;RP1=0, select bank0
  6699     1E30  00A3               	movwf	write_ds1307@addr
  6700     1E31                     l2837:
  6701                           
  6702                           ;ds1307.c: 28: void write_ds1307(unsigned char addr, unsigned char data);ds1307.c: 29: {
      +                          ;ds1307.c: 30:     i2c_start();
  6703     1E31  160A  158A  2518  160A  158A  	fcall	_i2c_start
  6704                           
  6705                           ;ds1307.c: 31:     i2c_write(0b11010000);
  6706     1E36  30D0               	movlw	208
  6707     1E37  160A  158A  252C  160A  158A  	fcall	_i2c_write
  6708                           
  6709                           ;ds1307.c: 32:     i2c_write(addr);
  6710     1E3C  1283               	bcf	3,5	;RP0=0, select bank0
  6711     1E3D  1303               	bcf	3,6	;RP1=0, select bank0
  6712     1E3E  0823               	movf	write_ds1307@addr,w
  6713     1E3F  160A  158A  252C  160A  158A  	fcall	_i2c_write
  6714                           
  6715                           ;ds1307.c: 33:     i2c_write(data);
  6716     1E44  0877               	movf	write_ds1307@data,w
  6717     1E45  160A  158A  252C  160A  158A  	fcall	_i2c_write
  6718                           
  6719                           ;ds1307.c: 34:     i2c_stop();
  6720     1E4A  120A  118A  27F7  160A  158A  	fcall	_i2c_stop
  6721     1E4F                     l167:
  6722     1E4F  0008               	return
  6723     1E50                     __end_of_write_ds1307:
  6724                           
  6725                           	psect	text14
  6726     1D03                     __ptext14:	
  6727 ;; *************** function _init_digital_keypad *****************
  6728 ;; Defined at:
  6729 ;;		line 4 in file "digital_keypad.c"
  6730 ;; Parameters:    Size  Location     Type
  6731 ;;		None
  6732 ;; Auto vars:     Size  Location     Type
  6733 ;;		None
  6734 ;; Return value:  Size  Location     Type
  6735 ;;                  1    wreg      void 
  6736 ;; Registers used:
  6737 ;;		wreg, status,2
  6738 ;; Tracked objects:
  6739 ;;		On entry : 0/0
  6740 ;;		On exit  : 0/0
  6741 ;;		Unchanged: 0/0
  6742 ;; Data sizes:     COMMON   BANK0   BANK1   BANK3   BANK2
  6743 ;;      Params:         0       0       0       0       0
  6744 ;;      Locals:         0       0       0       0       0
  6745 ;;      Temps:          0       0       0       0       0
  6746 ;;      Totals:         0       0       0       0       0
  6747 ;;Total ram usage:        0 bytes
  6748 ;; Hardware stack levels used: 1
  6749 ;; Hardware stack levels required when called: 1
  6750 ;; This function calls:
  6751 ;;		Nothing
  6752 ;; This function is called by:
  6753 ;;		_init_config
  6754 ;; This function uses a non-reentrant model
  6755 ;;
  6756                           
  6757     1D03                     _init_digital_keypad:	
  6758                           ;psect for function _init_digital_keypad
  6759                           
  6760     1D03                     l2969:	
  6761                           ;incstack = 0
  6762                           ; Regs used in _init_digital_keypad: [wreg+status,2]
  6763                           
  6764                           
  6765                           ;digital_keypad.c: 7:     TRISB = TRISB | 0x3F;
  6766     1D03  1683               	bsf	3,5	;RP0=1, select bank1
  6767     1D04  1303               	bcf	3,6	;RP1=0, select bank1
  6768     1D05  0806               	movf	6,w	;volatile
  6769     1D06  383F               	iorlw	63
  6770     1D07  0086               	movwf	6	;volatile
  6771     1D08                     l130:
  6772     1D08  0008               	return
  6773     1D09                     __end_of_init_digital_keypad:
  6774                           
  6775                           	psect	text15
  6776     1D42                     __ptext15:	
  6777 ;; *************** function _init_clcd *****************
  6778 ;; Defined at:
  6779 ;;		line 44 in file "clcd.c"
  6780 ;; Parameters:    Size  Location     Type
  6781 ;;		None
  6782 ;; Auto vars:     Size  Location     Type
  6783 ;;		None
  6784 ;; Return value:  Size  Location     Type
  6785 ;;                  1    wreg      void 
  6786 ;; Registers used:
  6787 ;;		wreg, status,2, status,0, pclath, cstack
  6788 ;; Tracked objects:
  6789 ;;		On entry : 0/0
  6790 ;;		On exit  : 0/0
  6791 ;;		Unchanged: 0/0
  6792 ;; Data sizes:     COMMON   BANK0   BANK1   BANK3   BANK2
  6793 ;;      Params:         0       0       0       0       0
  6794 ;;      Locals:         0       0       0       0       0
  6795 ;;      Temps:          0       0       0       0       0
  6796 ;;      Totals:         0       0       0       0       0
  6797 ;;Total ram usage:        0 bytes
  6798 ;; Hardware stack levels used: 1
  6799 ;; Hardware stack levels required when called: 3
  6800 ;; This function calls:
  6801 ;;		_init_display_controller
  6802 ;; This function is called by:
  6803 ;;		_init_config
  6804 ;; This function uses a non-reentrant model
  6805 ;;
  6806                           
  6807     1D42                     _init_clcd:	
  6808                           ;psect for function _init_clcd
  6809                           
  6810     1D42                     l2881:	
  6811                           ;incstack = 0
  6812                           ; Regs used in _init_clcd: [wreg+status,2+status,0+pclath+cstack]
  6813                           
  6814                           
  6815                           ;clcd.c: 47:     TRISD = 0x00;
  6816     1D42  1683               	bsf	3,5	;RP0=1, select bank1
  6817     1D43  1303               	bcf	3,6	;RP1=0, select bank1
  6818     1D44  0188               	clrf	8	;volatile
  6819     1D45                     l2883:
  6820                           
  6821                           ;clcd.c: 50:     TRISE2 = 0;
  6822     1D45  1109               	bcf	9,2	;volatile
  6823     1D46                     l2885:
  6824                           
  6825                           ;clcd.c: 51:     TRISE1 = 0;
  6826     1D46  1089               	bcf	9,1	;volatile
  6827     1D47                     l2887:
  6828                           
  6829                           ;clcd.c: 53:     init_display_controller();
  6830     1D47  160A  118A  236C  160A  158A  	fcall	_init_display_controller
  6831     1D4C                     l46:
  6832     1D4C  0008               	return
  6833     1D4D                     __end_of_init_clcd:
  6834                           
  6835                           	psect	text16
  6836     136C                     __ptext16:	
  6837 ;; *************** function _init_display_controller *****************
  6838 ;; Defined at:
  6839 ;;		line 21 in file "clcd.c"
  6840 ;; Parameters:    Size  Location     Type
  6841 ;;		None
  6842 ;; Auto vars:     Size  Location     Type
  6843 ;;		None
  6844 ;; Return value:  Size  Location     Type
  6845 ;;                  1    wreg      void 
  6846 ;; Registers used:
  6847 ;;		wreg, status,2, status,0, pclath, cstack
  6848 ;; Tracked objects:
  6849 ;;		On entry : 0/0
  6850 ;;		On exit  : 0/0
  6851 ;;		Unchanged: 0/0
  6852 ;; Data sizes:     COMMON   BANK0   BANK1   BANK3   BANK2
  6853 ;;      Params:         0       0       0       0       0
  6854 ;;      Locals:         0       0       0       0       0
  6855 ;;      Temps:          2       0       0       0       0
  6856 ;;      Totals:         2       0       0       0       0
  6857 ;;Total ram usage:        2 bytes
  6858 ;; Hardware stack levels used: 1
  6859 ;; Hardware stack levels required when called: 2
  6860 ;; This function calls:
  6861 ;;		_clcd_write
  6862 ;; This function is called by:
  6863 ;;		_init_clcd
  6864 ;; This function uses a non-reentrant model
  6865 ;;
  6866                           
  6867     136C                     _init_display_controller:	
  6868                           ;psect for function _init_display_controller
  6869                           
  6870     136C                     l2799:	
  6871                           ;incstack = 0
  6872                           ; Regs used in _init_display_controller: [wreg+status,2+status,0+pclath+cstack]
  6873                           
  6874                           
  6875                           ;clcd.c: 24:     _delay((unsigned long)((30)*(20000000/4000.0)));
  6876     136C  30C3               	movlw	195
  6877     136D  00F7               	movwf	??_init_display_controller+1
  6878     136E  30CD               	movlw	205
  6879     136F  00F6               	movwf	??_init_display_controller
  6880     1370                     u4637:
  6881     1370  0BF6               	decfsz	??_init_display_controller,f
  6882     1371  2B70               	goto	u4637
  6883     1372  0BF7               	decfsz	??_init_display_controller+1,f
  6884     1373  2B70               	goto	u4637
  6885     1374                     l2801:
  6886                           
  6887                           ;clcd.c: 27:     clcd_write(0x33, 0);
  6888     1374  01F2               	clrf	clcd_write@mode
  6889     1375  3033               	movlw	51
  6890     1376  160A  118A  21EB  160A  118A  	fcall	_clcd_write
  6891     137B                     l2803:
  6892                           
  6893                           ;clcd.c: 28:     _delay((unsigned long)((4100)*(20000000/4000000.0)));
  6894     137B  301B               	movlw	27
  6895     137C  00F7               	movwf	??_init_display_controller+1
  6896     137D  309E               	movlw	158
  6897     137E  00F6               	movwf	??_init_display_controller
  6898     137F                     u4647:
  6899     137F  0BF6               	decfsz	??_init_display_controller,f
  6900     1380  2B7F               	goto	u4647
  6901     1381  0BF7               	decfsz	??_init_display_controller+1,f
  6902     1382  2B7F               	goto	u4647
  6903     1383  0000               	nop
  6904                           
  6905                           ;clcd.c: 29:     clcd_write(0x33, 0);
  6906     1384  01F2               	clrf	clcd_write@mode
  6907     1385  3033               	movlw	51
  6908     1386  160A  118A  21EB  160A  118A  	fcall	_clcd_write
  6909     138B                     l2805:
  6910                           
  6911                           ;clcd.c: 30:     _delay((unsigned long)((100)*(20000000/4000000.0)));
  6912     138B  30A6               	movlw	166
  6913     138C  00F6               	movwf	??_init_display_controller
  6914     138D                     u4657:
  6915     138D  0BF6               	decfsz	??_init_display_controller,f
  6916     138E  2B8D               	goto	u4657
  6917     138F  0000               	nop
  6918     1390                     l2807:
  6919                           
  6920                           ;clcd.c: 31:     clcd_write(0x33, 0);
  6921     1390  01F2               	clrf	clcd_write@mode
  6922     1391  3033               	movlw	51
  6923     1392  160A  118A  21EB  160A  118A  	fcall	_clcd_write
  6924     1397                     l2809:
  6925                           
  6926                           ;clcd.c: 32:     _delay((unsigned long)((1)*(20000000/4000000.0)));
  6927     1397  2B98               	nop2	;2 cycle nop
  6928     1398  2B99               	nop2	;2 cycle nop
  6929     1399  0000               	nop
  6930     139A                     l2811:
  6931                           
  6932                           ;clcd.c: 34:     clcd_write(0x02, 0);
  6933     139A  01F2               	clrf	clcd_write@mode
  6934     139B  3002               	movlw	2
  6935     139C  160A  118A  21EB  160A  118A  	fcall	_clcd_write
  6936     13A1                     l2813:
  6937                           
  6938                           ;clcd.c: 35:     _delay((unsigned long)((100)*(20000000/4000000.0)));
  6939     13A1  30A6               	movlw	166
  6940     13A2  00F6               	movwf	??_init_display_controller
  6941     13A3                     u4667:
  6942     13A3  0BF6               	decfsz	??_init_display_controller,f
  6943     13A4  2BA3               	goto	u4667
  6944     13A5  0000               	nop
  6945                           
  6946                           ;clcd.c: 36:     clcd_write(0x28, 0);
  6947     13A6  01F2               	clrf	clcd_write@mode
  6948     13A7  3028               	movlw	40
  6949     13A8  160A  118A  21EB  160A  118A  	fcall	_clcd_write
  6950     13AD                     l2815:
  6951                           
  6952                           ;clcd.c: 37:     _delay((unsigned long)((100)*(20000000/4000000.0)));
  6953     13AD  30A6               	movlw	166
  6954     13AE  00F6               	movwf	??_init_display_controller
  6955     13AF                     u4677:
  6956     13AF  0BF6               	decfsz	??_init_display_controller,f
  6957     13B0  2BAF               	goto	u4677
  6958     13B1  0000               	nop
  6959     13B2                     l2817:
  6960                           
  6961                           ;clcd.c: 38:     clcd_write(0x01, 0);
  6962     13B2  01F2               	clrf	clcd_write@mode
  6963     13B3  3001               	movlw	1
  6964     13B4  160A  118A  21EB  160A  118A  	fcall	_clcd_write
  6965                           
  6966                           ;clcd.c: 39:     _delay((unsigned long)((500)*(20000000/4000000.0)));
  6967     13B9  3004               	movlw	4
  6968     13BA  00F7               	movwf	??_init_display_controller+1
  6969     13BB  303D               	movlw	61
  6970     13BC  00F6               	movwf	??_init_display_controller
  6971     13BD                     u4687:
  6972     13BD  0BF6               	decfsz	??_init_display_controller,f
  6973     13BE  2BBD               	goto	u4687
  6974     13BF  0BF7               	decfsz	??_init_display_controller+1,f
  6975     13C0  2BBD               	goto	u4687
  6976     13C1  2BC2               	nop2
  6977     13C2                     l2819:
  6978                           
  6979                           ;clcd.c: 40:     clcd_write(0x0C, 0);
  6980     13C2  01F2               	clrf	clcd_write@mode
  6981     13C3  300C               	movlw	12
  6982     13C4  160A  118A  21EB  160A  118A  	fcall	_clcd_write
  6983     13C9                     l2821:
  6984                           
  6985                           ;clcd.c: 41:     _delay((unsigned long)((100)*(20000000/4000000.0)));
  6986     13C9  30A6               	movlw	166
  6987     13CA  00F6               	movwf	??_init_display_controller
  6988     13CB                     u4697:
  6989     13CB  0BF6               	decfsz	??_init_display_controller,f
  6990     13CC  2BCB               	goto	u4697
  6991     13CD  0000               	nop
  6992     13CE                     l43:
  6993     13CE  0008               	return
  6994     13CF                     __end_of_init_display_controller:
  6995                           
  6996                           	psect	text17
  6997     1D09                     __ptext17:	
  6998 ;; *************** function _init_adc *****************
  6999 ;; Defined at:
  7000 ;;		line 4 in file "adc.c"
  7001 ;; Parameters:    Size  Location     Type
  7002 ;;		None
  7003 ;; Auto vars:     Size  Location     Type
  7004 ;;		None
  7005 ;; Return value:  Size  Location     Type
  7006 ;;                  1    wreg      void 
  7007 ;; Registers used:
  7008 ;;		None
  7009 ;; Tracked objects:
  7010 ;;		On entry : 0/0
  7011 ;;		On exit  : 0/0
  7012 ;;		Unchanged: 0/0
  7013 ;; Data sizes:     COMMON   BANK0   BANK1   BANK3   BANK2
  7014 ;;      Params:         0       0       0       0       0
  7015 ;;      Locals:         0       0       0       0       0
  7016 ;;      Temps:          0       0       0       0       0
  7017 ;;      Totals:         0       0       0       0       0
  7018 ;;Total ram usage:        0 bytes
  7019 ;; Hardware stack levels used: 1
  7020 ;; Hardware stack levels required when called: 1
  7021 ;; This function calls:
  7022 ;;		Nothing
  7023 ;; This function is called by:
  7024 ;;		_init_config
  7025 ;; This function uses a non-reentrant model
  7026 ;;
  7027                           
  7028     1D09                     _init_adc:	
  7029                           ;psect for function _init_adc
  7030                           
  7031     1D09                     l2871:	
  7032                           ;incstack = 0
  7033                           ; Regs used in _init_adc: []
  7034                           
  7035                           
  7036                           ;adc.c: 7:     ADFM = 1;
  7037     1D09  1683               	bsf	3,5	;RP0=1, select bank1
  7038     1D0A  1303               	bcf	3,6	;RP1=0, select bank1
  7039     1D0B  179F               	bsf	31,7	;volatile
  7040                           
  7041                           ;adc.c: 10:     ADON = 1;
  7042     1D0C  1283               	bcf	3,5	;RP0=0, select bank0
  7043     1D0D  1303               	bcf	3,6	;RP1=0, select bank0
  7044     1D0E  141F               	bsf	31,0	;volatile
  7045     1D0F                     l17:
  7046     1D0F  0008               	return
  7047     1D10                     __end_of_init_adc:
  7048                           
  7049                           	psect	text18
  7050     081C                     __ptext18:	
  7051 ;; *************** function _down_log *****************
  7052 ;; Defined at:
  7053 ;;		line 121 in file "menu_actions.c"
  7054 ;; Parameters:    Size  Location     Type
  7055 ;;		None
  7056 ;; Auto vars:     Size  Location     Type
  7057 ;;  i               2   22[BANK0 ] int 
  7058 ;;  line           17    5[BANK0 ] unsigned char [17]
  7059 ;;  addr            2   24[BANK0 ] unsigned int 
  7060 ;; Return value:  Size  Location     Type
  7061 ;;                  1    wreg      void 
  7062 ;; Registers used:
  7063 ;;		wreg, fsr0l, fsr0h, status,2, status,0, pclath, btemp1, cstack
  7064 ;; Tracked objects:
  7065 ;;		On entry : 0/0
  7066 ;;		On exit  : 0/0
  7067 ;;		Unchanged: 0/0
  7068 ;; Data sizes:     COMMON   BANK0   BANK1   BANK3   BANK2
  7069 ;;      Params:         0       0       0       0       0
  7070 ;;      Locals:         0      21       0       0       0
  7071 ;;      Temps:          0       2       0       0       0
  7072 ;;      Totals:         0      23       0       0       0
  7073 ;;Total ram usage:       23 bytes
  7074 ;; Hardware stack levels used: 1
  7075 ;; Hardware stack levels required when called: 3
  7076 ;; This function calls:
  7077 ;;		___wmul
  7078 ;;		_clcd_print
  7079 ;;		_puts
  7080 ;;		_read_external_eeprom
  7081 ;; This function is called by:
  7082 ;;		_main
  7083 ;; This function uses a non-reentrant model
  7084 ;;
  7085                           
  7086     081C                     _down_log:	
  7087                           ;psect for function _down_log
  7088                           
  7089     081C                     l3841:	
  7090                           ;incstack = 0
  7091                           ; Regs used in _down_log: [wreg-fsr0h+status,2+status,0+pclath+btemp1+cstack]
  7092                           
  7093     081C                     l3843:
  7094                           
  7095                           ;menu_actions.c: 128:     if (once)
  7096     081C  1683               	bsf	3,5	;RP0=1, select bank1
  7097     081D  1303               	bcf	3,6	;RP1=0, select bank1
  7098     081E  0867               	movf	down_log@once^(0+128),w
  7099     081F  1903               	btfsc	3,2
  7100     0820  2822               	goto	u3891
  7101     0821  2823               	goto	u3890
  7102     0822                     u3891:
  7103     0822  293D               	goto	l3919
  7104     0823                     u3890:
  7105     0823                     l3845:
  7106                           
  7107                           ;menu_actions.c: 129:     {;menu_actions.c: 130:         clcd_print("  THE LOGS ARE  ", 
      +                          (0x80 + 0));
  7108     0823  306B               	movlw	low (STR_28| (0+32768))
  7109     0824  1283               	bcf	3,5	;RP0=0, select bank0
  7110     0825  1303               	bcf	3,6	;RP1=0, select bank0
  7111     0826  00A0               	movwf	clcd_print@str
  7112     0827  3090               	movlw	high (STR_28| (0+32768))
  7113     0828  00A1               	movwf	clcd_print@str+1
  7114     0829  3080               	movlw	128
  7115     082A  00A2               	movwf	clcd_print@addr
  7116     082B  160A  158A  279A  120A  158A  	fcall	_clcd_print
  7117                           
  7118                           ;menu_actions.c: 131:         clcd_print("  DOWNLOADING   ", (0xC0 + 0));
  7119     0830  305A               	movlw	low (STR_29| (0+32768))
  7120     0831  1283               	bcf	3,5	;RP0=0, select bank0
  7121     0832  1303               	bcf	3,6	;RP1=0, select bank0
  7122     0833  00A0               	movwf	clcd_print@str
  7123     0834  3090               	movlw	high (STR_29| (0+32768))
  7124     0835  00A1               	movwf	clcd_print@str+1
  7125     0836  30C0               	movlw	192
  7126     0837  00A2               	movwf	clcd_print@addr
  7127     0838  160A  158A  279A  120A  158A  	fcall	_clcd_print
  7128                           
  7129                           ;menu_actions.c: 133:         puts("# TIME     EV SP\r\n");
  7130     083D  3000               	movlw	low (STR_30| (0+32768))
  7131     083E  00F3               	movwf	puts@s
  7132     083F  3090               	movlw	high (STR_30| (0+32768))
  7133     0840  00F4               	movwf	puts@s+1
  7134     0841  160A  158A  2697  120A  158A  	fcall	_puts
  7135     0846                     l3847:
  7136                           
  7137                           ;menu_actions.c: 135:         for (int i = 0; i < event_count; i++)
  7138     0846  1283               	bcf	3,5	;RP0=0, select bank0
  7139     0847  1303               	bcf	3,6	;RP1=0, select bank0
  7140     0848  01B6               	clrf	down_log@i
  7141     0849  01B7               	clrf	down_log@i+1
  7142     084A  291E               	goto	l3911
  7143     084B                     l3849:
  7144                           
  7145                           ;menu_actions.c: 136:         {;menu_actions.c: 137:             addr = i * 10;
  7146     084B  1283               	bcf	3,5	;RP0=0, select bank0
  7147     084C  1303               	bcf	3,6	;RP1=0, select bank0
  7148     084D  0837               	movf	down_log@i+1,w
  7149     084E  00F3               	movwf	___wmul@multiplier+1
  7150     084F  0836               	movf	down_log@i,w
  7151     0850  00F2               	movwf	___wmul@multiplier
  7152     0851  300A               	movlw	10
  7153     0852  00F4               	movwf	___wmul@multiplicand
  7154     0853  3000               	movlw	0
  7155     0854  00F5               	movwf	___wmul@multiplicand+1
  7156     0855  160A  158A  2672  120A  158A  	fcall	___wmul
  7157     085A  0873               	movf	?___wmul+1,w
  7158     085B  1283               	bcf	3,5	;RP0=0, select bank0
  7159     085C  1303               	bcf	3,6	;RP1=0, select bank0
  7160     085D  00B9               	movwf	down_log@addr+1
  7161     085E  0872               	movf	?___wmul,w
  7162     085F  00B8               	movwf	down_log@addr
  7163     0860                     l3851:
  7164                           
  7165                           ;menu_actions.c: 139:             line[0] = i + '0';
  7166     0860  0836               	movf	down_log@i,w
  7167     0861  3E30               	addlw	48
  7168     0862  00A5               	movwf	down_log@line
  7169     0863                     l3853:
  7170                           
  7171                           ;menu_actions.c: 140:             line[1] = ' ';
  7172     0863  3020               	movlw	32
  7173     0864  00A6               	movwf	down_log@line+1
  7174     0865                     l3855:
  7175                           
  7176                           ;menu_actions.c: 142:             line[2] = read_external_eeprom(addr++);
  7177     0865  0838               	movf	down_log@addr,w
  7178     0866  160A  158A  2710  120A  158A  	fcall	_read_external_eeprom
  7179     086B  1283               	bcf	3,5	;RP0=0, select bank0
  7180     086C  1303               	bcf	3,6	;RP1=0, select bank0
  7181     086D  00A7               	movwf	down_log@line+2
  7182     086E                     l3857:
  7183     086E  3001               	movlw	1
  7184     086F  07B8               	addwf	down_log@addr,f
  7185     0870  1803               	skipnc
  7186     0871  0AB9               	incf	down_log@addr+1,f
  7187     0872  3000               	movlw	0
  7188     0873  07B9               	addwf	down_log@addr+1,f
  7189     0874                     l3859:
  7190                           
  7191                           ;menu_actions.c: 143:             line[3] = read_external_eeprom(addr++);
  7192     0874  0838               	movf	down_log@addr,w
  7193     0875  160A  158A  2710  120A  158A  	fcall	_read_external_eeprom
  7194     087A  1283               	bcf	3,5	;RP0=0, select bank0
  7195     087B  1303               	bcf	3,6	;RP1=0, select bank0
  7196     087C  00A8               	movwf	down_log@line+3
  7197     087D                     l3861:
  7198     087D  3001               	movlw	1
  7199     087E  07B8               	addwf	down_log@addr,f
  7200     087F  1803               	skipnc
  7201     0880  0AB9               	incf	down_log@addr+1,f
  7202     0881  3000               	movlw	0
  7203     0882  07B9               	addwf	down_log@addr+1,f
  7204     0883                     l3863:
  7205                           
  7206                           ;menu_actions.c: 144:             line[4] = ':';
  7207     0883  303A               	movlw	58
  7208     0884  00A9               	movwf	down_log@line+4
  7209     0885                     l3865:
  7210                           
  7211                           ;menu_actions.c: 145:             line[5] = read_external_eeprom(addr++);
  7212     0885  0838               	movf	down_log@addr,w
  7213     0886  160A  158A  2710  120A  158A  	fcall	_read_external_eeprom
  7214     088B  1283               	bcf	3,5	;RP0=0, select bank0
  7215     088C  1303               	bcf	3,6	;RP1=0, select bank0
  7216     088D  00AA               	movwf	down_log@line+5
  7217     088E                     l3867:
  7218     088E  3001               	movlw	1
  7219     088F  07B8               	addwf	down_log@addr,f
  7220     0890  1803               	skipnc
  7221     0891  0AB9               	incf	down_log@addr+1,f
  7222     0892  3000               	movlw	0
  7223     0893  07B9               	addwf	down_log@addr+1,f
  7224     0894                     l3869:
  7225                           
  7226                           ;menu_actions.c: 146:             line[6] = read_external_eeprom(addr++);
  7227     0894  0838               	movf	down_log@addr,w
  7228     0895  160A  158A  2710  120A  158A  	fcall	_read_external_eeprom
  7229     089A  1283               	bcf	3,5	;RP0=0, select bank0
  7230     089B  1303               	bcf	3,6	;RP1=0, select bank0
  7231     089C  00AB               	movwf	down_log@line+6
  7232     089D                     l3871:
  7233     089D  3001               	movlw	1
  7234     089E  07B8               	addwf	down_log@addr,f
  7235     089F  1803               	skipnc
  7236     08A0  0AB9               	incf	down_log@addr+1,f
  7237     08A1  3000               	movlw	0
  7238     08A2  07B9               	addwf	down_log@addr+1,f
  7239     08A3                     l3873:
  7240                           
  7241                           ;menu_actions.c: 147:             line[7] = ':';
  7242     08A3  303A               	movlw	58
  7243     08A4  00AC               	movwf	down_log@line+7
  7244     08A5                     l3875:
  7245                           
  7246                           ;menu_actions.c: 148:             line[8] = read_external_eeprom(addr++);
  7247     08A5  0838               	movf	down_log@addr,w
  7248     08A6  160A  158A  2710  120A  158A  	fcall	_read_external_eeprom
  7249     08AB  1283               	bcf	3,5	;RP0=0, select bank0
  7250     08AC  1303               	bcf	3,6	;RP1=0, select bank0
  7251     08AD  00AD               	movwf	down_log@line+8
  7252     08AE                     l3877:
  7253     08AE  3001               	movlw	1
  7254     08AF  07B8               	addwf	down_log@addr,f
  7255     08B0  1803               	skipnc
  7256     08B1  0AB9               	incf	down_log@addr+1,f
  7257     08B2  3000               	movlw	0
  7258     08B3  07B9               	addwf	down_log@addr+1,f
  7259     08B4                     l3879:
  7260                           
  7261                           ;menu_actions.c: 149:             line[9] = read_external_eeprom(addr++);
  7262     08B4  0838               	movf	down_log@addr,w
  7263     08B5  160A  158A  2710  120A  158A  	fcall	_read_external_eeprom
  7264     08BA  1283               	bcf	3,5	;RP0=0, select bank0
  7265     08BB  1303               	bcf	3,6	;RP1=0, select bank0
  7266     08BC  00AE               	movwf	down_log@line+9
  7267     08BD                     l3881:
  7268     08BD  3001               	movlw	1
  7269     08BE  07B8               	addwf	down_log@addr,f
  7270     08BF  1803               	skipnc
  7271     08C0  0AB9               	incf	down_log@addr+1,f
  7272     08C1  3000               	movlw	0
  7273     08C2  07B9               	addwf	down_log@addr+1,f
  7274     08C3                     l3883:
  7275                           
  7276                           ;menu_actions.c: 151:             line[10] = ' ';
  7277     08C3  3020               	movlw	32
  7278     08C4  00AF               	movwf	down_log@line+10
  7279     08C5                     l3885:
  7280                           
  7281                           ;menu_actions.c: 152:             line[11] = read_external_eeprom(addr++);
  7282     08C5  0838               	movf	down_log@addr,w
  7283     08C6  160A  158A  2710  120A  158A  	fcall	_read_external_eeprom
  7284     08CB  1283               	bcf	3,5	;RP0=0, select bank0
  7285     08CC  1303               	bcf	3,6	;RP1=0, select bank0
  7286     08CD  00B0               	movwf	down_log@line+11
  7287     08CE                     l3887:
  7288     08CE  3001               	movlw	1
  7289     08CF  07B8               	addwf	down_log@addr,f
  7290     08D0  1803               	skipnc
  7291     08D1  0AB9               	incf	down_log@addr+1,f
  7292     08D2  3000               	movlw	0
  7293     08D3  07B9               	addwf	down_log@addr+1,f
  7294     08D4                     l3889:
  7295                           
  7296                           ;menu_actions.c: 153:             line[12] = read_external_eeprom(addr++);
  7297     08D4  0838               	movf	down_log@addr,w
  7298     08D5  160A  158A  2710  120A  158A  	fcall	_read_external_eeprom
  7299     08DA  1283               	bcf	3,5	;RP0=0, select bank0
  7300     08DB  1303               	bcf	3,6	;RP1=0, select bank0
  7301     08DC  00B1               	movwf	down_log@line+12
  7302     08DD                     l3891:
  7303     08DD  3001               	movlw	1
  7304     08DE  07B8               	addwf	down_log@addr,f
  7305     08DF  1803               	skipnc
  7306     08E0  0AB9               	incf	down_log@addr+1,f
  7307     08E1  3000               	movlw	0
  7308     08E2  07B9               	addwf	down_log@addr+1,f
  7309     08E3                     l3893:
  7310                           
  7311                           ;menu_actions.c: 155:             line[13] = ' ';
  7312     08E3  3020               	movlw	32
  7313     08E4  00B2               	movwf	down_log@line+13
  7314     08E5                     l3895:
  7315                           
  7316                           ;menu_actions.c: 156:             line[14] = read_external_eeprom(addr++);
  7317     08E5  0838               	movf	down_log@addr,w
  7318     08E6  160A  158A  2710  120A  158A  	fcall	_read_external_eeprom
  7319     08EB  1283               	bcf	3,5	;RP0=0, select bank0
  7320     08EC  1303               	bcf	3,6	;RP1=0, select bank0
  7321     08ED  00B3               	movwf	down_log@line+14
  7322     08EE                     l3897:
  7323     08EE  3001               	movlw	1
  7324     08EF  07B8               	addwf	down_log@addr,f
  7325     08F0  1803               	skipnc
  7326     08F1  0AB9               	incf	down_log@addr+1,f
  7327     08F2  3000               	movlw	0
  7328     08F3  07B9               	addwf	down_log@addr+1,f
  7329     08F4                     l3899:
  7330                           
  7331                           ;menu_actions.c: 157:             line[15] = read_external_eeprom(addr++);
  7332     08F4  0838               	movf	down_log@addr,w
  7333     08F5  160A  158A  2710  120A  158A  	fcall	_read_external_eeprom
  7334     08FA  1283               	bcf	3,5	;RP0=0, select bank0
  7335     08FB  1303               	bcf	3,6	;RP1=0, select bank0
  7336     08FC  00B4               	movwf	down_log@line+15
  7337     08FD                     l3901:
  7338     08FD  3001               	movlw	1
  7339     08FE  07B8               	addwf	down_log@addr,f
  7340     08FF  1803               	skipnc
  7341     0900  0AB9               	incf	down_log@addr+1,f
  7342     0901  3000               	movlw	0
  7343     0902  07B9               	addwf	down_log@addr+1,f
  7344     0903                     l3903:
  7345                           
  7346                           ;menu_actions.c: 159:             line[16] = '\0';
  7347     0903  01B5               	clrf	down_log@line+16
  7348     0904                     l3905:
  7349                           
  7350                           ;menu_actions.c: 161:             puts(line);
  7351     0904  3025               	movlw	(low (down_log@line| 0))& (0+255)
  7352     0905  00F3               	movwf	puts@s
  7353     0906  3000               	movlw	0
  7354     0907  00F4               	movwf	puts@s+1
  7355     0908  160A  158A  2697  120A  158A  	fcall	_puts
  7356     090D                     l3907:
  7357                           
  7358                           ;menu_actions.c: 162:             puts("\r\n");
  7359     090D  3010               	movlw	low ((STR_30+16)| (0+32768))
  7360     090E  00F3               	movwf	puts@s
  7361     090F  3090               	movlw	high ((STR_30+16)| (0+32768))
  7362     0910  00F4               	movwf	puts@s+1
  7363     0911  160A  158A  2697  120A  158A  	fcall	_puts
  7364     0916                     l3909:
  7365                           
  7366                           ;menu_actions.c: 163:         }
  7367     0916  3001               	movlw	1
  7368     0917  1283               	bcf	3,5	;RP0=0, select bank0
  7369     0918  1303               	bcf	3,6	;RP1=0, select bank0
  7370     0919  07B6               	addwf	down_log@i,f
  7371     091A  1803               	skipnc
  7372     091B  0AB7               	incf	down_log@i+1,f
  7373     091C  3000               	movlw	0
  7374     091D  07B7               	addwf	down_log@i+1,f
  7375     091E                     l3911:
  7376     091E  0837               	movf	down_log@i+1,w
  7377     091F  3A80               	xorlw	128
  7378     0920  00A3               	movwf	??_down_log
  7379     0921  3080               	movlw	128
  7380     0922  0223               	subwf	??_down_log,w
  7381     0923  1D03               	skipz
  7382     0924  2927               	goto	u3905
  7383     0925  086C               	movf	_event_count,w
  7384     0926  0236               	subwf	down_log@i,w
  7385     0927                     u3905:
  7386     0927  1C03               	skipc
  7387     0928  292A               	goto	u3901
  7388     0929  292B               	goto	u3900
  7389     092A                     u3901:
  7390     092A  284B               	goto	l3849
  7391     092B                     u3900:
  7392     092B                     l3913:
  7393                           
  7394                           ;menu_actions.c: 165:         clcd_print(" DOWNLOAD DONE ", (0xC0 + 0));
  7395     092B  3035               	movlw	low (STR_32| (0+32768))
  7396     092C  1283               	bcf	3,5	;RP0=0, select bank0
  7397     092D  1303               	bcf	3,6	;RP1=0, select bank0
  7398     092E  00A0               	movwf	clcd_print@str
  7399     092F  3091               	movlw	high (STR_32| (0+32768))
  7400     0930  00A1               	movwf	clcd_print@str+1
  7401     0931  30C0               	movlw	192
  7402     0932  00A2               	movwf	clcd_print@addr
  7403     0933  160A  158A  279A  120A  158A  	fcall	_clcd_print
  7404     0938                     l3915:
  7405                           
  7406                           ;menu_actions.c: 166:         once = 0;
  7407     0938  1683               	bsf	3,5	;RP0=1, select bank1
  7408     0939  1303               	bcf	3,6	;RP1=0, select bank1
  7409     093A  01E7               	clrf	down_log@once^(0+128)
  7410     093B                     l3917:
  7411                           
  7412                           ;menu_actions.c: 167:         delay = 0;
  7413     093B  01AC               	clrf	down_log@delay^(0+128)
  7414     093C  01AD               	clrf	(down_log@delay+1)^(0+128)
  7415     093D                     l3919:
  7416                           
  7417                           ;menu_actions.c: 170:     if(delay++ > 20000)
  7418     093D  082D               	movf	(down_log@delay+1)^(0+128),w
  7419     093E  1283               	bcf	3,5	;RP0=0, select bank0
  7420     093F  1303               	bcf	3,6	;RP1=0, select bank0
  7421     0940  00A4               	movwf	??_down_log+1
  7422     0941  1683               	bsf	3,5	;RP0=1, select bank1
  7423     0942  1303               	bcf	3,6	;RP1=0, select bank1
  7424     0943  082C               	movf	down_log@delay^(0+128),w
  7425     0944  1283               	bcf	3,5	;RP0=0, select bank0
  7426     0945  1303               	bcf	3,6	;RP1=0, select bank0
  7427     0946  00A3               	movwf	??_down_log
  7428     0947  1683               	bsf	3,5	;RP0=1, select bank1
  7429     0948  1303               	bcf	3,6	;RP1=0, select bank1
  7430     0949  0AAC               	incf	down_log@delay^(0+128),f
  7431     094A  1903               	skipnz
  7432     094B  0AAD               	incf	(down_log@delay+1)^(0+128),f
  7433     094C  304E               	movlw	78
  7434     094D  1283               	bcf	3,5	;RP0=0, select bank0
  7435     094E  1303               	bcf	3,6	;RP1=0, select bank0
  7436     094F  0224               	subwf	??_down_log+1,w
  7437     0950  3021               	movlw	33
  7438     0951  1903               	skipnz
  7439     0952  0223               	subwf	??_down_log,w
  7440     0953  1C03               	skipc
  7441     0954  2956               	goto	u3911
  7442     0955  2957               	goto	u3910
  7443     0956                     u3911:
  7444     0956  295F               	goto	l540
  7445     0957                     u3910:
  7446     0957                     l3921:
  7447                           
  7448                           ;menu_actions.c: 171:     {;menu_actions.c: 172:         exit_down_log = 1;
  7449     0957  3001               	movlw	1
  7450     0958  1683               	bsf	3,5	;RP0=1, select bank1
  7451     0959  1303               	bcf	3,6	;RP1=0, select bank1
  7452     095A  00CD               	movwf	_exit_down_log^(0+128)
  7453                           
  7454                           ;menu_actions.c: 173:         once = 1;
  7455     095B  3001               	movlw	1
  7456     095C  00E7               	movwf	down_log@once^(0+128)
  7457     095D                     l3923:
  7458                           
  7459                           ;menu_actions.c: 174:         delay = 0;
  7460     095D  01AC               	clrf	down_log@delay^(0+128)
  7461     095E  01AD               	clrf	(down_log@delay+1)^(0+128)
  7462     095F                     l540:
  7463     095F  0008               	return
  7464     0960                     __end_of_down_log:
  7465                           
  7466                           	psect	text19
  7467     1F10                     __ptext19:	
  7468 ;; *************** function _read_external_eeprom *****************
  7469 ;; Defined at:
  7470 ;;		line 14 in file "external_eeprom.c"
  7471 ;; Parameters:    Size  Location     Type
  7472 ;;  address         1    wreg     unsigned char 
  7473 ;; Auto vars:     Size  Location     Type
  7474 ;;  address         1    4[COMMON] unsigned char 
  7475 ;;  data            1    5[COMMON] unsigned char 
  7476 ;; Return value:  Size  Location     Type
  7477 ;;                  1    wreg      unsigned char 
  7478 ;; Registers used:
  7479 ;;		wreg, status,2, status,0, pclath, cstack
  7480 ;; Tracked objects:
  7481 ;;		On entry : 0/0
  7482 ;;		On exit  : 0/0
  7483 ;;		Unchanged: 0/0
  7484 ;; Data sizes:     COMMON   BANK0   BANK1   BANK3   BANK2
  7485 ;;      Params:         0       0       0       0       0
  7486 ;;      Locals:         2       0       0       0       0
  7487 ;;      Temps:          0       0       0       0       0
  7488 ;;      Totals:         2       0       0       0       0
  7489 ;;Total ram usage:        2 bytes
  7490 ;; Hardware stack levels used: 1
  7491 ;; Hardware stack levels required when called: 1
  7492 ;; This function calls:
  7493 ;;		_i2c_read
  7494 ;;		_i2c_rep_start
  7495 ;;		_i2c_start
  7496 ;;		_i2c_stop
  7497 ;;		_i2c_write
  7498 ;; This function is called by:
  7499 ;;		_view_log
  7500 ;;		_down_log
  7501 ;; This function uses a non-reentrant model
  7502 ;;
  7503                           
  7504     1F10                     _read_external_eeprom:	
  7505                           ;psect for function _read_external_eeprom
  7506                           
  7507                           
  7508                           ;incstack = 0
  7509                           ; Regs used in _read_external_eeprom: [wreg+status,2+status,0+pclath+cstack]
  7510                           ;read_external_eeprom@address stored from wreg
  7511     1F10  00F4               	movwf	read_external_eeprom@address
  7512     1F11                     l2977:
  7513                           
  7514                           ;external_eeprom.c: 14: unsigned char read_external_eeprom(unsigned char address);extern
      +                          al_eeprom.c: 15: {;external_eeprom.c: 16:     unsigned char data;;external_eeprom.c: 18:
      +                               i2c_start();
  7515     1F11  160A  158A  2518  160A  158A  	fcall	_i2c_start
  7516                           
  7517                           ;external_eeprom.c: 19:     i2c_write(0xA0);
  7518     1F16  30A0               	movlw	160
  7519     1F17  160A  158A  252C  160A  158A  	fcall	_i2c_write
  7520                           
  7521                           ;external_eeprom.c: 20:     i2c_write(address);
  7522     1F1C  0874               	movf	read_external_eeprom@address,w
  7523     1F1D  160A  158A  252C  160A  158A  	fcall	_i2c_write
  7524                           
  7525                           ;external_eeprom.c: 21:     i2c_rep_start();
  7526     1F22  160A  158A  2521  160A  158A  	fcall	_i2c_rep_start
  7527                           
  7528                           ;external_eeprom.c: 22:     i2c_write(0xA1);
  7529     1F27  30A1               	movlw	161
  7530     1F28  160A  158A  252C  160A  158A  	fcall	_i2c_write
  7531                           
  7532                           ;external_eeprom.c: 23:     data = i2c_read(0);
  7533     1F2D  3000               	movlw	0
  7534     1F2E  160A  158A  260D  160A  158A  	fcall	_i2c_read
  7535     1F33  00F5               	movwf	read_external_eeprom@data
  7536                           
  7537                           ;external_eeprom.c: 24:     i2c_stop();
  7538     1F34  120A  118A  27F7  160A  158A  	fcall	_i2c_stop
  7539     1F39                     l2979:
  7540                           
  7541                           ;external_eeprom.c: 26:     return data;
  7542     1F39  0875               	movf	read_external_eeprom@data,w
  7543     1F3A                     l204:
  7544     1F3A  0008               	return
  7545     1F3B                     __end_of_read_external_eeprom:
  7546                           
  7547                           	psect	text20
  7548     1E97                     __ptext20:	
  7549 ;; *************** function _puts *****************
  7550 ;; Defined at:
  7551 ;;		line 48 in file "uart.c"
  7552 ;; Parameters:    Size  Location     Type
  7553 ;;  s               2    3[COMMON] PTR const unsigned char 
  7554 ;;		 -> STR_31(3), down_log@line(17), STR_30(19), 
  7555 ;; Auto vars:     Size  Location     Type
  7556 ;;		None
  7557 ;; Return value:  Size  Location     Type
  7558 ;;                  1    wreg      void 
  7559 ;; Registers used:
  7560 ;;		wreg, fsr0l, fsr0h, status,2, status,0, pclath, btemp1, cstack
  7561 ;; Tracked objects:
  7562 ;;		On entry : 0/0
  7563 ;;		On exit  : 0/0
  7564 ;;		Unchanged: 0/0
  7565 ;; Data sizes:     COMMON   BANK0   BANK1   BANK3   BANK2
  7566 ;;      Params:         2       0       0       0       0
  7567 ;;      Locals:         0       0       0       0       0
  7568 ;;      Temps:          0       0       0       0       0
  7569 ;;      Totals:         2       0       0       0       0
  7570 ;;Total ram usage:        2 bytes
  7571 ;; Hardware stack levels used: 1
  7572 ;; Hardware stack levels required when called: 2
  7573 ;; This function calls:
  7574 ;;		_putchar
  7575 ;; This function is called by:
  7576 ;;		_down_log
  7577 ;; This function uses a non-reentrant model
  7578 ;;
  7579                           
  7580     1E97                     _puts:	
  7581                           ;psect for function _puts
  7582                           
  7583     1E97                     l2997:	
  7584                           ;incstack = 0
  7585                           ; Regs used in _puts: [wreg-fsr0h+status,2+status,0+pclath+btemp1+cstack]
  7586                           
  7587                           
  7588                           ;uart.c: 48: void puts(const char *s);uart.c: 49: {;uart.c: 50:     while (*s)
  7589     1E97  2EAC               	goto	l3003
  7590     1E98                     l2999:
  7591                           
  7592                           ;uart.c: 51:     {;uart.c: 52:         putchar(*s++);
  7593     1E98  0874               	movf	puts@s+1,w
  7594     1E99  00FF               	movwf	btemp1
  7595     1E9A  0873               	movf	puts@s,w
  7596     1E9B  0084               	movwf	4
  7597     1E9C  160A  158A  2000  160A  158A  	fcall	stringtab
  7598     1EA1  160A  158A  2537  160A  158A  	fcall	_putchar
  7599     1EA6                     l3001:
  7600     1EA6  3001               	movlw	1
  7601     1EA7  07F3               	addwf	puts@s,f
  7602     1EA8  1803               	skipnc
  7603     1EA9  0AF4               	incf	puts@s+1,f
  7604     1EAA  3000               	movlw	0
  7605     1EAB  07F4               	addwf	puts@s+1,f
  7606     1EAC                     l3003:
  7607                           
  7608                           ;uart.c: 50:     while (*s)
  7609     1EAC  0874               	movf	puts@s+1,w
  7610     1EAD  1283               	bcf	3,5	;RP0=0, select bank0
  7611     1EAE  1303               	bcf	3,6	;RP1=0, select bank0
  7612     1EAF  00FF               	movwf	btemp1
  7613     1EB0  0873               	movf	puts@s,w
  7614     1EB1  0084               	movwf	4
  7615     1EB2  160A  158A  2000  160A  158A  	fcall	stringtab
  7616     1EB7  3A00               	xorlw	0
  7617     1EB8  1D03               	skipz
  7618     1EB9  2EBB               	goto	u2511
  7619     1EBA  2EBC               	goto	u2510
  7620     1EBB                     u2511:
  7621     1EBB  2E98               	goto	l2999
  7622     1EBC                     u2510:
  7623     1EBC                     l709:
  7624     1EBC  0008               	return
  7625     1EBD                     __end_of_puts:
  7626                           
  7627                           	psect	text21
  7628     1D37                     __ptext21:	
  7629 ;; *************** function _putchar *****************
  7630 ;; Defined at:
  7631 ;;		line 33 in file "uart.c"
  7632 ;; Parameters:    Size  Location     Type
  7633 ;;  data            1    wreg     unsigned char 
  7634 ;; Auto vars:     Size  Location     Type
  7635 ;;  data            1    2[COMMON] unsigned char 
  7636 ;; Return value:  Size  Location     Type
  7637 ;;                  1    wreg      void 
  7638 ;; Registers used:
  7639 ;;		wreg
  7640 ;; Tracked objects:
  7641 ;;		On entry : 0/0
  7642 ;;		On exit  : 0/0
  7643 ;;		Unchanged: 0/0
  7644 ;; Data sizes:     COMMON   BANK0   BANK1   BANK3   BANK2
  7645 ;;      Params:         0       0       0       0       0
  7646 ;;      Locals:         1       0       0       0       0
  7647 ;;      Temps:          0       0       0       0       0
  7648 ;;      Totals:         1       0       0       0       0
  7649 ;;Total ram usage:        1 bytes
  7650 ;; Hardware stack levels used: 1
  7651 ;; Hardware stack levels required when called: 1
  7652 ;; This function calls:
  7653 ;;		Nothing
  7654 ;; This function is called by:
  7655 ;;		_puts
  7656 ;; This function uses a non-reentrant model
  7657 ;;
  7658                           
  7659     1D37                     _putchar:	
  7660                           ;psect for function _putchar
  7661                           
  7662                           
  7663                           ;incstack = 0
  7664                           ; Regs used in _putchar: [wreg]
  7665                           ;putchar@data stored from wreg
  7666     1D37  00F2               	movwf	putchar@data
  7667     1D38                     l2845:
  7668                           
  7669                           ;uart.c: 33: void putchar(unsigned char data);uart.c: 34: {;uart.c: 36:     TXREG = data
      +                          ;
  7670     1D38  0872               	movf	putchar@data,w
  7671     1D39  1283               	bcf	3,5	;RP0=0, select bank0
  7672     1D3A  1303               	bcf	3,6	;RP1=0, select bank0
  7673     1D3B  0099               	movwf	25	;volatile
  7674     1D3C                     l701:	
  7675                           ;uart.c: 42:     } while (TXIF != 1);
  7676                           
  7677     1D3C  1E0C               	btfss	12,4	;volatile
  7678     1D3D  2D3F               	goto	u2271
  7679     1D3E  2D40               	goto	u2270
  7680     1D3F                     u2271:
  7681     1D3F  2D3C               	goto	l701
  7682     1D40                     u2270:
  7683     1D40                     l702:
  7684                           
  7685                           ;uart.c: 45:     TXIF = 0;
  7686     1D40  120C               	bcf	12,4	;volatile
  7687     1D41                     l703:
  7688     1D41  0008               	return
  7689     1D42                     __end_of_putchar:
  7690                           
  7691                           	psect	text22
  7692     1E72                     __ptext22:	
  7693 ;; *************** function ___wmul *****************
  7694 ;; Defined at:
  7695 ;;		line 15 in file "C:\Program Files\Microchip\xc8\v3.10\pic\sources\c99\common\Umul16.c"
  7696 ;; Parameters:    Size  Location     Type
  7697 ;;  multiplier      2    2[COMMON] unsigned int 
  7698 ;;  multiplicand    2    4[COMMON] unsigned int 
  7699 ;; Auto vars:     Size  Location     Type
  7700 ;;  product         2    6[COMMON] unsigned int 
  7701 ;; Return value:  Size  Location     Type
  7702 ;;                  2    2[COMMON] unsigned int 
  7703 ;; Registers used:
  7704 ;;		wreg, status,2, status,0
  7705 ;; Tracked objects:
  7706 ;;		On entry : 0/0
  7707 ;;		On exit  : 0/0
  7708 ;;		Unchanged: 0/0
  7709 ;; Data sizes:     COMMON   BANK0   BANK1   BANK3   BANK2
  7710 ;;      Params:         4       0       0       0       0
  7711 ;;      Locals:         2       0       0       0       0
  7712 ;;      Temps:          0       0       0       0       0
  7713 ;;      Totals:         6       0       0       0       0
  7714 ;;Total ram usage:        6 bytes
  7715 ;; Hardware stack levels used: 1
  7716 ;; Hardware stack levels required when called: 1
  7717 ;; This function calls:
  7718 ;;		Nothing
  7719 ;; This function is called by:
  7720 ;;		_view_log
  7721 ;;		_down_log
  7722 ;;		_set_time
  7723 ;; This function uses a non-reentrant model
  7724 ;;
  7725                           
  7726     1E72                     ___wmul:	
  7727                           ;psect for function ___wmul
  7728                           
  7729     1E72                     l3005:	
  7730                           ;incstack = 0
  7731                           ; Regs used in ___wmul: [wreg+status,2+status,0]
  7732                           
  7733     1E72  01F6               	clrf	___wmul@product
  7734     1E73  01F7               	clrf	___wmul@product+1
  7735     1E74                     l3007:
  7736     1E74  1C72               	btfss	___wmul@multiplier,0
  7737     1E75  2E77               	goto	u2521
  7738     1E76  2E78               	goto	u2520
  7739     1E77                     u2521:
  7740     1E77  2E7E               	goto	l795
  7741     1E78                     u2520:
  7742     1E78                     l3009:
  7743     1E78  0874               	movf	___wmul@multiplicand,w
  7744     1E79  07F6               	addwf	___wmul@product,f
  7745     1E7A  1803               	skipnc
  7746     1E7B  0AF7               	incf	___wmul@product+1,f
  7747     1E7C  0875               	movf	___wmul@multiplicand+1,w
  7748     1E7D  07F7               	addwf	___wmul@product+1,f
  7749     1E7E                     l795:
  7750     1E7E  3001               	movlw	1
  7751     1E7F                     u2535:
  7752     1E7F  1003               	clrc
  7753     1E80  0DF4               	rlf	___wmul@multiplicand,f
  7754     1E81  0DF5               	rlf	___wmul@multiplicand+1,f
  7755     1E82  3EFF               	addlw	-1
  7756     1E83  1D03               	skipz
  7757     1E84  2E7F               	goto	u2535
  7758     1E85                     l3011:
  7759     1E85  3001               	movlw	1
  7760     1E86                     u2545:
  7761     1E86  1003               	clrc
  7762     1E87  0CF3               	rrf	___wmul@multiplier+1,f
  7763     1E88  0CF2               	rrf	___wmul@multiplier,f
  7764     1E89  3EFF               	addlw	-1
  7765     1E8A  1D03               	skipz
  7766     1E8B  2E86               	goto	u2545
  7767     1E8C                     l3013:
  7768     1E8C  0872               	movf	___wmul@multiplier,w
  7769     1E8D  0473               	iorwf	___wmul@multiplier+1,w
  7770     1E8E  1D03               	btfss	3,2
  7771     1E8F  2E91               	goto	u2551
  7772     1E90  2E92               	goto	u2550
  7773     1E91                     u2551:
  7774     1E91  2E74               	goto	l3007
  7775     1E92                     u2550:
  7776     1E92                     l3015:
  7777     1E92  0877               	movf	___wmul@product+1,w
  7778     1E93  00F3               	movwf	?___wmul+1
  7779     1E94  0876               	movf	___wmul@product,w
  7780     1E95  00F2               	movwf	?___wmul
  7781     1E96                     l797:
  7782     1E96  0008               	return
  7783     1E97                     __end_of___wmul:
  7784                           
  7785                           	psect	text23
  7786     0C2D                     __ptext23:	
  7787 ;; *************** function _dashboard *****************
  7788 ;; Defined at:
  7789 ;;		line 17 in file "dashboard.c"
  7790 ;; Parameters:    Size  Location     Type
  7791 ;;  key             1    wreg     unsigned char 
  7792 ;; Auto vars:     Size  Location     Type
  7793 ;;  key             1   57[BANK0 ] unsigned char 
  7794 ;; Return value:  Size  Location     Type
  7795 ;;                  1    wreg      void 
  7796 ;; Registers used:
  7797 ;;		wreg, fsr0l, fsr0h, status,2, status,0, pclath, btemp1, cstack
  7798 ;; Tracked objects:
  7799 ;;		On entry : 0/0
  7800 ;;		On exit  : 0/0
  7801 ;;		Unchanged: 0/0
  7802 ;; Data sizes:     COMMON   BANK0   BANK1   BANK3   BANK2
  7803 ;;      Params:         0       0       0       0       0
  7804 ;;      Locals:         0       1       0       0       0
  7805 ;;      Temps:          0       7       0       0       0
  7806 ;;      Totals:         0       8       0       0       0
  7807 ;;Total ram usage:        8 bytes
  7808 ;; Hardware stack levels used: 1
  7809 ;; Hardware stack levels required when called: 6
  7810 ;; This function calls:
  7811 ;;		___fldiv
  7812 ;;		___fltol
  7813 ;;		___lwdiv
  7814 ;;		___lwmod
  7815 ;;		___xxtofl
  7816 ;;		_clcd_clear_screen
  7817 ;;		_clcd_print
  7818 ;;		_display_time
  7819 ;;		_get_time
  7820 ;;		_read_adc
  7821 ;;		_store_event
  7822 ;;		_store_time
  7823 ;; This function is called by:
  7824 ;;		_main
  7825 ;; This function uses a non-reentrant model
  7826 ;;
  7827                           
  7828     0C2D                     _dashboard:	
  7829                           ;psect for function _dashboard
  7830                           
  7831                           
  7832                           ;incstack = 0
  7833                           ; Regs used in _dashboard: [wreg-fsr0h+status,2+status,0+pclath+btemp1+cstack]
  7834                           ;dashboard@key stored from wreg
  7835     0C2D  1283               	bcf	3,5	;RP0=0, select bank0
  7836     0C2E  1303               	bcf	3,6	;RP1=0, select bank0
  7837     0C2F  00D9               	movwf	dashboard@key
  7838     0C30                     l3333:
  7839                           
  7840                           ;dashboard.c: 17: void dashboard(unsigned char key);dashboard.c: 18: {;dashboard.c: 20: 
      +                              if (operation != 0)
  7841     0C30  086B               	movf	_operation,w
  7842     0C31  1903               	btfsc	3,2
  7843     0C32  2C34               	goto	u3321
  7844     0C33  2C35               	goto	u3320
  7845     0C34                     u3321:
  7846     0C34  2C41               	goto	l3341
  7847     0C35                     u3320:
  7848     0C35                     l3335:
  7849                           
  7850                           ;dashboard.c: 21:     {;dashboard.c: 22:         prev_pos = -1;
  7851     0C35  30FF               	movlw	255
  7852     0C36  1683               	bsf	3,5	;RP0=1, select bank1
  7853     0C37  1303               	bcf	3,6	;RP1=0, select bank1
  7854     0C38  00E2               	movwf	_prev_pos^(0+128)
  7855     0C39  30FF               	movlw	255
  7856     0C3A  00E3               	movwf	(_prev_pos^(0+128)+1)
  7857     0C3B                     l3337:
  7858                           
  7859                           ;dashboard.c: 23:         clcd_clear_screen();
  7860     0C3B  120A  158A  2001  120A  158A  	fcall	_clcd_clear_screen
  7861     0C40  2DE0               	goto	l115
  7862     0C41                     l3341:
  7863                           
  7864                           ;dashboard.c: 28:     get_time(clock_reg);
  7865     0C41  30D7               	movlw	(low (_clock_reg| 0))& (0+255)
  7866     0C42  00F6               	movwf	get_time@clock_reg
  7867     0C43  160A  158A  25ED  120A  158A  	fcall	_get_time
  7868     0C48                     l3343:
  7869                           
  7870                           ;dashboard.c: 29:     display_time(clock_reg);
  7871     0C48  30D7               	movlw	(low (_clock_reg| 0))& (0+255)
  7872     0C49  00F6               	movwf	display_time@clock_reg
  7873     0C4A  160A  118A  2318  120A  158A  	fcall	_display_time
  7874     0C4F                     l3345:
  7875                           
  7876                           ;dashboard.c: 30:     store_time(time, clock_reg);
  7877     0C4F  30B2               	movlw	(low (_time| (0+256)))& (0+255)
  7878     0C50  00F2               	movwf	store_time@time
  7879     0C51  30D7               	movlw	(low (_clock_reg| 0))& (0+255)
  7880     0C52  00F3               	movwf	store_time@clock_reg
  7881     0C53  160A  118A  249A  120A  158A  	fcall	_store_time
  7882     0C58                     l3347:
  7883                           
  7884                           ;dashboard.c: 33:     if (key == 0x3E)
  7885     0C58  303E               	movlw	62
  7886     0C59  1283               	bcf	3,5	;RP0=0, select bank0
  7887     0C5A  1303               	bcf	3,6	;RP1=0, select bank0
  7888     0C5B  0659               	xorwf	dashboard@key,w
  7889     0C5C  1D03               	btfss	3,2
  7890     0C5D  2C5F               	goto	u3331
  7891     0C5E  2C60               	goto	u3330
  7892     0C5F                     u3331:
  7893     0C5F  2C65               	goto	l3351
  7894     0C60                     u3330:
  7895     0C60                     l3349:
  7896                           
  7897                           ;dashboard.c: 34:         pos = 7;
  7898     0C60  3007               	movlw	7
  7899     0C61  00E7               	movwf	_pos
  7900     0C62  3000               	movlw	0
  7901     0C63  00E8               	movwf	_pos+1
  7902     0C64  2C9C               	goto	l3363
  7903     0C65                     l3351:
  7904     0C65  303D               	movlw	61
  7905     0C66  0659               	xorwf	dashboard@key,w
  7906     0C67  1D03               	btfss	3,2
  7907     0C68  2C6A               	goto	u3341
  7908     0C69  2C6B               	goto	u3340
  7909     0C6A                     u3341:
  7910     0C6A  2C81               	goto	l3357
  7911     0C6B                     u3340:
  7912     0C6B                     l3353:
  7913                           
  7914                           ;dashboard.c: 36:     {;dashboard.c: 37:         if (pos < 6)
  7915     0C6B  0868               	movf	_pos+1,w
  7916     0C6C  3A80               	xorlw	128
  7917     0C6D  00FF               	movwf	btemp1
  7918     0C6E  3080               	movlw	128
  7919     0C6F  027F               	subwf	btemp1,w
  7920     0C70  1D03               	skipz
  7921     0C71  2C74               	goto	u3355
  7922     0C72  3006               	movlw	6
  7923     0C73  0267               	subwf	_pos,w
  7924     0C74                     u3355:
  7925     0C74  1803               	skipnc
  7926     0C75  2C77               	goto	u3351
  7927     0C76  2C78               	goto	u3350
  7928     0C77                     u3351:
  7929     0C77  2C9C               	goto	l3363
  7930     0C78                     u3350:
  7931     0C78                     l3355:
  7932                           
  7933                           ;dashboard.c: 38:             pos++;
  7934     0C78  3001               	movlw	1
  7935     0C79  1283               	bcf	3,5	;RP0=0, select bank0
  7936     0C7A  1303               	bcf	3,6	;RP1=0, select bank0
  7937     0C7B  07E7               	addwf	_pos,f
  7938     0C7C  1803               	skipnc
  7939     0C7D  0AE8               	incf	_pos+1,f
  7940     0C7E  3000               	movlw	0
  7941     0C7F  07E8               	addwf	_pos+1,f
  7942     0C80  2C9C               	goto	l3363
  7943     0C81                     l3357:
  7944     0C81  303B               	movlw	59
  7945     0C82  0659               	xorwf	dashboard@key,w
  7946     0C83  1D03               	btfss	3,2
  7947     0C84  2C86               	goto	u3361
  7948     0C85  2C87               	goto	u3360
  7949     0C86                     u3361:
  7950     0C86  2C9C               	goto	l3363
  7951     0C87                     u3360:
  7952     0C87                     l3359:
  7953                           
  7954                           ;dashboard.c: 41:     {;dashboard.c: 42:         if (pos > 1)
  7955     0C87  0868               	movf	_pos+1,w
  7956     0C88  3A80               	xorlw	128
  7957     0C89  00FF               	movwf	btemp1
  7958     0C8A  3080               	movlw	128
  7959     0C8B  027F               	subwf	btemp1,w
  7960     0C8C  1D03               	skipz
  7961     0C8D  2C90               	goto	u3375
  7962     0C8E  3002               	movlw	2
  7963     0C8F  0267               	subwf	_pos,w
  7964     0C90                     u3375:
  7965     0C90  1C03               	skipc
  7966     0C91  2C93               	goto	u3371
  7967     0C92  2C94               	goto	u3370
  7968     0C93                     u3371:
  7969     0C93  2C9C               	goto	l3363
  7970     0C94                     u3370:
  7971     0C94                     l3361:
  7972                           
  7973                           ;dashboard.c: 43:             pos--;
  7974     0C94  30FF               	movlw	255
  7975     0C95  1283               	bcf	3,5	;RP0=0, select bank0
  7976     0C96  1303               	bcf	3,6	;RP1=0, select bank0
  7977     0C97  07E7               	addwf	_pos,f
  7978     0C98  1803               	skipnc
  7979     0C99  0AE8               	incf	_pos+1,f
  7980     0C9A  30FF               	movlw	255
  7981     0C9B  07E8               	addwf	_pos+1,f
  7982     0C9C                     l3363:
  7983                           
  7984                           ;dashboard.c: 47:     adc_val = (unsigned int)(read_adc(0x00) / 10.24);
  7985     0C9C  3000               	movlw	0
  7986     0C9D  160A  158A  25AF  120A  158A  	fcall	_read_adc
  7987     0CA2  0872               	movf	?_read_adc,w
  7988     0CA3  1283               	bcf	3,5	;RP0=0, select bank0
  7989     0CA4  1303               	bcf	3,6	;RP1=0, select bank0
  7990     0CA5  00D2               	movwf	??_dashboard
  7991     0CA6  0873               	movf	?_read_adc+1,w
  7992     0CA7  00D3               	movwf	??_dashboard+1
  7993     0CA8  01D4               	clrf	??_dashboard+2
  7994     0CA9  01D5               	clrf	??_dashboard+3
  7995     0CAA  0855               	movf	??_dashboard+3,w
  7996     0CAB  00A3               	movwf	___xxtofl@val+3
  7997     0CAC  0854               	movf	??_dashboard+2,w
  7998     0CAD  00A2               	movwf	___xxtofl@val+2
  7999     0CAE  0853               	movf	??_dashboard+1,w
  8000     0CAF  00A1               	movwf	___xxtofl@val+1
  8001     0CB0  0852               	movf	??_dashboard,w
  8002     0CB1  00A0               	movwf	___xxtofl@val
  8003     0CB2  3000               	movlw	0
  8004     0CB3  160A  118A  263A  120A  158A  	fcall	___xxtofl
  8005     0CB8  1283               	bcf	3,5	;RP0=0, select bank0
  8006     0CB9  1303               	bcf	3,6	;RP1=0, select bank0
  8007     0CBA  0823               	movf	?___xxtofl+3,w
  8008     0CBB  00B5               	movwf	___fldiv@b+3
  8009     0CBC  0822               	movf	?___xxtofl+2,w
  8010     0CBD  00B4               	movwf	___fldiv@b+2
  8011     0CBE  0821               	movf	?___xxtofl+1,w
  8012     0CBF  00B3               	movwf	___fldiv@b+1
  8013     0CC0  0820               	movf	?___xxtofl,w
  8014     0CC1  00B2               	movwf	___fldiv@b
  8015     0CC2  3041               	movlw	65
  8016     0CC3  00B1               	movwf	___fldiv@a+3
  8017     0CC4  3023               	movlw	35
  8018     0CC5  00B0               	movwf	___fldiv@a+2
  8019     0CC6  30D7               	movlw	215
  8020     0CC7  00AF               	movwf	___fldiv@a+1
  8021     0CC8  300A               	movlw	10
  8022     0CC9  00AE               	movwf	___fldiv@a
  8023     0CCA  120A  118A  25E6  120A  158A  	fcall	___fldiv
  8024     0CCF  1283               	bcf	3,5	;RP0=0, select bank0
  8025     0CD0  1303               	bcf	3,6	;RP1=0, select bank0
  8026     0CD1  0831               	movf	?___fldiv+3,w
  8027     0CD2  00CB               	movwf	___fltol@f1+3
  8028     0CD3  0830               	movf	?___fldiv+2,w
  8029     0CD4  00CA               	movwf	___fltol@f1+2
  8030     0CD5  082F               	movf	?___fldiv+1,w
  8031     0CD6  00C9               	movwf	___fltol@f1+1
  8032     0CD7  082E               	movf	?___fldiv,w
  8033     0CD8  00C8               	movwf	___fltol@f1
  8034     0CD9  160A  118A  250F  120A  158A  	fcall	___fltol
  8035     0CDE  1283               	bcf	3,5	;RP0=0, select bank0
  8036     0CDF  1303               	bcf	3,6	;RP1=0, select bank0
  8037     0CE0  0849               	movf	?___fltol+1,w
  8038     0CE1  1683               	bsf	3,5	;RP0=1, select bank1
  8039     0CE2  1303               	bcf	3,6	;RP1=0, select bank1
  8040     0CE3  00CB               	movwf	(_adc_val+1)^(0+128)
  8041     0CE4  1283               	bcf	3,5	;RP0=0, select bank0
  8042     0CE5  1303               	bcf	3,6	;RP1=0, select bank0
  8043     0CE6  0848               	movf	?___fltol,w
  8044     0CE7  1683               	bsf	3,5	;RP0=1, select bank1
  8045     0CE8  1303               	bcf	3,6	;RP1=0, select bank1
  8046     0CE9  00CA               	movwf	_adc_val^(0+128)
  8047     0CEA                     l3365:
  8048                           
  8049                           ;dashboard.c: 48:     speed[0] = (adc_val / 10) + '0';
  8050     0CEA  300A               	movlw	10
  8051     0CEB  00F2               	movwf	___lwdiv@divisor
  8052     0CEC  3000               	movlw	0
  8053     0CED  00F3               	movwf	___lwdiv@divisor+1
  8054     0CEE  084B               	movf	(_adc_val+1)^(0+128),w
  8055     0CEF  00F5               	movwf	___lwdiv@dividend+1
  8056     0CF0  084A               	movf	_adc_val^(0+128),w
  8057     0CF1  00F4               	movwf	___lwdiv@dividend
  8058     0CF2  160A  118A  22D4  120A  158A  	fcall	___lwdiv
  8059     0CF7  0872               	movf	?___lwdiv,w
  8060     0CF8  3E30               	addlw	48
  8061     0CF9  1683               	bsf	3,5	;RP0=1, select bank1
  8062     0CFA  1303               	bcf	3,6	;RP1=0, select bank1
  8063     0CFB  00D4               	movwf	_speed^(0+128)
  8064     0CFC                     l3367:
  8065                           
  8066                           ;dashboard.c: 49:     speed[1] = (adc_val % 10) + '0';
  8067     0CFC  300A               	movlw	10
  8068     0CFD  00F2               	movwf	___lwmod@divisor
  8069     0CFE  3000               	movlw	0
  8070     0CFF  00F3               	movwf	___lwmod@divisor+1
  8071     0D00  084B               	movf	(_adc_val+1)^(0+128),w
  8072     0D01  00F5               	movwf	___lwmod@dividend+1
  8073     0D02  084A               	movf	_adc_val^(0+128),w
  8074     0D03  00F4               	movwf	___lwmod@dividend
  8075     0D04  160A  118A  2221  120A  158A  	fcall	___lwmod
  8076     0D09  0872               	movf	?___lwmod,w
  8077     0D0A  3E30               	addlw	48
  8078     0D0B  1683               	bsf	3,5	;RP0=1, select bank1
  8079     0D0C  1303               	bcf	3,6	;RP1=0, select bank1
  8080     0D0D  00D5               	movwf	(_speed^(0+128)+1)
  8081     0D0E                     l3369:
  8082                           
  8083                           ;dashboard.c: 52:     if (pos != prev_pos)
  8084     0D0E  0863               	movf	(_prev_pos+1)^(0+128),w
  8085     0D0F  1283               	bcf	3,5	;RP0=0, select bank0
  8086     0D10  1303               	bcf	3,6	;RP1=0, select bank0
  8087     0D11  0668               	xorwf	_pos+1,w
  8088     0D12  1D03               	skipz
  8089     0D13  2D1A               	goto	u3385
  8090     0D14  1683               	bsf	3,5	;RP0=1, select bank1
  8091     0D15  1303               	bcf	3,6	;RP1=0, select bank1
  8092     0D16  0862               	movf	_prev_pos^(0+128),w
  8093     0D17  1283               	bcf	3,5	;RP0=0, select bank0
  8094     0D18  1303               	bcf	3,6	;RP1=0, select bank0
  8095     0D19  0667               	xorwf	_pos,w
  8096     0D1A                     u3385:
  8097     0D1A  1903               	skipnz
  8098     0D1B  2D1D               	goto	u3381
  8099     0D1C  2D1E               	goto	u3380
  8100     0D1D                     u3381:
  8101     0D1D  2D3F               	goto	l3375
  8102     0D1E                     u3380:
  8103     0D1E                     l3371:
  8104                           
  8105                           ;dashboard.c: 53:     {;dashboard.c: 54:         store_event(event[pos], time, speed);
  8106     0D1E  0867               	movf	_pos,w
  8107     0D1F  00D2               	movwf	??_dashboard
  8108     0D20  0752               	addwf	??_dashboard,w
  8109     0D21  3ECA               	addlw	(low (_event| (0+256)))& (0+255)
  8110     0D22  0084               	movwf	4
  8111     0D23  1783               	bsf	3,7	;select IRP bank3
  8112     0D24  0800               	movf	0,w
  8113     0D25  00A0               	movwf	store_event@event
  8114     0D26  0A84               	incf	4,f
  8115     0D27  0800               	movf	0,w
  8116     0D28  0384               	decf	4,f
  8117     0D29  00A1               	movwf	store_event@event+1
  8118     0D2A  30B2               	movlw	(low (_time| (0+256)))& (0+255)
  8119     0D2B  00A2               	movwf	store_event@time
  8120     0D2C  30D4               	movlw	(low (_speed| 0))& (0+255)
  8121     0D2D  00A3               	movwf	store_event@speed
  8122     0D2E  160A  118A  26F0  120A  158A  	fcall	_store_event
  8123     0D33                     l3373:
  8124                           
  8125                           ;dashboard.c: 55:         prev_pos = pos;
  8126     0D33  1283               	bcf	3,5	;RP0=0, select bank0
  8127     0D34  1303               	bcf	3,6	;RP1=0, select bank0
  8128     0D35  0868               	movf	_pos+1,w
  8129     0D36  1683               	bsf	3,5	;RP0=1, select bank1
  8130     0D37  1303               	bcf	3,6	;RP1=0, select bank1
  8131     0D38  00E3               	movwf	(_prev_pos+1)^(0+128)
  8132     0D39  1283               	bcf	3,5	;RP0=0, select bank0
  8133     0D3A  1303               	bcf	3,6	;RP1=0, select bank0
  8134     0D3B  0867               	movf	_pos,w
  8135     0D3C  1683               	bsf	3,5	;RP0=1, select bank1
  8136     0D3D  1303               	bcf	3,6	;RP1=0, select bank1
  8137     0D3E  00E2               	movwf	_prev_pos^(0+128)
  8138     0D3F                     l3375:
  8139                           
  8140                           ;dashboard.c: 59:     line1[0] = ' ';
  8141     0D3F  3020               	movlw	32
  8142     0D40  1683               	bsf	3,5	;RP0=1, select bank3
  8143     0D41  1703               	bsf	3,6	;RP1=1, select bank3
  8144     0D42  00A1               	movwf	_line1^(0+384)
  8145     0D43                     l3377:
  8146                           
  8147                           ;dashboard.c: 60:     line1[1] = 'T';
  8148     0D43  3054               	movlw	84
  8149     0D44  00A2               	movwf	(_line1^(0+384)+1)
  8150     0D45                     l3379:
  8151                           
  8152                           ;dashboard.c: 61:     line1[2] = 'I';
  8153     0D45  3049               	movlw	73
  8154     0D46  00A3               	movwf	(_line1^(0+384)+2)
  8155     0D47                     l3381:
  8156                           
  8157                           ;dashboard.c: 62:     line1[3] = 'M';
  8158     0D47  304D               	movlw	77
  8159     0D48  00A4               	movwf	(_line1^(0+384)+3)
  8160     0D49                     l3383:
  8161                           
  8162                           ;dashboard.c: 63:     line1[4] = 'E';
  8163     0D49  3045               	movlw	69
  8164     0D4A  00A5               	movwf	(_line1^(0+384)+4)
  8165     0D4B                     l3385:
  8166                           
  8167                           ;dashboard.c: 64:     line1[5] = ' ';
  8168     0D4B  3020               	movlw	32
  8169     0D4C  00A6               	movwf	(_line1^(0+384)+5)
  8170     0D4D                     l3387:
  8171                           
  8172                           ;dashboard.c: 65:     line1[6] = ' ';
  8173     0D4D  3020               	movlw	32
  8174     0D4E  00A7               	movwf	(_line1^(0+384)+6)
  8175     0D4F                     l3389:
  8176                           
  8177                           ;dashboard.c: 66:     line1[7] = ' ';
  8178     0D4F  3020               	movlw	32
  8179     0D50  00A8               	movwf	(_line1^(0+384)+7)
  8180     0D51                     l3391:
  8181                           
  8182                           ;dashboard.c: 67:     line1[8] = ' ';
  8183     0D51  3020               	movlw	32
  8184     0D52  00A9               	movwf	(_line1^(0+384)+8)
  8185     0D53                     l3393:
  8186                           
  8187                           ;dashboard.c: 68:     line1[9] = ' ';
  8188     0D53  3020               	movlw	32
  8189     0D54  00AA               	movwf	(_line1^(0+384)+9)
  8190     0D55                     l3395:
  8191                           
  8192                           ;dashboard.c: 69:     line1[10] = 'E';
  8193     0D55  3045               	movlw	69
  8194     0D56  00AB               	movwf	(_line1^(0+384)+10)
  8195     0D57                     l3397:
  8196                           
  8197                           ;dashboard.c: 70:     line1[11] = 'V';
  8198     0D57  3056               	movlw	86
  8199     0D58  00AC               	movwf	(_line1^(0+384)+11)
  8200     0D59                     l3399:
  8201                           
  8202                           ;dashboard.c: 71:     line1[12] = ' ';
  8203     0D59  3020               	movlw	32
  8204     0D5A  00AD               	movwf	(_line1^(0+384)+12)
  8205     0D5B                     l3401:
  8206                           
  8207                           ;dashboard.c: 72:     line1[13] = ' ';
  8208     0D5B  3020               	movlw	32
  8209     0D5C  00AE               	movwf	(_line1^(0+384)+13)
  8210     0D5D                     l3403:
  8211                           
  8212                           ;dashboard.c: 73:     line1[14] = 'S';
  8213     0D5D  3053               	movlw	83
  8214     0D5E  00AF               	movwf	(_line1^(0+384)+14)
  8215     0D5F                     l3405:
  8216                           
  8217                           ;dashboard.c: 74:     line1[15] = 'P';
  8218     0D5F  3050               	movlw	80
  8219     0D60  00B0               	movwf	(_line1^(0+384)+15)
  8220     0D61                     l3407:
  8221                           
  8222                           ;dashboard.c: 75:     line1[16] = '\0';
  8223     0D61  01B1               	clrf	(_line1^(0+384)+16)
  8224     0D62                     l3409:
  8225                           
  8226                           ;dashboard.c: 78:     line2[0] = time[0];
  8227     0D62  0832               	movf	_time^(0+384),w
  8228     0D63  0090               	movwf	_line2^(0+384)
  8229     0D64                     l3411:
  8230                           
  8231                           ;dashboard.c: 79:     line2[1] = time[1];
  8232     0D64  0833               	movf	(_time^(0+384)+1),w
  8233     0D65  0091               	movwf	(_line2^(0+384)+1)
  8234     0D66                     l3413:
  8235                           
  8236                           ;dashboard.c: 80:     line2[2] = ':';
  8237     0D66  303A               	movlw	58
  8238     0D67  0092               	movwf	(_line2^(0+384)+2)
  8239     0D68                     l3415:
  8240                           
  8241                           ;dashboard.c: 81:     line2[3] = time[3];
  8242     0D68  0835               	movf	(_time^(0+384)+3),w
  8243     0D69  0093               	movwf	(_line2^(0+384)+3)
  8244     0D6A                     l3417:
  8245                           
  8246                           ;dashboard.c: 82:     line2[4] = time[4];
  8247     0D6A  0836               	movf	(_time^(0+384)+4),w
  8248     0D6B  0094               	movwf	(_line2^(0+384)+4)
  8249     0D6C                     l3419:
  8250                           
  8251                           ;dashboard.c: 83:     line2[5] = ':';
  8252     0D6C  303A               	movlw	58
  8253     0D6D  0095               	movwf	(_line2^(0+384)+5)
  8254     0D6E                     l3421:
  8255                           
  8256                           ;dashboard.c: 84:     line2[6] = time[6];
  8257     0D6E  0838               	movf	(_time^(0+384)+6),w
  8258     0D6F  0096               	movwf	(_line2^(0+384)+6)
  8259     0D70                     l3423:
  8260                           
  8261                           ;dashboard.c: 85:     line2[7] = time[7];
  8262     0D70  0839               	movf	(_time^(0+384)+7),w
  8263     0D71  0097               	movwf	(_line2^(0+384)+7)
  8264     0D72                     l3425:
  8265                           
  8266                           ;dashboard.c: 86:     line2[8] = ' ';
  8267     0D72  3020               	movlw	32
  8268     0D73  0098               	movwf	(_line2^(0+384)+8)
  8269     0D74                     l3427:
  8270                           
  8271                           ;dashboard.c: 87:     line2[9] = ' ';
  8272     0D74  3020               	movlw	32
  8273     0D75  0099               	movwf	(_line2^(0+384)+9)
  8274     0D76                     l3429:
  8275                           
  8276                           ;dashboard.c: 88:     line2[10] = event[pos][0];
  8277     0D76  1283               	bcf	3,5	;RP0=0, select bank0
  8278     0D77  1303               	bcf	3,6	;RP1=0, select bank0
  8279     0D78  0867               	movf	_pos,w
  8280     0D79  00D2               	movwf	??_dashboard
  8281     0D7A  0752               	addwf	??_dashboard,w
  8282     0D7B  3ECA               	addlw	(low (_event| (0+256)))& (0+255)
  8283     0D7C  0084               	movwf	4
  8284     0D7D  1783               	bsf	3,7	;select IRP bank3
  8285     0D7E  0800               	movf	0,w
  8286     0D7F  00D3               	movwf	??_dashboard+1
  8287     0D80  0A84               	incf	4,f
  8288     0D81  0800               	movf	0,w
  8289     0D82  00D4               	movwf	??_dashboard+2
  8290     0D83  0854               	movf	??_dashboard+2,w
  8291     0D84  00FF               	movwf	btemp1
  8292     0D85  0853               	movf	??_dashboard+1,w
  8293     0D86  0084               	movwf	4
  8294     0D87  160A  158A  2000  120A  158A  	fcall	stringtab
  8295     0D8C  1683               	bsf	3,5	;RP0=1, select bank3
  8296     0D8D  1703               	bsf	3,6	;RP1=1, select bank3
  8297     0D8E  009A               	movwf	(_line2^(0+384)+10)
  8298     0D8F                     l3431:
  8299                           
  8300                           ;dashboard.c: 89:     line2[11] = event[pos][1];
  8301     0D8F  3001               	movlw	1
  8302     0D90  1283               	bcf	3,5	;RP0=0, select bank0
  8303     0D91  1303               	bcf	3,6	;RP1=0, select bank0
  8304     0D92  00D2               	movwf	??_dashboard
  8305     0D93  0867               	movf	_pos,w
  8306     0D94  00D3               	movwf	??_dashboard+1
  8307     0D95  0753               	addwf	??_dashboard+1,w
  8308     0D96  3ECA               	addlw	(low (_event| (0+256)))& (0+255)
  8309     0D97  0084               	movwf	4
  8310     0D98  1783               	bsf	3,7	;select IRP bank3
  8311     0D99  0800               	movf	0,w
  8312     0D9A  00D4               	movwf	??_dashboard+2
  8313     0D9B  0A84               	incf	4,f
  8314     0D9C  0800               	movf	0,w
  8315     0D9D  00D5               	movwf	??_dashboard+3
  8316     0D9E  0852               	movf	??_dashboard,w
  8317     0D9F  0754               	addwf	??_dashboard+2,w
  8318     0DA0  00D7               	movwf	??_dashboard+5
  8319     0DA1  0855               	movf	??_dashboard+3,w
  8320     0DA2  00D6               	movwf	??_dashboard+4
  8321     0DA3  1803               	skipnc
  8322     0DA4  0AD6               	incf	??_dashboard+4,f
  8323     0DA5  1BD2               	btfsc	??_dashboard,7
  8324     0DA6  03D6               	decf	??_dashboard+4,f
  8325     0DA7  0856               	movf	??_dashboard+4,w
  8326     0DA8  00D8               	movwf	??_dashboard+6
  8327     0DA9  0858               	movf	??_dashboard+6,w
  8328     0DAA  00FF               	movwf	btemp1
  8329     0DAB  0857               	movf	??_dashboard+5,w
  8330     0DAC  0084               	movwf	4
  8331     0DAD  160A  158A  2000  120A  158A  	fcall	stringtab
  8332     0DB2  1683               	bsf	3,5	;RP0=1, select bank3
  8333     0DB3  1703               	bsf	3,6	;RP1=1, select bank3
  8334     0DB4  009B               	movwf	(_line2^(0+384)+11)
  8335     0DB5                     l3433:
  8336                           
  8337                           ;dashboard.c: 90:     line2[12] = ' ';
  8338     0DB5  3020               	movlw	32
  8339     0DB6  009C               	movwf	(_line2^(0+384)+12)
  8340     0DB7                     l3435:
  8341                           
  8342                           ;dashboard.c: 91:     line2[13] = ' ';
  8343     0DB7  3020               	movlw	32
  8344     0DB8  009D               	movwf	(_line2^(0+384)+13)
  8345     0DB9                     l3437:
  8346                           
  8347                           ;dashboard.c: 92:     line2[14] = speed[0];
  8348     0DB9  1683               	bsf	3,5	;RP0=1, select bank1
  8349     0DBA  1303               	bcf	3,6	;RP1=0, select bank1
  8350     0DBB  0854               	movf	_speed^(0+128),w
  8351     0DBC  1683               	bsf	3,5	;RP0=1, select bank3
  8352     0DBD  1703               	bsf	3,6	;RP1=1, select bank3
  8353     0DBE  009E               	movwf	(_line2^(0+384)+14)
  8354     0DBF                     l3439:
  8355                           
  8356                           ;dashboard.c: 93:     line2[15] = speed[1];
  8357     0DBF  1683               	bsf	3,5	;RP0=1, select bank1
  8358     0DC0  1303               	bcf	3,6	;RP1=0, select bank1
  8359     0DC1  0855               	movf	(_speed^(0+128)+1),w
  8360     0DC2  1683               	bsf	3,5	;RP0=1, select bank3
  8361     0DC3  1703               	bsf	3,6	;RP1=1, select bank3
  8362     0DC4  009F               	movwf	(_line2^(0+384)+15)
  8363     0DC5                     l3441:
  8364                           
  8365                           ;dashboard.c: 94:     line2[16] = '\0';
  8366     0DC5  01A0               	clrf	(_line2^(0+384)+16)
  8367     0DC6                     l3443:
  8368                           
  8369                           ;dashboard.c: 96:     clcd_print(line1, (0x80 + 0));
  8370     0DC6  30A1               	movlw	(low (_line1| (0+256)))& (0+255)
  8371     0DC7  1283               	bcf	3,5	;RP0=0, select bank0
  8372     0DC8  1303               	bcf	3,6	;RP1=0, select bank0
  8373     0DC9  00A0               	movwf	clcd_print@str
  8374     0DCA  3001               	movlw	1
  8375     0DCB  00A1               	movwf	clcd_print@str+1
  8376     0DCC  3080               	movlw	128
  8377     0DCD  00A2               	movwf	clcd_print@addr
  8378     0DCE  160A  158A  279A  120A  158A  	fcall	_clcd_print
  8379     0DD3                     l3445:
  8380                           
  8381                           ;dashboard.c: 97:     clcd_print(line2, (0xC0 + 0));
  8382     0DD3  3090               	movlw	(low (_line2| (0+256)))& (0+255)
  8383     0DD4  1283               	bcf	3,5	;RP0=0, select bank0
  8384     0DD5  1303               	bcf	3,6	;RP1=0, select bank0
  8385     0DD6  00A0               	movwf	clcd_print@str
  8386     0DD7  3001               	movlw	1
  8387     0DD8  00A1               	movwf	clcd_print@str+1
  8388     0DD9  30C0               	movlw	192
  8389     0DDA  00A2               	movwf	clcd_print@addr
  8390     0DDB  160A  158A  279A  120A  158A  	fcall	_clcd_print
  8391     0DE0                     l115:
  8392     0DE0  0008               	return
  8393     0DE1                     __end_of_dashboard:
  8394                           
  8395                           	psect	text24
  8396     149A                     __ptext24:	
  8397 ;; *************** function _store_time *****************
  8398 ;; Defined at:
  8399 ;;		line 16 in file "common.c"
  8400 ;; Parameters:    Size  Location     Type
  8401 ;;  time            1    2[COMMON] PTR unsigned char 
  8402 ;;		 -> time(9), 
  8403 ;;  clock_reg       1    3[COMMON] PTR unsigned char 
  8404 ;;		 -> clock_reg(3), 
  8405 ;; Auto vars:     Size  Location     Type
  8406 ;;		None
  8407 ;; Return value:  Size  Location     Type
  8408 ;;                  1    wreg      void 
  8409 ;; Registers used:
  8410 ;;		wreg, fsr0l, fsr0h, status,2, status,0
  8411 ;; Tracked objects:
  8412 ;;		On entry : 0/0
  8413 ;;		On exit  : 0/0
  8414 ;;		Unchanged: 0/0
  8415 ;; Data sizes:     COMMON   BANK0   BANK1   BANK3   BANK2
  8416 ;;      Params:         2       0       0       0       0
  8417 ;;      Locals:         0       0       0       0       0
  8418 ;;      Temps:          2       0       0       0       0
  8419 ;;      Totals:         4       0       0       0       0
  8420 ;;Total ram usage:        4 bytes
  8421 ;; Hardware stack levels used: 1
  8422 ;; Hardware stack levels required when called: 1
  8423 ;; This function calls:
  8424 ;;		Nothing
  8425 ;; This function is called by:
  8426 ;;		_dashboard
  8427 ;; This function uses a non-reentrant model
  8428 ;;
  8429                           
  8430     149A                     _store_time:	
  8431                           ;psect for function _store_time
  8432                           
  8433     149A                     l2903:	
  8434                           ;incstack = 0
  8435                           ; Regs used in _store_time: [wreg-fsr0h+status,2+status,0]
  8436                           
  8437     149A  0873               	movf	store_time@clock_reg,w
  8438     149B  0084               	movwf	4
  8439     149C  1383               	bcf	3,7	;select IRP bank0
  8440     149D  0800               	movf	0,w
  8441     149E  00F4               	movwf	??_store_time
  8442     149F  3004               	movlw	4
  8443     14A0                     u2395:
  8444     14A0  1003               	clrc
  8445     14A1  0CF4               	rrf	??_store_time,f
  8446     14A2  3EFF               	addlw	-1
  8447     14A3  1D03               	skipz
  8448     14A4  2CA0               	goto	u2395
  8449     14A5  0874               	movf	??_store_time,w
  8450     14A6  3903               	andlw	3
  8451     14A7  3E30               	addlw	48
  8452     14A8  00F5               	movwf	??_store_time+1
  8453     14A9  0872               	movf	store_time@time,w
  8454     14AA  0084               	movwf	4
  8455     14AB  0875               	movf	??_store_time+1,w
  8456     14AC  1783               	bsf	3,7	;select IRP bank2
  8457     14AD  0080               	movwf	0
  8458     14AE  0873               	movf	store_time@clock_reg,w
  8459     14AF  0084               	movwf	4
  8460     14B0  1383               	bcf	3,7	;select IRP bank0
  8461     14B1  0800               	movf	0,w
  8462     14B2  390F               	andlw	15
  8463     14B3  3E30               	addlw	48
  8464     14B4  00F4               	movwf	??_store_time
  8465     14B5  0A72               	incf	store_time@time,w
  8466     14B6  0084               	movwf	4
  8467     14B7  0874               	movf	??_store_time,w
  8468     14B8  1783               	bsf	3,7	;select IRP bank2
  8469     14B9  0080               	movwf	0
  8470     14BA  0872               	movf	store_time@time,w
  8471     14BB  3E02               	addlw	2
  8472     14BC  0084               	movwf	4
  8473     14BD  303A               	movlw	58
  8474     14BE  0080               	movwf	0
  8475     14BF  0A73               	incf	store_time@clock_reg,w
  8476     14C0  0084               	movwf	4
  8477     14C1  1383               	bcf	3,7	;select IRP bank0
  8478     14C2  0800               	movf	0,w
  8479     14C3  00F4               	movwf	??_store_time
  8480     14C4  3004               	movlw	4
  8481     14C5                     u2405:
  8482     14C5  1003               	clrc
  8483     14C6  0CF4               	rrf	??_store_time,f
  8484     14C7  3EFF               	addlw	-1
  8485     14C8  1D03               	skipz
  8486     14C9  2CC5               	goto	u2405
  8487     14CA  0874               	movf	??_store_time,w
  8488     14CB  3907               	andlw	7
  8489     14CC  3E30               	addlw	48
  8490     14CD  00F5               	movwf	??_store_time+1
  8491     14CE  0872               	movf	store_time@time,w
  8492     14CF  3E03               	addlw	3
  8493     14D0  0084               	movwf	4
  8494     14D1  0875               	movf	??_store_time+1,w
  8495     14D2  1783               	bsf	3,7	;select IRP bank2
  8496     14D3  0080               	movwf	0
  8497     14D4  0A73               	incf	store_time@clock_reg,w
  8498     14D5  0084               	movwf	4
  8499     14D6  1383               	bcf	3,7	;select IRP bank0
  8500     14D7  0800               	movf	0,w
  8501     14D8  390F               	andlw	15
  8502     14D9  3E30               	addlw	48
  8503     14DA  00F4               	movwf	??_store_time
  8504     14DB  0872               	movf	store_time@time,w
  8505     14DC  3E04               	addlw	4
  8506     14DD  0084               	movwf	4
  8507     14DE  0874               	movf	??_store_time,w
  8508     14DF  1783               	bsf	3,7	;select IRP bank2
  8509     14E0  0080               	movwf	0
  8510     14E1  0872               	movf	store_time@time,w
  8511     14E2  3E05               	addlw	5
  8512     14E3  0084               	movwf	4
  8513     14E4  303A               	movlw	58
  8514     14E5  0080               	movwf	0
  8515     14E6  0873               	movf	store_time@clock_reg,w
  8516     14E7  3E02               	addlw	2
  8517     14E8  0084               	movwf	4
  8518     14E9  1383               	bcf	3,7	;select IRP bank0
  8519     14EA  0800               	movf	0,w
  8520     14EB  00F4               	movwf	??_store_time
  8521     14EC  3004               	movlw	4
  8522     14ED                     u2415:
  8523     14ED  1003               	clrc
  8524     14EE  0CF4               	rrf	??_store_time,f
  8525     14EF  3EFF               	addlw	-1
  8526     14F0  1D03               	skipz
  8527     14F1  2CED               	goto	u2415
  8528     14F2  0874               	movf	??_store_time,w
  8529     14F3  3907               	andlw	7
  8530     14F4  3E30               	addlw	48
  8531     14F5  00F5               	movwf	??_store_time+1
  8532     14F6  0872               	movf	store_time@time,w
  8533     14F7  3E06               	addlw	6
  8534     14F8  0084               	movwf	4
  8535     14F9  0875               	movf	??_store_time+1,w
  8536     14FA  1783               	bsf	3,7	;select IRP bank2
  8537     14FB  0080               	movwf	0
  8538     14FC  0873               	movf	store_time@clock_reg,w
  8539     14FD  3E02               	addlw	2
  8540     14FE  0084               	movwf	4
  8541     14FF  1383               	bcf	3,7	;select IRP bank0
  8542     1500  0800               	movf	0,w
  8543     1501  390F               	andlw	15
  8544     1502  3E30               	addlw	48
  8545     1503  00F4               	movwf	??_store_time
  8546     1504  0872               	movf	store_time@time,w
  8547     1505  3E07               	addlw	7
  8548     1506  0084               	movwf	4
  8549     1507  0874               	movf	??_store_time,w
  8550     1508  1783               	bsf	3,7	;select IRP bank2
  8551     1509  0080               	movwf	0
  8552     150A  0872               	movf	store_time@time,w
  8553     150B  3E08               	addlw	8
  8554     150C  0084               	movwf	4
  8555     150D  0180               	clrf	0
  8556     150E                     l68:
  8557     150E  0008               	return
  8558     150F                     __end_of_store_time:
  8559                           
  8560                           	psect	text25
  8561     16F0                     __ptext25:	
  8562 ;; *************** function _store_event *****************
  8563 ;; Defined at:
  8564 ;;		line 7 in file "Event_store.c"
  8565 ;; Parameters:    Size  Location     Type
  8566 ;;  event           2    0[BANK0 ] PTR unsigned char 
  8567 ;;		 -> STR_10(3), STR_9(3), STR_8(3), STR_7(3), 
  8568 ;;		 -> STR_6(3), STR_5(3), STR_4(3), STR_3(3), 
  8569 ;;  time            1    2[BANK0 ] PTR unsigned char 
  8570 ;;		 -> time(9), 
  8571 ;;  speed           1    3[BANK0 ] PTR unsigned char 
  8572 ;;		 -> speed(3), 
  8573 ;; Auto vars:     Size  Location     Type
  8574 ;;  address         2    8[BANK0 ] unsigned int 
  8575 ;; Return value:  Size  Location     Type
  8576 ;;                  1    wreg      void 
  8577 ;; Registers used:
  8578 ;;		wreg, fsr0l, fsr0h, status,2, status,0, pclath, btemp1, cstack
  8579 ;; Tracked objects:
  8580 ;;		On entry : 0/0
  8581 ;;		On exit  : 0/0
  8582 ;;		Unchanged: 0/0
  8583 ;; Data sizes:     COMMON   BANK0   BANK1   BANK3   BANK2
  8584 ;;      Params:         0       4       0       0       0
  8585 ;;      Locals:         0       2       0       0       0
  8586 ;;      Temps:          0       4       0       0       0
  8587 ;;      Totals:         0      10       0       0       0
  8588 ;;Total ram usage:       10 bytes
  8589 ;; Hardware stack levels used: 1
  8590 ;; Hardware stack levels required when called: 3
  8591 ;; This function calls:
  8592 ;;		_write_external_eeprom
  8593 ;; This function is called by:
  8594 ;;		_dashboard
  8595 ;; This function uses a non-reentrant model
  8596 ;;
  8597                           
  8598     16F0                     _store_event:	
  8599                           ;psect for function _store_event
  8600                           
  8601     16F0                     l2923:	
  8602                           ;incstack = 0
  8603                           ; Regs used in _store_event: [wreg-fsr0h+status,2+status,0+pclath+btemp1+cstack]
  8604                           
  8605                           
  8606                           ;Event_store.c: 7: void store_event(char *event, char *time, unsigned char *speed);Event
      +                          _store.c: 8: {;Event_store.c: 9:     unsigned int address = log_write_addr;
  8607     16F0  1683               	bsf	3,5	;RP0=1, select bank1
  8608     16F1  1303               	bcf	3,6	;RP1=0, select bank1
  8609     16F2  0849               	movf	(_log_write_addr+1)^(0+128),w
  8610     16F3  1283               	bcf	3,5	;RP0=0, select bank0
  8611     16F4  1303               	bcf	3,6	;RP1=0, select bank0
  8612     16F5  00A9               	movwf	store_event@address+1
  8613     16F6  1683               	bsf	3,5	;RP0=1, select bank1
  8614     16F7  1303               	bcf	3,6	;RP1=0, select bank1
  8615     16F8  0848               	movf	_log_write_addr^(0+128),w
  8616     16F9  1283               	bcf	3,5	;RP0=0, select bank0
  8617     16FA  1303               	bcf	3,6	;RP1=0, select bank0
  8618     16FB  00A8               	movwf	store_event@address
  8619     16FC                     l2925:
  8620                           
  8621                           ;Event_store.c: 12:     write_external_eeprom(address++, time[0]);
  8622     16FC  0822               	movf	store_event@time,w
  8623     16FD  0084               	movwf	4
  8624     16FE  1783               	bsf	3,7	;select IRP bank2
  8625     16FF  0800               	movf	0,w
  8626     1700  00F3               	movwf	write_external_eeprom@data
  8627     1701  0828               	movf	store_event@address,w
  8628     1702  160A  158A  276A  160A  118A  	fcall	_write_external_eeprom
  8629     1707                     l2927:
  8630     1707  3001               	movlw	1
  8631     1708  1283               	bcf	3,5	;RP0=0, select bank0
  8632     1709  1303               	bcf	3,6	;RP1=0, select bank0
  8633     170A  07A8               	addwf	store_event@address,f
  8634     170B  1803               	skipnc
  8635     170C  0AA9               	incf	store_event@address+1,f
  8636     170D  3000               	movlw	0
  8637     170E  07A9               	addwf	store_event@address+1,f
  8638                           
  8639                           ;Event_store.c: 13:     write_external_eeprom(address++, time[1]);
  8640     170F  0A22               	incf	store_event@time,w
  8641     1710  0084               	movwf	4
  8642     1711  1783               	bsf	3,7	;select IRP bank2
  8643     1712  0800               	movf	0,w
  8644     1713  00F3               	movwf	write_external_eeprom@data
  8645     1714  0828               	movf	store_event@address,w
  8646     1715  160A  158A  276A  160A  118A  	fcall	_write_external_eeprom
  8647     171A                     l2929:
  8648     171A  3001               	movlw	1
  8649     171B  1283               	bcf	3,5	;RP0=0, select bank0
  8650     171C  1303               	bcf	3,6	;RP1=0, select bank0
  8651     171D  07A8               	addwf	store_event@address,f
  8652     171E  1803               	skipnc
  8653     171F  0AA9               	incf	store_event@address+1,f
  8654     1720  3000               	movlw	0
  8655     1721  07A9               	addwf	store_event@address+1,f
  8656     1722                     l2931:
  8657                           
  8658                           ;Event_store.c: 14:     write_external_eeprom(address++, time[3]);
  8659     1722  0822               	movf	store_event@time,w
  8660     1723  3E03               	addlw	3
  8661     1724  0084               	movwf	4
  8662     1725  1783               	bsf	3,7	;select IRP bank2
  8663     1726  0800               	movf	0,w
  8664     1727  00F3               	movwf	write_external_eeprom@data
  8665     1728  0828               	movf	store_event@address,w
  8666     1729  160A  158A  276A  160A  118A  	fcall	_write_external_eeprom
  8667     172E  3001               	movlw	1
  8668     172F  1283               	bcf	3,5	;RP0=0, select bank0
  8669     1730  1303               	bcf	3,6	;RP1=0, select bank0
  8670     1731  07A8               	addwf	store_event@address,f
  8671     1732  1803               	skipnc
  8672     1733  0AA9               	incf	store_event@address+1,f
  8673     1734  3000               	movlw	0
  8674     1735  07A9               	addwf	store_event@address+1,f
  8675     1736                     l2933:
  8676                           
  8677                           ;Event_store.c: 15:     write_external_eeprom(address++, time[4]);
  8678     1736  0822               	movf	store_event@time,w
  8679     1737  3E04               	addlw	4
  8680     1738  0084               	movwf	4
  8681     1739  1783               	bsf	3,7	;select IRP bank2
  8682     173A  0800               	movf	0,w
  8683     173B  00F3               	movwf	write_external_eeprom@data
  8684     173C  0828               	movf	store_event@address,w
  8685     173D  160A  158A  276A  160A  118A  	fcall	_write_external_eeprom
  8686     1742                     l2935:
  8687     1742  3001               	movlw	1
  8688     1743  1283               	bcf	3,5	;RP0=0, select bank0
  8689     1744  1303               	bcf	3,6	;RP1=0, select bank0
  8690     1745  07A8               	addwf	store_event@address,f
  8691     1746  1803               	skipnc
  8692     1747  0AA9               	incf	store_event@address+1,f
  8693     1748  3000               	movlw	0
  8694     1749  07A9               	addwf	store_event@address+1,f
  8695                           
  8696                           ;Event_store.c: 16:     write_external_eeprom(address++, time[6]);
  8697     174A  0822               	movf	store_event@time,w
  8698     174B  3E06               	addlw	6
  8699     174C  0084               	movwf	4
  8700     174D  1783               	bsf	3,7	;select IRP bank2
  8701     174E  0800               	movf	0,w
  8702     174F  00F3               	movwf	write_external_eeprom@data
  8703     1750  0828               	movf	store_event@address,w
  8704     1751  160A  158A  276A  160A  118A  	fcall	_write_external_eeprom
  8705     1756                     l2937:
  8706     1756  3001               	movlw	1
  8707     1757  1283               	bcf	3,5	;RP0=0, select bank0
  8708     1758  1303               	bcf	3,6	;RP1=0, select bank0
  8709     1759  07A8               	addwf	store_event@address,f
  8710     175A  1803               	skipnc
  8711     175B  0AA9               	incf	store_event@address+1,f
  8712     175C  3000               	movlw	0
  8713     175D  07A9               	addwf	store_event@address+1,f
  8714     175E                     l2939:
  8715                           
  8716                           ;Event_store.c: 17:     write_external_eeprom(address++, time[7]);
  8717     175E  0822               	movf	store_event@time,w
  8718     175F  3E07               	addlw	7
  8719     1760  0084               	movwf	4
  8720     1761  1783               	bsf	3,7	;select IRP bank2
  8721     1762  0800               	movf	0,w
  8722     1763  00F3               	movwf	write_external_eeprom@data
  8723     1764  0828               	movf	store_event@address,w
  8724     1765  160A  158A  276A  160A  118A  	fcall	_write_external_eeprom
  8725     176A  3001               	movlw	1
  8726     176B  1283               	bcf	3,5	;RP0=0, select bank0
  8727     176C  1303               	bcf	3,6	;RP1=0, select bank0
  8728     176D  07A8               	addwf	store_event@address,f
  8729     176E  1803               	skipnc
  8730     176F  0AA9               	incf	store_event@address+1,f
  8731     1770  3000               	movlw	0
  8732     1771  07A9               	addwf	store_event@address+1,f
  8733     1772                     l2941:
  8734                           
  8735                           ;Event_store.c: 20:     write_external_eeprom(address++, event[0]);
  8736     1772  0821               	movf	store_event@event+1,w
  8737     1773  00FF               	movwf	btemp1
  8738     1774  0820               	movf	store_event@event,w
  8739     1775  0084               	movwf	4
  8740     1776  160A  158A  2000  160A  118A  	fcall	stringtab
  8741     177B  00F3               	movwf	write_external_eeprom@data
  8742     177C  0828               	movf	store_event@address,w
  8743     177D  160A  158A  276A  160A  118A  	fcall	_write_external_eeprom
  8744     1782                     l2943:
  8745     1782  3001               	movlw	1
  8746     1783  1283               	bcf	3,5	;RP0=0, select bank0
  8747     1784  1303               	bcf	3,6	;RP1=0, select bank0
  8748     1785  07A8               	addwf	store_event@address,f
  8749     1786  1803               	skipnc
  8750     1787  0AA9               	incf	store_event@address+1,f
  8751     1788  3000               	movlw	0
  8752     1789  07A9               	addwf	store_event@address+1,f
  8753                           
  8754                           ;Event_store.c: 21:     write_external_eeprom(address++, event[1]);
  8755     178A  3001               	movlw	1
  8756     178B  00A4               	movwf	??_store_event
  8757     178C  0824               	movf	??_store_event,w
  8758     178D  0720               	addwf	store_event@event,w
  8759     178E  00A6               	movwf	??_store_event+2
  8760     178F  0821               	movf	store_event@event+1,w
  8761     1790  00A5               	movwf	??_store_event+1
  8762     1791  1803               	skipnc
  8763     1792  0AA5               	incf	??_store_event+1,f
  8764     1793  1BA4               	btfsc	??_store_event,7
  8765     1794  03A5               	decf	??_store_event+1,f
  8766     1795  0825               	movf	??_store_event+1,w
  8767     1796  00A7               	movwf	??_store_event+3
  8768     1797  0827               	movf	??_store_event+3,w
  8769     1798  00FF               	movwf	btemp1
  8770     1799  0826               	movf	??_store_event+2,w
  8771     179A  0084               	movwf	4
  8772     179B  160A  158A  2000  160A  118A  	fcall	stringtab
  8773     17A0  00F3               	movwf	write_external_eeprom@data
  8774     17A1  0828               	movf	store_event@address,w
  8775     17A2  160A  158A  276A  160A  118A  	fcall	_write_external_eeprom
  8776     17A7                     l2945:
  8777     17A7  3001               	movlw	1
  8778     17A8  1283               	bcf	3,5	;RP0=0, select bank0
  8779     17A9  1303               	bcf	3,6	;RP1=0, select bank0
  8780     17AA  07A8               	addwf	store_event@address,f
  8781     17AB  1803               	skipnc
  8782     17AC  0AA9               	incf	store_event@address+1,f
  8783     17AD  3000               	movlw	0
  8784     17AE  07A9               	addwf	store_event@address+1,f
  8785     17AF                     l2947:
  8786                           
  8787                           ;Event_store.c: 24:     write_external_eeprom(address++, speed[0]);
  8788     17AF  0823               	movf	store_event@speed,w
  8789     17B0  0084               	movwf	4
  8790     17B1  1383               	bcf	3,7	;select IRP bank0
  8791     17B2  0800               	movf	0,w
  8792     17B3  00F3               	movwf	write_external_eeprom@data
  8793     17B4  0828               	movf	store_event@address,w
  8794     17B5  160A  158A  276A  160A  118A  	fcall	_write_external_eeprom
  8795     17BA                     l2949:
  8796     17BA  3001               	movlw	1
  8797     17BB  1283               	bcf	3,5	;RP0=0, select bank0
  8798     17BC  1303               	bcf	3,6	;RP1=0, select bank0
  8799     17BD  07A8               	addwf	store_event@address,f
  8800     17BE  1803               	skipnc
  8801     17BF  0AA9               	incf	store_event@address+1,f
  8802     17C0  3000               	movlw	0
  8803     17C1  07A9               	addwf	store_event@address+1,f
  8804     17C2                     l2951:
  8805                           
  8806                           ;Event_store.c: 25:     write_external_eeprom(address++, speed[1]);
  8807     17C2  0A23               	incf	store_event@speed,w
  8808     17C3  0084               	movwf	4
  8809     17C4  1383               	bcf	3,7	;select IRP bank0
  8810     17C5  0800               	movf	0,w
  8811     17C6  00F3               	movwf	write_external_eeprom@data
  8812     17C7  0828               	movf	store_event@address,w
  8813     17C8  160A  158A  276A  160A  118A  	fcall	_write_external_eeprom
  8814     17CD                     l2953:
  8815     17CD  3001               	movlw	1
  8816     17CE  1283               	bcf	3,5	;RP0=0, select bank0
  8817     17CF  1303               	bcf	3,6	;RP1=0, select bank0
  8818     17D0  07A8               	addwf	store_event@address,f
  8819     17D1  1803               	skipnc
  8820     17D2  0AA9               	incf	store_event@address+1,f
  8821     17D3  3000               	movlw	0
  8822     17D4  07A9               	addwf	store_event@address+1,f
  8823     17D5                     l2955:
  8824                           
  8825                           ;Event_store.c: 28:     if (log_write_addr >= 100)
  8826     17D5  3000               	movlw	0
  8827     17D6  1683               	bsf	3,5	;RP0=1, select bank1
  8828     17D7  1303               	bcf	3,6	;RP1=0, select bank1
  8829     17D8  0249               	subwf	(_log_write_addr+1)^(0+128),w
  8830     17D9  3064               	movlw	100
  8831     17DA  1903               	skipnz
  8832     17DB  0248               	subwf	_log_write_addr^(0+128),w
  8833     17DC  1C03               	skipc
  8834     17DD  2FDF               	goto	u2461
  8835     17DE  2FE0               	goto	u2460
  8836     17DF                     u2461:
  8837     17DF  2FE2               	goto	l2959
  8838     17E0                     u2460:
  8839     17E0                     l2957:
  8840                           
  8841                           ;Event_store.c: 29:         log_write_addr = 0;
  8842     17E0  01C8               	clrf	_log_write_addr^(0+128)
  8843     17E1  01C9               	clrf	(_log_write_addr+1)^(0+128)
  8844     17E2                     l2959:
  8845                           
  8846                           ;Event_store.c: 31:     if (event_count < 10)
  8847     17E2  300A               	movlw	10
  8848     17E3  1283               	bcf	3,5	;RP0=0, select bank0
  8849     17E4  1303               	bcf	3,6	;RP1=0, select bank0
  8850     17E5  026C               	subwf	_event_count,w
  8851     17E6  1803               	skipnc
  8852     17E7  2FE9               	goto	u2471
  8853     17E8  2FEA               	goto	u2470
  8854     17E9                     u2471:
  8855     17E9  2FEC               	goto	l2963
  8856     17EA                     u2470:
  8857     17EA                     l2961:
  8858                           
  8859                           ;Event_store.c: 32:         event_count++;
  8860     17EA  3001               	movlw	1
  8861     17EB  07EC               	addwf	_event_count,f
  8862     17EC                     l2963:
  8863                           
  8864                           ;Event_store.c: 34:     log_write_addr += 10;
  8865     17EC  300A               	movlw	10
  8866     17ED  1683               	bsf	3,5	;RP0=1, select bank1
  8867     17EE  1303               	bcf	3,6	;RP1=0, select bank1
  8868     17EF  07C8               	addwf	_log_write_addr^(0+128),f
  8869     17F0  1803               	skipnc
  8870     17F1  0AC9               	incf	(_log_write_addr+1)^(0+128),f
  8871     17F2  3000               	movlw	0
  8872     17F3  07C9               	addwf	(_log_write_addr+1)^(0+128),f
  8873     17F4                     l2965:
  8874                           
  8875                           ;Event_store.c: 36:     if (log_write_addr >= 100)
  8876     17F4  3000               	movlw	0
  8877     17F5  0249               	subwf	(_log_write_addr+1)^(0+128),w
  8878     17F6  3064               	movlw	100
  8879     17F7  1903               	skipnz
  8880     17F8  0248               	subwf	_log_write_addr^(0+128),w
  8881     17F9  1C03               	skipc
  8882     17FA  2FFC               	goto	u2481
  8883     17FB  2FFD               	goto	u2480
  8884     17FC                     u2481:
  8885     17FC  2FFF               	goto	l185
  8886     17FD                     u2480:
  8887     17FD                     l2967:
  8888                           
  8889                           ;Event_store.c: 37:         log_write_addr = 0;
  8890     17FD  01C8               	clrf	_log_write_addr^(0+128)
  8891     17FE  01C9               	clrf	(_log_write_addr+1)^(0+128)
  8892     17FF                     l185:
  8893     17FF  0008               	return
  8894     1800                     __end_of_store_event:
  8895                           
  8896                           	psect	text26
  8897     1F6A                     __ptext26:	
  8898 ;; *************** function _write_external_eeprom *****************
  8899 ;; Defined at:
  8900 ;;		line 4 in file "external_eeprom.c"
  8901 ;; Parameters:    Size  Location     Type
  8902 ;;  address         1    wreg     unsigned char 
  8903 ;;  data            1    3[COMMON] unsigned char 
  8904 ;; Auto vars:     Size  Location     Type
  8905 ;;  address         1    6[COMMON] unsigned char 
  8906 ;;  wait            2    4[COMMON] unsigned int 
  8907 ;; Return value:  Size  Location     Type
  8908 ;;                  1    wreg      void 
  8909 ;; Registers used:
  8910 ;;		wreg, status,2, status,0, pclath, cstack
  8911 ;; Tracked objects:
  8912 ;;		On entry : 0/0
  8913 ;;		On exit  : 0/0
  8914 ;;		Unchanged: 0/0
  8915 ;; Data sizes:     COMMON   BANK0   BANK1   BANK3   BANK2
  8916 ;;      Params:         1       0       0       0       0
  8917 ;;      Locals:         3       0       0       0       0
  8918 ;;      Temps:          0       0       0       0       0
  8919 ;;      Totals:         4       0       0       0       0
  8920 ;;Total ram usage:        4 bytes
  8921 ;; Hardware stack levels used: 1
  8922 ;; Hardware stack levels required when called: 2
  8923 ;; This function calls:
  8924 ;;		_i2c_start
  8925 ;;		_i2c_stop
  8926 ;;		_i2c_write
  8927 ;; This function is called by:
  8928 ;;		_store_event
  8929 ;; This function uses a non-reentrant model
  8930 ;;
  8931                           
  8932     1F6A                     _write_external_eeprom:	
  8933                           ;psect for function _write_external_eeprom
  8934                           
  8935                           
  8936                           ;incstack = 0
  8937                           ; Regs used in _write_external_eeprom: [wreg+status,2+status,0+pclath+cstack]
  8938                           ;write_external_eeprom@address stored from wreg
  8939     1F6A  00F6               	movwf	write_external_eeprom@address
  8940     1F6B                     l2839:
  8941                           
  8942                           ;external_eeprom.c: 4: void write_external_eeprom(unsigned char address, unsigned char d
      +                          ata);external_eeprom.c: 5: {;external_eeprom.c: 6:     i2c_start();
  8943     1F6B  160A  158A  2518  160A  158A  	fcall	_i2c_start
  8944                           
  8945                           ;external_eeprom.c: 7:     i2c_write(0xA0);
  8946     1F70  30A0               	movlw	160
  8947     1F71  160A  158A  252C  160A  158A  	fcall	_i2c_write
  8948                           
  8949                           ;external_eeprom.c: 8:     i2c_write(address);
  8950     1F76  0876               	movf	write_external_eeprom@address,w
  8951     1F77  160A  158A  252C  160A  158A  	fcall	_i2c_write
  8952                           
  8953                           ;external_eeprom.c: 9:     i2c_write(data);
  8954     1F7C  0873               	movf	write_external_eeprom@data,w
  8955     1F7D  160A  158A  252C  160A  158A  	fcall	_i2c_write
  8956                           
  8957                           ;external_eeprom.c: 10:     i2c_stop();
  8958     1F82  120A  118A  27F7  160A  158A  	fcall	_i2c_stop
  8959     1F87                     l2841:
  8960                           
  8961                           ;external_eeprom.c: 11:     for (unsigned int wait = 3000;wait--;);
  8962     1F87  30B8               	movlw	184
  8963     1F88  00F4               	movwf	write_external_eeprom@wait
  8964     1F89  300B               	movlw	11
  8965     1F8A  00F5               	movwf	write_external_eeprom@wait+1
  8966     1F8B                     l2843:
  8967     1F8B  3001               	movlw	1
  8968     1F8C  02F4               	subwf	write_external_eeprom@wait,f
  8969     1F8D  3000               	movlw	0
  8970     1F8E  1C03               	skipc
  8971     1F8F  03F5               	decf	write_external_eeprom@wait+1,f
  8972     1F90  02F5               	subwf	write_external_eeprom@wait+1,f
  8973     1F91  0A74               	incf	write_external_eeprom@wait,w
  8974     1F92  1D03               	skipz
  8975     1F93  2F98               	goto	u2261
  8976     1F94  0A75               	incf	write_external_eeprom@wait+1,w
  8977     1F95  1D03               	btfss	3,2
  8978     1F96  2F98               	goto	u2261
  8979     1F97  2F99               	goto	u2260
  8980     1F98                     u2261:
  8981     1F98  2F8B               	goto	l2843
  8982     1F99                     u2260:
  8983     1F99                     l201:
  8984     1F99  0008               	return
  8985     1F9A                     __end_of_write_external_eeprom:
  8986                           
  8987                           	psect	text27
  8988     1DAF                     __ptext27:	
  8989 ;; *************** function _read_adc *****************
  8990 ;; Defined at:
  8991 ;;		line 13 in file "adc.c"
  8992 ;; Parameters:    Size  Location     Type
  8993 ;;  channel         1    wreg     unsigned char 
  8994 ;; Auto vars:     Size  Location     Type
  8995 ;;  channel         1    7[COMMON] unsigned char 
  8996 ;;  adc_reg_val     2    5[COMMON] unsigned short 
  8997 ;; Return value:  Size  Location     Type
  8998 ;;                  2    2[COMMON] unsigned short 
  8999 ;; Registers used:
  9000 ;;		wreg, status,2, status,0
  9001 ;; Tracked objects:
  9002 ;;		On entry : 0/0
  9003 ;;		On exit  : 0/0
  9004 ;;		Unchanged: 0/0
  9005 ;; Data sizes:     COMMON   BANK0   BANK1   BANK3   BANK2
  9006 ;;      Params:         2       0       0       0       0
  9007 ;;      Locals:         3       0       0       0       0
  9008 ;;      Temps:          1       0       0       0       0
  9009 ;;      Totals:         6       0       0       0       0
  9010 ;;Total ram usage:        6 bytes
  9011 ;; Hardware stack levels used: 1
  9012 ;; Hardware stack levels required when called: 1
  9013 ;; This function calls:
  9014 ;;		Nothing
  9015 ;; This function is called by:
  9016 ;;		_dashboard
  9017 ;; This function uses a non-reentrant model
  9018 ;;
  9019                           
  9020     1DAF                     _read_adc:	
  9021                           ;psect for function _read_adc
  9022                           
  9023                           
  9024                           ;incstack = 0
  9025                           ; Regs used in _read_adc: [wreg+status,2+status,0]
  9026                           ;read_adc@channel stored from wreg
  9027     1DAF  00F7               	movwf	read_adc@channel
  9028     1DB0                     l2873:
  9029                           
  9030                           ;adc.c: 13: unsigned short read_adc(unsigned char channel);adc.c: 14: {;adc.c: 15:     u
      +                          nsigned short adc_reg_val;;adc.c: 18:     ADCON0 = (ADCON0 & 0xC7) | (channel << 3);
  9031     1DB0  0877               	movf	read_adc@channel,w
  9032     1DB1  00F4               	movwf	??_read_adc
  9033     1DB2  3003               	movlw	3
  9034     1DB3                     u2355:
  9035     1DB3  1003               	clrc
  9036     1DB4  0DF4               	rlf	??_read_adc,f
  9037     1DB5  3EFF               	addlw	-1
  9038     1DB6  1D03               	skipz
  9039     1DB7  2DB3               	goto	u2355
  9040     1DB8  1283               	bcf	3,5	;RP0=0, select bank0
  9041     1DB9  1303               	bcf	3,6	;RP1=0, select bank0
  9042     1DBA  081F               	movf	31,w	;volatile
  9043     1DBB  39C7               	andlw	199
  9044     1DBC  0474               	iorwf	??_read_adc,w
  9045     1DBD  009F               	movwf	31	;volatile
  9046     1DBE                     l2875:
  9047                           
  9048                           ;adc.c: 21:     GO = 1;
  9049     1DBE  151F               	bsf	31,2	;volatile
  9050     1DBF                     l20:	
  9051                           ;adc.c: 23:     while (nDONE);
  9052                           
  9053     1DBF  191F               	btfsc	31,2	;volatile
  9054     1DC0  2DC2               	goto	u2361
  9055     1DC1  2DC3               	goto	u2360
  9056     1DC2                     u2361:
  9057     1DC2  2DBF               	goto	l20
  9058     1DC3                     u2360:
  9059     1DC3                     l2877:
  9060                           
  9061                           ;adc.c: 25:     adc_reg_val = (ADRESH << 8) | ADRESL;
  9062     1DC3  081E               	movf	30,w	;volatile
  9063     1DC4  00F6               	movwf	read_adc@adc_reg_val+1
  9064     1DC5  1683               	bsf	3,5	;RP0=1, select bank1
  9065     1DC6  1303               	bcf	3,6	;RP1=0, select bank1
  9066     1DC7  081E               	movf	30,w	;volatile
  9067     1DC8  00F5               	movwf	read_adc@adc_reg_val
  9068                           
  9069                           ;adc.c: 27:     return adc_reg_val;
  9070     1DC9  0876               	movf	read_adc@adc_reg_val+1,w
  9071     1DCA  00F3               	movwf	?_read_adc+1
  9072     1DCB  0875               	movf	read_adc@adc_reg_val,w
  9073     1DCC  00F2               	movwf	?_read_adc
  9074     1DCD                     l23:
  9075     1DCD  0008               	return
  9076     1DCE                     __end_of_read_adc:
  9077                           
  9078                           	psect	text28
  9079     1DED                     __ptext28:	
  9080 ;; *************** function _get_time *****************
  9081 ;; Defined at:
  9082 ;;		line 37 in file "ds1307.c"
  9083 ;; Parameters:    Size  Location     Type
  9084 ;;  clock_reg       1    6[COMMON] PTR unsigned char 
  9085 ;;		 -> set_time@time(3), clock_reg(3), 
  9086 ;; Auto vars:     Size  Location     Type
  9087 ;;		None
  9088 ;; Return value:  Size  Location     Type
  9089 ;;                  1    wreg      void 
  9090 ;; Registers used:
  9091 ;;		wreg, fsr0l, fsr0h, status,2, status,0, pclath, cstack
  9092 ;; Tracked objects:
  9093 ;;		On entry : 0/0
  9094 ;;		On exit  : 0/0
  9095 ;;		Unchanged: 0/0
  9096 ;; Data sizes:     COMMON   BANK0   BANK1   BANK3   BANK2
  9097 ;;      Params:         1       0       0       0       0
  9098 ;;      Locals:         0       0       0       0       0
  9099 ;;      Temps:          0       0       0       0       0
  9100 ;;      Totals:         1       0       0       0       0
  9101 ;;Total ram usage:        1 bytes
  9102 ;; Hardware stack levels used: 1
  9103 ;; Hardware stack levels required when called: 1
  9104 ;; This function calls:
  9105 ;;		_read_ds1307
  9106 ;; This function is called by:
  9107 ;;		_dashboard
  9108 ;;		_set_time
  9109 ;; This function uses a non-reentrant model
  9110 ;;
  9111                           
  9112     1DED                     _get_time:	
  9113                           ;psect for function _get_time
  9114                           
  9115     1DED                     l2911:	
  9116                           ;incstack = 0
  9117                           ; Regs used in _get_time: [wreg-fsr0h+status,2+status,0+pclath+cstack]
  9118                           
  9119                           
  9120                           ;ds1307.c: 37: void get_time(unsigned char *clock_reg);ds1307.c: 38: {;ds1307.c: 39:    
      +                           clock_reg[0] = read_ds1307(0x02);
  9121     1DED  0876               	movf	get_time@clock_reg,w
  9122     1DEE  0084               	movwf	4
  9123     1DEF  3002               	movlw	2
  9124     1DF0  160A  158A  26E5  160A  158A  	fcall	_read_ds1307
  9125     1DF5  1383               	bcf	3,7	;select IRP bank0
  9126     1DF6  0080               	movwf	0
  9127                           
  9128                           ;ds1307.c: 40:     clock_reg[1] = read_ds1307(0x01);
  9129     1DF7  0A76               	incf	get_time@clock_reg,w
  9130     1DF8  0084               	movwf	4
  9131     1DF9  3001               	movlw	1
  9132     1DFA  160A  158A  26E5  160A  158A  	fcall	_read_ds1307
  9133     1DFF  1383               	bcf	3,7	;select IRP bank0
  9134     1E00  0080               	movwf	0
  9135                           
  9136                           ;ds1307.c: 41:     clock_reg[2] = read_ds1307(0x00);
  9137     1E01  0876               	movf	get_time@clock_reg,w
  9138     1E02  3E02               	addlw	2
  9139     1E03  0084               	movwf	4
  9140     1E04  3000               	movlw	0
  9141     1E05  160A  158A  26E5  160A  158A  	fcall	_read_ds1307
  9142     1E0A  1383               	bcf	3,7	;select IRP bank0
  9143     1E0B  0080               	movwf	0
  9144     1E0C                     l170:
  9145     1E0C  0008               	return
  9146     1E0D                     __end_of_get_time:
  9147                           
  9148                           	psect	text29
  9149     1EE5                     __ptext29:	
  9150 ;; *************** function _read_ds1307 *****************
  9151 ;; Defined at:
  9152 ;;		line 13 in file "ds1307.c"
  9153 ;; Parameters:    Size  Location     Type
  9154 ;;  addr            1    wreg     unsigned char 
  9155 ;; Auto vars:     Size  Location     Type
  9156 ;;  addr            1    4[COMMON] unsigned char 
  9157 ;;  data            1    5[COMMON] unsigned char 
  9158 ;; Return value:  Size  Location     Type
  9159 ;;                  1    wreg      unsigned char 
  9160 ;; Registers used:
  9161 ;;		wreg, status,2, status,0, pclath, cstack
  9162 ;; Tracked objects:
  9163 ;;		On entry : 0/0
  9164 ;;		On exit  : 0/0
  9165 ;;		Unchanged: 0/0
  9166 ;; Data sizes:     COMMON   BANK0   BANK1   BANK3   BANK2
  9167 ;;      Params:         0       0       0       0       0
  9168 ;;      Locals:         2       0       0       0       0
  9169 ;;      Temps:          0       0       0       0       0
  9170 ;;      Totals:         2       0       0       0       0
  9171 ;;Total ram usage:        2 bytes
  9172 ;; Hardware stack levels used: 1
  9173 ;; Hardware stack levels required when called: 1
  9174 ;; This function calls:
  9175 ;;		_i2c_read
  9176 ;;		_i2c_rep_start
  9177 ;;		_i2c_start
  9178 ;;		_i2c_stop
  9179 ;;		_i2c_write
  9180 ;; This function is called by:
  9181 ;;		_init_ds1307
  9182 ;;		_get_time
  9183 ;; This function uses a non-reentrant model
  9184 ;;
  9185                           
  9186     1EE5                     _read_ds1307:	
  9187                           ;psect for function _read_ds1307
  9188                           
  9189                           
  9190                           ;incstack = 0
  9191                           ; Regs used in _read_ds1307: [wreg+status,2+status,0+pclath+cstack]
  9192                           ;read_ds1307@addr stored from wreg
  9193     1EE5  00F4               	movwf	read_ds1307@addr
  9194     1EE6                     l2831:
  9195                           
  9196                           ;ds1307.c: 13: unsigned char read_ds1307(unsigned char addr);ds1307.c: 14: {;ds1307.c: 1
      +                          5:     unsigned char data;;ds1307.c: 17:     i2c_start();
  9197     1EE6  160A  158A  2518  160A  158A  	fcall	_i2c_start
  9198                           
  9199                           ;ds1307.c: 18:     i2c_write(0b11010000);
  9200     1EEB  30D0               	movlw	208
  9201     1EEC  160A  158A  252C  160A  158A  	fcall	_i2c_write
  9202                           
  9203                           ;ds1307.c: 19:     i2c_write(addr);
  9204     1EF1  0874               	movf	read_ds1307@addr,w
  9205     1EF2  160A  158A  252C  160A  158A  	fcall	_i2c_write
  9206                           
  9207                           ;ds1307.c: 20:     i2c_rep_start();
  9208     1EF7  160A  158A  2521  160A  158A  	fcall	_i2c_rep_start
  9209                           
  9210                           ;ds1307.c: 21:     i2c_write(0b11010001);
  9211     1EFC  30D1               	movlw	209
  9212     1EFD  160A  158A  252C  160A  158A  	fcall	_i2c_write
  9213                           
  9214                           ;ds1307.c: 22:     data = i2c_read(0);
  9215     1F02  3000               	movlw	0
  9216     1F03  160A  158A  260D  160A  158A  	fcall	_i2c_read
  9217     1F08  00F5               	movwf	read_ds1307@data
  9218                           
  9219                           ;ds1307.c: 23:     i2c_stop();
  9220     1F09  120A  118A  27F7  160A  158A  	fcall	_i2c_stop
  9221     1F0E                     l2833:
  9222                           
  9223                           ;ds1307.c: 25:     return data;
  9224     1F0E  0875               	movf	read_ds1307@data,w
  9225     1F0F                     l164:
  9226     1F0F  0008               	return
  9227     1F10                     __end_of_read_ds1307:
  9228                           
  9229                           	psect	text30
  9230     1D2C                     __ptext30:	
  9231 ;; *************** function _i2c_write *****************
  9232 ;; Defined at:
  9233 ;;		line 65 in file "i2c.c"
  9234 ;; Parameters:    Size  Location     Type
  9235 ;;  data            1    wreg     unsigned char 
  9236 ;; Auto vars:     Size  Location     Type
  9237 ;;  data            1    2[COMMON] unsigned char 
  9238 ;; Return value:  Size  Location     Type
  9239 ;;                  2  148[None  ] int 
  9240 ;; Registers used:
  9241 ;;		wreg, status,2, status,0, pclath, cstack
  9242 ;; Tracked objects:
  9243 ;;		On entry : 0/0
  9244 ;;		On exit  : 0/0
  9245 ;;		Unchanged: 0/0
  9246 ;; Data sizes:     COMMON   BANK0   BANK1   BANK3   BANK2
  9247 ;;      Params:         0       0       0       0       0
  9248 ;;      Locals:         1       0       0       0       0
  9249 ;;      Temps:          0       0       0       0       0
  9250 ;;      Totals:         1       0       0       0       0
  9251 ;;Total ram usage:        1 bytes
  9252 ;; Hardware stack levels used: 1
  9253 ;; Hardware stack levels required when called: 1
  9254 ;; This function calls:
  9255 ;;		_i2c_wait_for_idle
  9256 ;; This function is called by:
  9257 ;;		_read_ds1307
  9258 ;;		_write_ds1307
  9259 ;;		_write_external_eeprom
  9260 ;;		_read_external_eeprom
  9261 ;; This function uses a non-reentrant model
  9262 ;;
  9263                           
  9264     1D2C                     _i2c_write:	
  9265                           ;psect for function _i2c_write
  9266                           
  9267                           
  9268                           ;incstack = 0
  9269                           ; Regs used in _i2c_write: [wreg+status,2+status,0+pclath+cstack]
  9270                           ;i2c_write@data stored from wreg
  9271     1D2C  00F2               	movwf	i2c_write@data
  9272     1D2D                     l2775:
  9273                           
  9274                           ;i2c.c: 65: int i2c_write(unsigned char data);i2c.c: 66: {;i2c.c: 67:     i2c_wait_for_i
      +                          dle();
  9275     1D2D  160A  158A  2558  160A  158A  	fcall	_i2c_wait_for_idle
  9276     1D32                     l2777:
  9277                           
  9278                           ;i2c.c: 68:     SSPBUF = data;
  9279     1D32  0872               	movf	i2c_write@data,w
  9280     1D33  1283               	bcf	3,5	;RP0=0, select bank0
  9281     1D34  1303               	bcf	3,6	;RP1=0, select bank0
  9282     1D35  0093               	movwf	19	;volatile
  9283     1D36                     l2779:
  9284     1D36                     l256:	
  9285                           ;i2c.c: 70:     return !ACKSTAT;;	Return value of _i2c_write is never used
  9286                           
  9287     1D36  0008               	return
  9288     1D37                     __end_of_i2c_write:
  9289                           
  9290                           	psect	text31
  9291     1D21                     __ptext31:	
  9292 ;; *************** function _i2c_rep_start *****************
  9293 ;; Defined at:
  9294 ;;		line 28 in file "i2c.c"
  9295 ;; Parameters:    Size  Location     Type
  9296 ;;		None
  9297 ;; Auto vars:     Size  Location     Type
  9298 ;;		None
  9299 ;; Return value:  Size  Location     Type
  9300 ;;                  1    wreg      void 
  9301 ;; Registers used:
  9302 ;;		wreg, status,2, status,0, pclath, cstack
  9303 ;; Tracked objects:
  9304 ;;		On entry : 0/0
  9305 ;;		On exit  : 0/0
  9306 ;;		Unchanged: 0/0
  9307 ;; Data sizes:     COMMON   BANK0   BANK1   BANK3   BANK2
  9308 ;;      Params:         0       0       0       0       0
  9309 ;;      Locals:         0       0       0       0       0
  9310 ;;      Temps:          0       0       0       0       0
  9311 ;;      Totals:         0       0       0       0       0
  9312 ;;Total ram usage:        0 bytes
  9313 ;; Hardware stack levels used: 1
  9314 ;; Hardware stack levels required when called: 1
  9315 ;; This function calls:
  9316 ;;		_i2c_start
  9317 ;;		_i2c_stop
  9318 ;; This function is called by:
  9319 ;;		_read_ds1307
  9320 ;;		_read_external_eeprom
  9321 ;; This function uses a non-reentrant model
  9322 ;;
  9323                           
  9324     1D21                     _i2c_rep_start:	
  9325                           ;psect for function _i2c_rep_start
  9326                           
  9327     1D21                     l2783:	
  9328                           ;incstack = 0
  9329                           ; Regs used in _i2c_rep_start: [wreg+status,2+status,0+pclath+cstack]
  9330                           
  9331                           
  9332                           ;i2c.c: 30:     i2c_stop();
  9333     1D21  120A  118A  27F7  160A  158A  	fcall	_i2c_stop
  9334                           
  9335                           ;i2c.c: 31:     i2c_start();
  9336     1D26  160A  158A  2518  160A  158A  	fcall	_i2c_start
  9337     1D2B                     l245:
  9338     1D2B  0008               	return
  9339     1D2C                     __end_of_i2c_rep_start:
  9340                           
  9341                           	psect	text32
  9342     07F7                     __ptext32:	
  9343 ;; *************** function _i2c_stop *****************
  9344 ;; Defined at:
  9345 ;;		line 35 in file "i2c.c"
  9346 ;; Parameters:    Size  Location     Type
  9347 ;;		None
  9348 ;; Auto vars:     Size  Location     Type
  9349 ;;		None
  9350 ;; Return value:  Size  Location     Type
  9351 ;;                  1    wreg      void 
  9352 ;; Registers used:
  9353 ;;		wreg, status,2, status,0, pclath, cstack
  9354 ;; Tracked objects:
  9355 ;;		On entry : 0/0
  9356 ;;		On exit  : 0/0
  9357 ;;		Unchanged: 0/0
  9358 ;; Data sizes:     COMMON   BANK0   BANK1   BANK3   BANK2
  9359 ;;      Params:         0       0       0       0       0
  9360 ;;      Locals:         0       0       0       0       0
  9361 ;;      Temps:          0       0       0       0       0
  9362 ;;      Totals:         0       0       0       0       0
  9363 ;;Total ram usage:        0 bytes
  9364 ;; Hardware stack levels used: 1
  9365 ;; Hardware stack levels required when called: 1
  9366 ;; This function calls:
  9367 ;;		_i2c_wait_for_idle
  9368 ;; This function is called by:
  9369 ;;		_read_ds1307
  9370 ;;		_write_ds1307
  9371 ;;		_write_external_eeprom
  9372 ;;		_read_external_eeprom
  9373 ;;		_i2c_rep_start
  9374 ;; This function uses a non-reentrant model
  9375 ;;
  9376                           
  9377     07F7                     _i2c_stop:	
  9378                           ;psect for function _i2c_stop
  9379                           
  9380     07F7                     l2751:	
  9381                           ;incstack = 0
  9382                           ; Regs used in _i2c_stop: [wreg+status,2+status,0+pclath+cstack]
  9383                           
  9384                           
  9385                           ;i2c.c: 37:     i2c_wait_for_idle();
  9386     07F7  160A  158A  2558  120A  118A  	fcall	_i2c_wait_for_idle
  9387     07FC                     l2753:
  9388                           
  9389                           ;i2c.c: 38:     PEN = 1;
  9390     07FC  1683               	bsf	3,5	;RP0=1, select bank1
  9391     07FD  1303               	bcf	3,6	;RP1=0, select bank1
  9392     07FE  1511               	bsf	17,2	;volatile
  9393     07FF                     l248:
  9394     07FF  0008               	return
  9395     0800                     __end_of_i2c_stop:
  9396                           
  9397                           	psect	text33
  9398     1D18                     __ptext33:	
  9399 ;; *************** function _i2c_start *****************
  9400 ;; Defined at:
  9401 ;;		line 22 in file "i2c.c"
  9402 ;; Parameters:    Size  Location     Type
  9403 ;;		None
  9404 ;; Auto vars:     Size  Location     Type
  9405 ;;		None
  9406 ;; Return value:  Size  Location     Type
  9407 ;;                  1    wreg      void 
  9408 ;; Registers used:
  9409 ;;		wreg, status,2, status,0, pclath, cstack
  9410 ;; Tracked objects:
  9411 ;;		On entry : 0/0
  9412 ;;		On exit  : 0/0
  9413 ;;		Unchanged: 0/0
  9414 ;; Data sizes:     COMMON   BANK0   BANK1   BANK3   BANK2
  9415 ;;      Params:         0       0       0       0       0
  9416 ;;      Locals:         0       0       0       0       0
  9417 ;;      Temps:          0       0       0       0       0
  9418 ;;      Totals:         0       0       0       0       0
  9419 ;;Total ram usage:        0 bytes
  9420 ;; Hardware stack levels used: 1
  9421 ;; Hardware stack levels required when called: 1
  9422 ;; This function calls:
  9423 ;;		_i2c_wait_for_idle
  9424 ;; This function is called by:
  9425 ;;		_read_ds1307
  9426 ;;		_write_ds1307
  9427 ;;		_write_external_eeprom
  9428 ;;		_read_external_eeprom
  9429 ;;		_i2c_rep_start
  9430 ;; This function uses a non-reentrant model
  9431 ;;
  9432                           
  9433     1D18                     _i2c_start:	
  9434                           ;psect for function _i2c_start
  9435                           
  9436     1D18                     l2747:	
  9437                           ;incstack = 0
  9438                           ; Regs used in _i2c_start: [wreg+status,2+status,0+pclath+cstack]
  9439                           
  9440                           
  9441                           ;i2c.c: 24:     i2c_wait_for_idle();
  9442     1D18  160A  158A  2558  160A  158A  	fcall	_i2c_wait_for_idle
  9443     1D1D                     l2749:
  9444                           
  9445                           ;i2c.c: 25:     SEN = 1;
  9446     1D1D  1683               	bsf	3,5	;RP0=1, select bank1
  9447     1D1E  1303               	bcf	3,6	;RP1=0, select bank1
  9448     1D1F  1411               	bsf	17,0	;volatile
  9449     1D20                     l242:
  9450     1D20  0008               	return
  9451     1D21                     __end_of_i2c_start:
  9452                           
  9453                           	psect	text34
  9454     1E0D                     __ptext34:	
  9455 ;; *************** function _i2c_read *****************
  9456 ;; Defined at:
  9457 ;;		line 41 in file "i2c.c"
  9458 ;; Parameters:    Size  Location     Type
  9459 ;;  ack             1    wreg     unsigned char 
  9460 ;; Auto vars:     Size  Location     Type
  9461 ;;  ack             1    2[COMMON] unsigned char 
  9462 ;;  data            1    3[COMMON] unsigned char 
  9463 ;; Return value:  Size  Location     Type
  9464 ;;                  1    wreg      unsigned char 
  9465 ;; Registers used:
  9466 ;;		wreg, status,2, status,0, pclath, cstack
  9467 ;; Tracked objects:
  9468 ;;		On entry : 0/0
  9469 ;;		On exit  : 0/0
  9470 ;;		Unchanged: 0/0
  9471 ;; Data sizes:     COMMON   BANK0   BANK1   BANK3   BANK2
  9472 ;;      Params:         0       0       0       0       0
  9473 ;;      Locals:         2       0       0       0       0
  9474 ;;      Temps:          0       0       0       0       0
  9475 ;;      Totals:         2       0       0       0       0
  9476 ;;Total ram usage:        2 bytes
  9477 ;; Hardware stack levels used: 1
  9478 ;; Hardware stack levels required when called: 1
  9479 ;; This function calls:
  9480 ;;		_i2c_wait_for_idle
  9481 ;; This function is called by:
  9482 ;;		_read_ds1307
  9483 ;;		_read_external_eeprom
  9484 ;; This function uses a non-reentrant model
  9485 ;;
  9486                           
  9487     1E0D                     _i2c_read:	
  9488                           ;psect for function _i2c_read
  9489                           
  9490                           
  9491                           ;incstack = 0
  9492                           ; Regs used in _i2c_read: [wreg+status,2+status,0+pclath+cstack]
  9493                           ;i2c_read@ack stored from wreg
  9494     1E0D  00F2               	movwf	i2c_read@ack
  9495     1E0E                     l2785:
  9496                           
  9497                           ;i2c.c: 41: unsigned char i2c_read(unsigned char ack);i2c.c: 42: {;i2c.c: 43:     unsign
      +                          ed char data;;i2c.c: 45:     i2c_wait_for_idle();
  9498     1E0E  160A  158A  2558  160A  158A  	fcall	_i2c_wait_for_idle
  9499     1E13                     l2787:
  9500                           
  9501                           ;i2c.c: 46:     RCEN = 1;
  9502     1E13  1683               	bsf	3,5	;RP0=1, select bank1
  9503     1E14  1303               	bcf	3,6	;RP1=0, select bank1
  9504     1E15  1591               	bsf	17,3	;volatile
  9505                           
  9506                           ;i2c.c: 48:     i2c_wait_for_idle();
  9507     1E16  160A  158A  2558  160A  158A  	fcall	_i2c_wait_for_idle
  9508     1E1B                     l2789:
  9509                           
  9510                           ;i2c.c: 49:     data = SSPBUF;
  9511     1E1B  1283               	bcf	3,5	;RP0=0, select bank0
  9512     1E1C  1303               	bcf	3,6	;RP1=0, select bank0
  9513     1E1D  0813               	movf	19,w	;volatile
  9514     1E1E  00F3               	movwf	i2c_read@data
  9515     1E1F                     l2791:
  9516                           
  9517                           ;i2c.c: 51:     if (ack == 1)
  9518     1E1F  0372               	decf	i2c_read@ack,w
  9519     1E20  1D03               	btfss	3,2
  9520     1E21  2E23               	goto	u2241
  9521     1E22  2E24               	goto	u2240
  9522     1E23                     u2241:
  9523     1E23  2E28               	goto	l251
  9524     1E24                     u2240:
  9525     1E24                     l2793:
  9526                           
  9527                           ;i2c.c: 52:     {;i2c.c: 53:         ACKDT = 1;
  9528     1E24  1683               	bsf	3,5	;RP0=1, select bank1
  9529     1E25  1303               	bcf	3,6	;RP1=0, select bank1
  9530     1E26  1691               	bsf	17,5	;volatile
  9531                           
  9532                           ;i2c.c: 54:     }
  9533     1E27  2E2B               	goto	l252
  9534     1E28                     l251:	
  9535                           ;i2c.c: 55:     else
  9536                           
  9537                           
  9538                           ;i2c.c: 56:     {;i2c.c: 57:         ACKDT = 0;
  9539     1E28  1683               	bsf	3,5	;RP0=1, select bank1
  9540     1E29  1303               	bcf	3,6	;RP1=0, select bank1
  9541     1E2A  1291               	bcf	17,5	;volatile
  9542     1E2B                     l252:	
  9543                           ;i2c.c: 58:     }
  9544                           
  9545                           
  9546                           ;i2c.c: 60:     ACKEN = 1;
  9547     1E2B  1611               	bsf	17,4	;volatile
  9548     1E2C                     l2795:
  9549                           
  9550                           ;i2c.c: 62:     return data;
  9551     1E2C  0873               	movf	i2c_read@data,w
  9552     1E2D                     l253:
  9553     1E2D  0008               	return
  9554     1E2E                     __end_of_i2c_read:
  9555                           
  9556                           	psect	text35
  9557     1D58                     __ptext35:	
  9558 ;; *************** function _i2c_wait_for_idle *****************
  9559 ;; Defined at:
  9560 ;;		line 16 in file "i2c.c"
  9561 ;; Parameters:    Size  Location     Type
  9562 ;;		None
  9563 ;; Auto vars:     Size  Location     Type
  9564 ;;		None
  9565 ;; Return value:  Size  Location     Type
  9566 ;;                  1    wreg      void 
  9567 ;; Registers used:
  9568 ;;		wreg, status,2
  9569 ;; Tracked objects:
  9570 ;;		On entry : 0/0
  9571 ;;		On exit  : 0/0
  9572 ;;		Unchanged: 0/0
  9573 ;; Data sizes:     COMMON   BANK0   BANK1   BANK3   BANK2
  9574 ;;      Params:         0       0       0       0       0
  9575 ;;      Locals:         0       0       0       0       0
  9576 ;;      Temps:          0       0       0       0       0
  9577 ;;      Totals:         0       0       0       0       0
  9578 ;;Total ram usage:        0 bytes
  9579 ;; Hardware stack levels used: 1
  9580 ;; Hardware stack levels required when called: 1
  9581 ;; This function calls:
  9582 ;;		Nothing
  9583 ;; This function is called by:
  9584 ;;		_i2c_start
  9585 ;;		_i2c_stop
  9586 ;;		_i2c_read
  9587 ;;		_i2c_write
  9588 ;; This function uses a non-reentrant model
  9589 ;;
  9590                           
  9591     1D58                     _i2c_wait_for_idle:	
  9592                           ;psect for function _i2c_wait_for_idle
  9593                           
  9594     1D58                     l2743:	
  9595                           ;incstack = 0
  9596                           ; Regs used in _i2c_wait_for_idle: [wreg+status,2]
  9597                           
  9598     1D58                     l236:	
  9599                           ;i2c.c: 19:     while (R_nW || (SSPCON2 & 0x1F));
  9600                           
  9601     1D58  1683               	bsf	3,5	;RP0=1, select bank1
  9602     1D59  1303               	bcf	3,6	;RP1=0, select bank1
  9603     1D5A  1914               	btfsc	20,2	;volatile
  9604     1D5B  2D5D               	goto	u2191
  9605     1D5C  2D5E               	goto	u2190
  9606     1D5D                     u2191:
  9607     1D5D  2D58               	goto	l236
  9608     1D5E                     u2190:
  9609     1D5E                     l2745:
  9610     1D5E  0811               	movf	17,w	;volatile
  9611     1D5F  391F               	andlw	31
  9612     1D60  1D03               	btfss	3,2
  9613     1D61  2D63               	goto	u2201
  9614     1D62  2D64               	goto	u2200
  9615     1D63                     u2201:
  9616     1D63  2D58               	goto	l236
  9617     1D64                     u2200:
  9618     1D64                     l239:
  9619     1D64  0008               	return
  9620     1D65                     __end_of_i2c_wait_for_idle:
  9621                           
  9622                           	psect	text36
  9623     1318                     __ptext36:	
  9624 ;; *************** function _display_time *****************
  9625 ;; Defined at:
  9626 ;;		line 43 in file "ds1307.c"
  9627 ;; Parameters:    Size  Location     Type
  9628 ;;  clock_reg       1    6[COMMON] PTR unsigned char 
  9629 ;;		 -> clock_reg(3), 
  9630 ;; Auto vars:     Size  Location     Type
  9631 ;;		None
  9632 ;; Return value:  Size  Location     Type
  9633 ;;                  1    wreg      void 
  9634 ;; Registers used:
  9635 ;;		wreg, fsr0l, fsr0h, status,2, status,0, pclath, btemp1, cstack
  9636 ;; Tracked objects:
  9637 ;;		On entry : 0/0
  9638 ;;		On exit  : 0/0
  9639 ;;		Unchanged: 0/0
  9640 ;; Data sizes:     COMMON   BANK0   BANK1   BANK3   BANK2
  9641 ;;      Params:         1       0       0       0       0
  9642 ;;      Locals:         0       0       0       0       0
  9643 ;;      Temps:          1       0       0       0       0
  9644 ;;      Totals:         2       0       0       0       0
  9645 ;;Total ram usage:        2 bytes
  9646 ;; Hardware stack levels used: 1
  9647 ;; Hardware stack levels required when called: 2
  9648 ;; This function calls:
  9649 ;;		_clcd_print
  9650 ;; This function is called by:
  9651 ;;		_dashboard
  9652 ;; This function uses a non-reentrant model
  9653 ;;
  9654                           
  9655     1318                     _display_time:	
  9656                           ;psect for function _display_time
  9657                           
  9658     1318                     l2913:	
  9659                           ;incstack = 0
  9660                           ; Regs used in _display_time: [wreg-fsr0h+status,2+status,0+pclath+btemp1+cstack]
  9661                           
  9662                           
  9663                           ;ds1307.c: 43: void display_time(unsigned char *clock_reg);ds1307.c: 44: {;ds1307.c: 53:
      +                               time[0] = ((clock_reg[0] >> 4) & 0x03) + '0';
  9664     1318  0876               	movf	display_time@clock_reg,w
  9665     1319  0084               	movwf	4
  9666     131A  1383               	bcf	3,7	;select IRP bank0
  9667     131B  0800               	movf	0,w
  9668     131C  00F7               	movwf	??_display_time
  9669     131D  3004               	movlw	4
  9670     131E                     u2435:
  9671     131E  1003               	clrc
  9672     131F  0CF7               	rrf	??_display_time,f
  9673     1320  3EFF               	addlw	-1
  9674     1321  1D03               	skipz
  9675     1322  2B1E               	goto	u2435
  9676     1323  0877               	movf	??_display_time,w
  9677     1324  3903               	andlw	3
  9678     1325  3E30               	addlw	48
  9679     1326  1683               	bsf	3,5	;RP0=1, select bank3
  9680     1327  1703               	bsf	3,6	;RP1=1, select bank3
  9681     1328  00B2               	movwf	_time^(0+384)
  9682                           
  9683                           ;ds1307.c: 54:     time[1] = (clock_reg[0] & 0x0F) + '0';
  9684     1329  0876               	movf	display_time@clock_reg,w
  9685     132A  0084               	movwf	4
  9686     132B  0800               	movf	0,w
  9687     132C  390F               	andlw	15
  9688     132D  3E30               	addlw	48
  9689     132E  00B3               	movwf	(_time^(0+384)+1)
  9690     132F                     l2915:
  9691                           
  9692                           ;ds1307.c: 56:     time[2] = ':';
  9693     132F  303A               	movlw	58
  9694     1330  00B4               	movwf	(_time^(0+384)+2)
  9695                           
  9696                           ;ds1307.c: 58:     time[3] = ((clock_reg[1] >> 4) & 0x07) + '0';
  9697     1331  0A76               	incf	display_time@clock_reg,w
  9698     1332  0084               	movwf	4
  9699     1333  0800               	movf	0,w
  9700     1334  00F7               	movwf	??_display_time
  9701     1335  3004               	movlw	4
  9702     1336                     u2445:
  9703     1336  1003               	clrc
  9704     1337  0CF7               	rrf	??_display_time,f
  9705     1338  3EFF               	addlw	-1
  9706     1339  1D03               	skipz
  9707     133A  2B36               	goto	u2445
  9708     133B  0877               	movf	??_display_time,w
  9709     133C  3907               	andlw	7
  9710     133D  3E30               	addlw	48
  9711     133E  00B5               	movwf	(_time^(0+384)+3)
  9712                           
  9713                           ;ds1307.c: 59:     time[4] = (clock_reg[1] & 0x0F) + '0';
  9714     133F  0A76               	incf	display_time@clock_reg,w
  9715     1340  0084               	movwf	4
  9716     1341  0800               	movf	0,w
  9717     1342  390F               	andlw	15
  9718     1343  3E30               	addlw	48
  9719     1344  00B6               	movwf	(_time^(0+384)+4)
  9720     1345                     l2917:
  9721                           
  9722                           ;ds1307.c: 61:     time[5] = ':';
  9723     1345  303A               	movlw	58
  9724     1346  00B7               	movwf	(_time^(0+384)+5)
  9725                           
  9726                           ;ds1307.c: 63:     time[6] = ((clock_reg[2] >> 4) & 0x07) + '0';
  9727     1347  0876               	movf	display_time@clock_reg,w
  9728     1348  3E02               	addlw	2
  9729     1349  0084               	movwf	4
  9730     134A  0800               	movf	0,w
  9731     134B  00F7               	movwf	??_display_time
  9732     134C  3004               	movlw	4
  9733     134D                     u2455:
  9734     134D  1003               	clrc
  9735     134E  0CF7               	rrf	??_display_time,f
  9736     134F  3EFF               	addlw	-1
  9737     1350  1D03               	skipz
  9738     1351  2B4D               	goto	u2455
  9739     1352  0877               	movf	??_display_time,w
  9740     1353  3907               	andlw	7
  9741     1354  3E30               	addlw	48
  9742     1355  00B8               	movwf	(_time^(0+384)+6)
  9743                           
  9744                           ;ds1307.c: 64:     time[7] = (clock_reg[2] & 0x0F) + '0';
  9745     1356  0876               	movf	display_time@clock_reg,w
  9746     1357  3E02               	addlw	2
  9747     1358  0084               	movwf	4
  9748     1359  0800               	movf	0,w
  9749     135A  390F               	andlw	15
  9750     135B  3E30               	addlw	48
  9751     135C  00B9               	movwf	(_time^(0+384)+7)
  9752     135D                     l2919:
  9753                           
  9754                           ;ds1307.c: 65:     time[8] = '\0';
  9755     135D  01BA               	clrf	(_time^(0+384)+8)
  9756     135E                     l2921:
  9757                           
  9758                           ;ds1307.c: 67:     clcd_print(time, (0xC0 + 0));
  9759     135E  30B2               	movlw	(low (_time| (0+256)))& (0+255)
  9760     135F  1283               	bcf	3,5	;RP0=0, select bank0
  9761     1360  1303               	bcf	3,6	;RP1=0, select bank0
  9762     1361  00A0               	movwf	clcd_print@str
  9763     1362  3001               	movlw	1
  9764     1363  00A1               	movwf	clcd_print@str+1
  9765     1364  30C0               	movlw	192
  9766     1365  00A2               	movwf	clcd_print@addr
  9767     1366  160A  158A  279A  160A  118A  	fcall	_clcd_print
  9768     136B                     l173:
  9769     136B  0008               	return
  9770     136C                     __end_of_display_time:
  9771                           
  9772                           	psect	text37
  9773     0801                     __ptext37:	
  9774 ;; *************** function _clcd_clear_screen *****************
  9775 ;; Defined at:
  9776 ;;		line 34 in file "common.c"
  9777 ;; Parameters:    Size  Location     Type
  9778 ;;		None
  9779 ;; Auto vars:     Size  Location     Type
  9780 ;;		None
  9781 ;; Return value:  Size  Location     Type
  9782 ;;                  1    wreg      void 
  9783 ;; Registers used:
  9784 ;;		wreg, fsr0l, fsr0h, status,2, status,0, pclath, btemp1, cstack
  9785 ;; Tracked objects:
  9786 ;;		On entry : 0/0
  9787 ;;		On exit  : 0/0
  9788 ;;		Unchanged: 0/0
  9789 ;; Data sizes:     COMMON   BANK0   BANK1   BANK3   BANK2
  9790 ;;      Params:         0       0       0       0       0
  9791 ;;      Locals:         0       0       0       0       0
  9792 ;;      Temps:          0       0       0       0       0
  9793 ;;      Totals:         0       0       0       0       0
  9794 ;;Total ram usage:        0 bytes
  9795 ;; Hardware stack levels used: 1
  9796 ;; Hardware stack levels required when called: 2
  9797 ;; This function calls:
  9798 ;;		_clcd_print
  9799 ;; This function is called by:
  9800 ;;		_dashboard
  9801 ;; This function uses a non-reentrant model
  9802 ;;
  9803                           
  9804     0801                     _clcd_clear_screen:	
  9805                           ;psect for function _clcd_clear_screen
  9806                           
  9807     0801                     l2905:	
  9808                           ;incstack = 0
  9809                           ; Regs used in _clcd_clear_screen: [wreg-fsr0h+status,2+status,0+pclath+btemp1+cstack]
  9810                           
  9811     0801  3014               	movlw	low ((STR_37+1)| (0+32768))
  9812     0802  1283               	bcf	3,5	;RP0=0, select bank0
  9813     0803  1303               	bcf	3,6	;RP1=0, select bank0
  9814     0804  00A0               	movwf	clcd_print@str
  9815     0805  3090               	movlw	high ((STR_37+1)| (0+32768))
  9816     0806  00A1               	movwf	clcd_print@str+1
  9817     0807  3080               	movlw	128
  9818     0808  00A2               	movwf	clcd_print@addr
  9819     0809  160A  158A  279A  120A  158A  	fcall	_clcd_print
  9820     080E  3014               	movlw	low ((STR_37+1)| (0+32768))
  9821     080F  1283               	bcf	3,5	;RP0=0, select bank0
  9822     0810  1303               	bcf	3,6	;RP1=0, select bank0
  9823     0811  00A0               	movwf	clcd_print@str
  9824     0812  3090               	movlw	high ((STR_37+1)| (0+32768))
  9825     0813  00A1               	movwf	clcd_print@str+1
  9826     0814  30C0               	movlw	192
  9827     0815  00A2               	movwf	clcd_print@addr
  9828     0816  160A  158A  279A  120A  158A  	fcall	_clcd_print
  9829     081B                     l71:
  9830     081B  0008               	return
  9831     081C                     __end_of_clcd_clear_screen:
  9832                           
  9833                           	psect	text38
  9834     163A                     __ptext38:	
  9835 ;; *************** function ___xxtofl *****************
  9836 ;; Defined at:
  9837 ;;		line 10 in file "C:\Program Files\Microchip\xc8\v3.10\pic\sources\c99\common\xxtofl.c"
  9838 ;; Parameters:    Size  Location     Type
  9839 ;;  sign            1    wreg     unsigned char 
  9840 ;;  val             4    0[BANK0 ] long 
  9841 ;; Auto vars:     Size  Location     Type
  9842 ;;  sign            1    8[BANK0 ] unsigned char 
  9843 ;;  arg             4   10[BANK0 ] unsigned long 
  9844 ;;  exp             1    9[BANK0 ] unsigned char 
  9845 ;; Return value:  Size  Location     Type
  9846 ;;                  4    0[BANK0 ] unsigned char 
  9847 ;; Registers used:
  9848 ;;		wreg, status,2, status,0
  9849 ;; Tracked objects:
  9850 ;;		On entry : 0/0
  9851 ;;		On exit  : 0/0
  9852 ;;		Unchanged: 0/0
  9853 ;; Data sizes:     COMMON   BANK0   BANK1   BANK3   BANK2
  9854 ;;      Params:         0       4       0       0       0
  9855 ;;      Locals:         0       6       0       0       0
  9856 ;;      Temps:          0       4       0       0       0
  9857 ;;      Totals:         0      14       0       0       0
  9858 ;;Total ram usage:       14 bytes
  9859 ;; Hardware stack levels used: 1
  9860 ;; Hardware stack levels required when called: 1
  9861 ;; This function calls:
  9862 ;;		Nothing
  9863 ;; This function is called by:
  9864 ;;		_dashboard
  9865 ;; This function uses a non-reentrant model
  9866 ;;
  9867                           
  9868     163A                     ___xxtofl:	
  9869                           ;psect for function ___xxtofl
  9870                           
  9871                           
  9872                           ;incstack = 0
  9873                           ; Regs used in ___xxtofl: [wreg+status,2+status,0]
  9874                           ;___xxtofl@sign stored from wreg
  9875     163A  1283               	bcf	3,5	;RP0=0, select bank0
  9876     163B  1303               	bcf	3,6	;RP1=0, select bank0
  9877     163C  00A8               	movwf	___xxtofl@sign
  9878     163D                     l3291:
  9879     163D  0828               	movf	___xxtofl@sign,w
  9880     163E  1903               	btfsc	3,2
  9881     163F  2E41               	goto	u3181
  9882     1640  2E42               	goto	u3180
  9883     1641                     u3181:
  9884     1641  2E56               	goto	l3297
  9885     1642                     u3180:
  9886     1642                     l3293:
  9887     1642  1FA3               	btfss	___xxtofl@val+3,7
  9888     1643  2E45               	goto	u3191
  9889     1644  2E46               	goto	u3190
  9890     1645                     u3191:
  9891     1645  2E56               	goto	l3297
  9892     1646                     u3190:
  9893     1646                     l3295:
  9894     1646  0920               	comf	___xxtofl@val,w
  9895     1647  00AA               	movwf	___xxtofl@arg
  9896     1648  0921               	comf	___xxtofl@val+1,w
  9897     1649  00AB               	movwf	___xxtofl@arg+1
  9898     164A  0922               	comf	___xxtofl@val+2,w
  9899     164B  00AC               	movwf	___xxtofl@arg+2
  9900     164C  0923               	comf	___xxtofl@val+3,w
  9901     164D  00AD               	movwf	___xxtofl@arg+3
  9902     164E  0AAA               	incf	___xxtofl@arg,f
  9903     164F  1903               	skipnz
  9904     1650  0AAB               	incf	___xxtofl@arg+1,f
  9905     1651  1903               	skipnz
  9906     1652  0AAC               	incf	___xxtofl@arg+2,f
  9907     1653  1903               	skipnz
  9908     1654  0AAD               	incf	___xxtofl@arg+3,f
  9909     1655  2E5E               	goto	l1236
  9910     1656                     l3297:
  9911     1656  0823               	movf	___xxtofl@val+3,w
  9912     1657  00AD               	movwf	___xxtofl@arg+3
  9913     1658  0822               	movf	___xxtofl@val+2,w
  9914     1659  00AC               	movwf	___xxtofl@arg+2
  9915     165A  0821               	movf	___xxtofl@val+1,w
  9916     165B  00AB               	movwf	___xxtofl@arg+1
  9917     165C  0820               	movf	___xxtofl@val,w
  9918     165D  00AA               	movwf	___xxtofl@arg
  9919     165E                     l1236:
  9920     165E  0823               	movf	___xxtofl@val+3,w
  9921     165F  0422               	iorwf	___xxtofl@val+2,w
  9922     1660  0421               	iorwf	___xxtofl@val+1,w
  9923     1661  0420               	iorwf	___xxtofl@val,w
  9924     1662  1D03               	skipz
  9925     1663  2E65               	goto	u3201
  9926     1664  2E66               	goto	u3200
  9927     1665                     u3201:
  9928     1665  2E6F               	goto	l1237
  9929     1666                     u3200:
  9930     1666                     l3299:
  9931     1666  3000               	movlw	0
  9932     1667  00A3               	movwf	?___xxtofl+3
  9933     1668  3000               	movlw	0
  9934     1669  00A2               	movwf	?___xxtofl+2
  9935     166A  3000               	movlw	0
  9936     166B  00A1               	movwf	?___xxtofl+1
  9937     166C  3000               	movlw	0
  9938     166D  00A0               	movwf	?___xxtofl
  9939     166E  2EEF               	goto	l1238
  9940     166F                     l1237:
  9941     166F  3096               	movlw	150
  9942     1670  00A9               	movwf	___xxtofl@exp
  9943     1671  2E7D               	goto	l3305
  9944     1672                     l3303:
  9945     1672  3001               	movlw	1
  9946     1673  07A9               	addwf	___xxtofl@exp,f
  9947     1674  3001               	movlw	1
  9948     1675                     u3215:
  9949     1675  1003               	clrc
  9950     1676  0CAD               	rrf	___xxtofl@arg+3,f
  9951     1677  0CAC               	rrf	___xxtofl@arg+2,f
  9952     1678  0CAB               	rrf	___xxtofl@arg+1,f
  9953     1679  0CAA               	rrf	___xxtofl@arg,f
  9954     167A  3EFF               	addlw	-1
  9955     167B  1D03               	skipz
  9956     167C  2E75               	goto	u3215
  9957     167D                     l3305:
  9958     167D  30FE               	movlw	254
  9959     167E  052D               	andwf	___xxtofl@arg+3,w
  9960     167F  1D03               	btfss	3,2
  9961     1680  2E82               	goto	u3221
  9962     1681  2E83               	goto	u3220
  9963     1682                     u3221:
  9964     1682  2E72               	goto	l3303
  9965     1683                     u3220:
  9966     1683  2E9D               	goto	l1242
  9967     1684                     l3307:
  9968     1684  3001               	movlw	1
  9969     1685  07A9               	addwf	___xxtofl@exp,f
  9970     1686                     l3309:
  9971     1686  3001               	movlw	1
  9972     1687  07AA               	addwf	___xxtofl@arg,f
  9973     1688  3000               	movlw	0
  9974     1689  1803               	skipnc
  9975     168A  3001               	movlw	1
  9976     168B  07AB               	addwf	___xxtofl@arg+1,f
  9977     168C  3000               	movlw	0
  9978     168D  1803               	skipnc
  9979     168E  3001               	movlw	1
  9980     168F  07AC               	addwf	___xxtofl@arg+2,f
  9981     1690  3000               	movlw	0
  9982     1691  1803               	skipnc
  9983     1692  3001               	movlw	1
  9984     1693  07AD               	addwf	___xxtofl@arg+3,f
  9985     1694                     l3311:
  9986     1694  3001               	movlw	1
  9987     1695                     u3235:
  9988     1695  1003               	clrc
  9989     1696  0CAD               	rrf	___xxtofl@arg+3,f
  9990     1697  0CAC               	rrf	___xxtofl@arg+2,f
  9991     1698  0CAB               	rrf	___xxtofl@arg+1,f
  9992     1699  0CAA               	rrf	___xxtofl@arg,f
  9993     169A  3EFF               	addlw	-1
  9994     169B  1D03               	skipz
  9995     169C  2E95               	goto	u3235
  9996     169D                     l1242:
  9997     169D  30FF               	movlw	255
  9998     169E  052D               	andwf	___xxtofl@arg+3,w
  9999     169F  1D03               	btfss	3,2
 10000     16A0  2EA2               	goto	u3241
 10001     16A1  2EA3               	goto	u3240
 10002     16A2                     u3241:
 10003     16A2  2E84               	goto	l3307
 10004     16A3                     u3240:
 10005     16A3  2EAF               	goto	l3315
 10006     16A4                     l3313:
 10007     16A4  3001               	movlw	1
 10008     16A5  02A9               	subwf	___xxtofl@exp,f
 10009     16A6  3001               	movlw	1
 10010     16A7  00A4               	movwf	??___xxtofl
 10011     16A8                     u3255:
 10012     16A8  1003               	clrc
 10013     16A9  0DAA               	rlf	___xxtofl@arg,f
 10014     16AA  0DAB               	rlf	___xxtofl@arg+1,f
 10015     16AB  0DAC               	rlf	___xxtofl@arg+2,f
 10016     16AC  0DAD               	rlf	___xxtofl@arg+3,f
 10017     16AD  0BA4               	decfsz	??___xxtofl,f
 10018     16AE  2EA8               	goto	u3255
 10019     16AF                     l3315:
 10020     16AF  1BAC               	btfsc	___xxtofl@arg+2,7
 10021     16B0  2EB2               	goto	u3261
 10022     16B1  2EB3               	goto	u3260
 10023     16B2                     u3261:
 10024     16B2  2EB9               	goto	l1249
 10025     16B3                     u3260:
 10026     16B3                     l3317:
 10027     16B3  3002               	movlw	2
 10028     16B4  0229               	subwf	___xxtofl@exp,w
 10029     16B5  1803               	skipnc
 10030     16B6  2EB8               	goto	u3271
 10031     16B7  2EB9               	goto	u3270
 10032     16B8                     u3271:
 10033     16B8  2EA4               	goto	l3313
 10034     16B9                     u3270:
 10035     16B9                     l1249:
 10036     16B9  1829               	btfsc	___xxtofl@exp,0
 10037     16BA  2EBC               	goto	u3281
 10038     16BB  2EBD               	goto	u3280
 10039     16BC                     u3281:
 10040     16BC  2EC5               	goto	l1250
 10041     16BD                     u3280:
 10042     16BD                     l3319:
 10043     16BD  30FF               	movlw	255
 10044     16BE  05AA               	andwf	___xxtofl@arg,f
 10045     16BF  30FF               	movlw	255
 10046     16C0  05AB               	andwf	___xxtofl@arg+1,f
 10047     16C1  307F               	movlw	127
 10048     16C2  05AC               	andwf	___xxtofl@arg+2,f
 10049     16C3  30FF               	movlw	255
 10050     16C4  05AD               	andwf	___xxtofl@arg+3,f
 10051     16C5                     l1250:
 10052     16C5  1003               	clrc
 10053     16C6  0CA9               	rrf	___xxtofl@exp,f
 10054     16C7                     l3321:
 10055     16C7  0829               	movf	___xxtofl@exp,w
 10056     16C8  00A4               	movwf	??___xxtofl
 10057     16C9  01A5               	clrf	??___xxtofl+1
 10058     16CA  01A6               	clrf	??___xxtofl+2
 10059     16CB  01A7               	clrf	??___xxtofl+3
 10060     16CC  3018               	movlw	24
 10061     16CD                     u3295:
 10062     16CD  1003               	clrc
 10063     16CE  0DA4               	rlf	??___xxtofl,f
 10064     16CF  0DA5               	rlf	??___xxtofl+1,f
 10065     16D0  0DA6               	rlf	??___xxtofl+2,f
 10066     16D1  0DA7               	rlf	??___xxtofl+3,f
 10067     16D2                     u3290:
 10068     16D2  3EFF               	addlw	-1
 10069     16D3  1D03               	skipz
 10070     16D4  2ECD               	goto	u3295
 10071     16D5  0824               	movf	??___xxtofl,w
 10072     16D6  04AA               	iorwf	___xxtofl@arg,f
 10073     16D7  0825               	movf	??___xxtofl+1,w
 10074     16D8  04AB               	iorwf	___xxtofl@arg+1,f
 10075     16D9  0826               	movf	??___xxtofl+2,w
 10076     16DA  04AC               	iorwf	___xxtofl@arg+2,f
 10077     16DB  0827               	movf	??___xxtofl+3,w
 10078     16DC  04AD               	iorwf	___xxtofl@arg+3,f
 10079     16DD                     l3323:
 10080     16DD  0828               	movf	___xxtofl@sign,w
 10081     16DE  1903               	btfsc	3,2
 10082     16DF  2EE1               	goto	u3301
 10083     16E0  2EE2               	goto	u3300
 10084     16E1                     u3301:
 10085     16E1  2EE7               	goto	l3329
 10086     16E2                     u3300:
 10087     16E2                     l3325:
 10088     16E2  1FA3               	btfss	___xxtofl@val+3,7
 10089     16E3  2EE5               	goto	u3311
 10090     16E4  2EE6               	goto	u3310
 10091     16E5                     u3311:
 10092     16E5  2EE7               	goto	l3329
 10093     16E6                     u3310:
 10094     16E6                     l3327:
 10095     16E6  17AD               	bsf	___xxtofl@arg+3,7
 10096     16E7                     l3329:
 10097     16E7  082D               	movf	___xxtofl@arg+3,w
 10098     16E8  00A3               	movwf	?___xxtofl+3
 10099     16E9  082C               	movf	___xxtofl@arg+2,w
 10100     16EA  00A2               	movwf	?___xxtofl+2
 10101     16EB  082B               	movf	___xxtofl@arg+1,w
 10102     16EC  00A1               	movwf	?___xxtofl+1
 10103     16ED  082A               	movf	___xxtofl@arg,w
 10104     16EE  00A0               	movwf	?___xxtofl
 10105     16EF                     l1238:
 10106     16EF  0008               	return
 10107     16F0                     __end_of___xxtofl:
 10108                           
 10109                           	psect	text39
 10110     1221                     __ptext39:	
 10111 ;; *************** function ___lwmod *****************
 10112 ;; Defined at:
 10113 ;;		line 5 in file "C:\Program Files\Microchip\xc8\v3.10\pic\sources\c99\common\lwmod.c"
 10114 ;; Parameters:    Size  Location     Type
 10115 ;;  divisor         2    2[COMMON] unsigned int 
 10116 ;;  dividend        2    4[COMMON] unsigned int 
 10117 ;; Auto vars:     Size  Location     Type
 10118 ;;  counter         1    6[COMMON] unsigned char 
 10119 ;; Return value:  Size  Location     Type
 10120 ;;                  2    2[COMMON] unsigned int 
 10121 ;; Registers used:
 10122 ;;		wreg, status,2, status,0
 10123 ;; Tracked objects:
 10124 ;;		On entry : 0/0
 10125 ;;		On exit  : 0/0
 10126 ;;		Unchanged: 0/0
 10127 ;; Data sizes:     COMMON   BANK0   BANK1   BANK3   BANK2
 10128 ;;      Params:         4       0       0       0       0
 10129 ;;      Locals:         1       0       0       0       0
 10130 ;;      Temps:          0       0       0       0       0
 10131 ;;      Totals:         5       0       0       0       0
 10132 ;;Total ram usage:        5 bytes
 10133 ;; Hardware stack levels used: 1
 10134 ;; Hardware stack levels required when called: 1
 10135 ;; This function calls:
 10136 ;;		Nothing
 10137 ;; This function is called by:
 10138 ;;		_dashboard
 10139 ;;		_login_screen
 10140 ;;		_set_time
 10141 ;; This function uses a non-reentrant model
 10142 ;;
 10143                           
 10144     1221                     ___lwmod:	
 10145                           ;psect for function ___lwmod
 10146                           
 10147     1221                     l3125:	
 10148                           ;incstack = 0
 10149                           ; Regs used in ___lwmod: [wreg+status,2+status,0]
 10150                           
 10151     1221  0872               	movf	___lwmod@divisor,w
 10152     1222  0473               	iorwf	___lwmod@divisor+1,w
 10153     1223  1903               	btfsc	3,2
 10154     1224  2A26               	goto	u2831
 10155     1225  2A27               	goto	u2830
 10156     1226                     u2831:
 10157     1226  2A54               	goto	l3143
 10158     1227                     u2830:
 10159     1227                     l3127:
 10160     1227  3001               	movlw	1
 10161     1228  00F6               	movwf	___lwmod@counter
 10162     1229  2A33               	goto	l3133
 10163     122A                     l3129:
 10164     122A  3001               	movlw	1
 10165     122B                     u2845:
 10166     122B  1003               	clrc
 10167     122C  0DF2               	rlf	___lwmod@divisor,f
 10168     122D  0DF3               	rlf	___lwmod@divisor+1,f
 10169     122E  3EFF               	addlw	-1
 10170     122F  1D03               	skipz
 10171     1230  2A2B               	goto	u2845
 10172     1231                     l3131:
 10173     1231  3001               	movlw	1
 10174     1232  07F6               	addwf	___lwmod@counter,f
 10175     1233                     l3133:
 10176     1233  1FF3               	btfss	___lwmod@divisor+1,7
 10177     1234  2A36               	goto	u2851
 10178     1235  2A37               	goto	u2850
 10179     1236                     u2851:
 10180     1236  2A2A               	goto	l3129
 10181     1237                     u2850:
 10182     1237                     l3135:
 10183     1237  0873               	movf	___lwmod@divisor+1,w
 10184     1238  0275               	subwf	___lwmod@dividend+1,w
 10185     1239  1D03               	skipz
 10186     123A  2A3D               	goto	u2865
 10187     123B  0872               	movf	___lwmod@divisor,w
 10188     123C  0274               	subwf	___lwmod@dividend,w
 10189     123D                     u2865:
 10190     123D  1C03               	skipc
 10191     123E  2A40               	goto	u2861
 10192     123F  2A41               	goto	u2860
 10193     1240                     u2861:
 10194     1240  2A47               	goto	l3139
 10195     1241                     u2860:
 10196     1241                     l3137:
 10197     1241  0872               	movf	___lwmod@divisor,w
 10198     1242  02F4               	subwf	___lwmod@dividend,f
 10199     1243  0873               	movf	___lwmod@divisor+1,w
 10200     1244  1C03               	skipc
 10201     1245  03F5               	decf	___lwmod@dividend+1,f
 10202     1246  02F5               	subwf	___lwmod@dividend+1,f
 10203     1247                     l3139:
 10204     1247  3001               	movlw	1
 10205     1248                     u2875:
 10206     1248  1003               	clrc
 10207     1249  0CF3               	rrf	___lwmod@divisor+1,f
 10208     124A  0CF2               	rrf	___lwmod@divisor,f
 10209     124B  3EFF               	addlw	-1
 10210     124C  1D03               	skipz
 10211     124D  2A48               	goto	u2875
 10212     124E                     l3141:
 10213     124E  3001               	movlw	1
 10214     124F  02F6               	subwf	___lwmod@counter,f
 10215     1250  1D03               	btfss	3,2
 10216     1251  2A53               	goto	u2881
 10217     1252  2A54               	goto	u2880
 10218     1253                     u2881:
 10219     1253  2A37               	goto	l3135
 10220     1254                     u2880:
 10221     1254                     l3143:
 10222     1254  0875               	movf	___lwmod@dividend+1,w
 10223     1255  00F3               	movwf	?___lwmod+1
 10224     1256  0874               	movf	___lwmod@dividend,w
 10225     1257  00F2               	movwf	?___lwmod
 10226     1258                     l1085:
 10227     1258  0008               	return
 10228     1259                     __end_of___lwmod:
 10229                           
 10230                           	psect	text40
 10231     12D4                     __ptext40:	
 10232 ;; *************** function ___lwdiv *****************
 10233 ;; Defined at:
 10234 ;;		line 5 in file "C:\Program Files\Microchip\xc8\v3.10\pic\sources\c99\common\lwdiv.c"
 10235 ;; Parameters:    Size  Location     Type
 10236 ;;  divisor         2    2[COMMON] unsigned int 
 10237 ;;  dividend        2    4[COMMON] unsigned int 
 10238 ;; Auto vars:     Size  Location     Type
 10239 ;;  quotient        2    0[BANK0 ] unsigned int 
 10240 ;;  counter         1    2[BANK0 ] unsigned char 
 10241 ;; Return value:  Size  Location     Type
 10242 ;;                  2    2[COMMON] unsigned int 
 10243 ;; Registers used:
 10244 ;;		wreg, status,2, status,0
 10245 ;; Tracked objects:
 10246 ;;		On entry : 0/0
 10247 ;;		On exit  : 0/0
 10248 ;;		Unchanged: 0/0
 10249 ;; Data sizes:     COMMON   BANK0   BANK1   BANK3   BANK2
 10250 ;;      Params:         4       0       0       0       0
 10251 ;;      Locals:         0       3       0       0       0
 10252 ;;      Temps:          0       0       0       0       0
 10253 ;;      Totals:         4       3       0       0       0
 10254 ;;Total ram usage:        7 bytes
 10255 ;; Hardware stack levels used: 1
 10256 ;; Hardware stack levels required when called: 1
 10257 ;; This function calls:
 10258 ;;		Nothing
 10259 ;; This function is called by:
 10260 ;;		_dashboard
 10261 ;;		_login_screen
 10262 ;;		_view_log
 10263 ;;		_set_time
 10264 ;; This function uses a non-reentrant model
 10265 ;;
 10266                           
 10267     12D4                     ___lwdiv:	
 10268                           ;psect for function ___lwdiv
 10269                           
 10270     12D4                     l3099:	
 10271                           ;incstack = 0
 10272                           ; Regs used in ___lwdiv: [wreg+status,2+status,0]
 10273                           
 10274     12D4  1283               	bcf	3,5	;RP0=0, select bank0
 10275     12D5  1303               	bcf	3,6	;RP1=0, select bank0
 10276     12D6  01A0               	clrf	___lwdiv@quotient
 10277     12D7  01A1               	clrf	___lwdiv@quotient+1
 10278     12D8                     l3101:
 10279     12D8  0872               	movf	___lwdiv@divisor,w
 10280     12D9  0473               	iorwf	___lwdiv@divisor+1,w
 10281     12DA  1903               	btfsc	3,2
 10282     12DB  2ADD               	goto	u2761
 10283     12DC  2ADE               	goto	u2760
 10284     12DD                     u2761:
 10285     12DD  2B13               	goto	l3121
 10286     12DE                     u2760:
 10287     12DE                     l3103:
 10288     12DE  3001               	movlw	1
 10289     12DF  00A2               	movwf	___lwdiv@counter
 10290     12E0  2AEA               	goto	l3109
 10291     12E1                     l3105:
 10292     12E1  3001               	movlw	1
 10293     12E2                     u2775:
 10294     12E2  1003               	clrc
 10295     12E3  0DF2               	rlf	___lwdiv@divisor,f
 10296     12E4  0DF3               	rlf	___lwdiv@divisor+1,f
 10297     12E5  3EFF               	addlw	-1
 10298     12E6  1D03               	skipz
 10299     12E7  2AE2               	goto	u2775
 10300     12E8                     l3107:
 10301     12E8  3001               	movlw	1
 10302     12E9  07A2               	addwf	___lwdiv@counter,f
 10303     12EA                     l3109:
 10304     12EA  1FF3               	btfss	___lwdiv@divisor+1,7
 10305     12EB  2AED               	goto	u2781
 10306     12EC  2AEE               	goto	u2780
 10307     12ED                     u2781:
 10308     12ED  2AE1               	goto	l3105
 10309     12EE                     u2780:
 10310     12EE                     l3111:
 10311     12EE  3001               	movlw	1
 10312     12EF                     u2795:
 10313     12EF  1003               	clrc
 10314     12F0  0DA0               	rlf	___lwdiv@quotient,f
 10315     12F1  0DA1               	rlf	___lwdiv@quotient+1,f
 10316     12F2  3EFF               	addlw	-1
 10317     12F3  1D03               	skipz
 10318     12F4  2AEF               	goto	u2795
 10319     12F5  0873               	movf	___lwdiv@divisor+1,w
 10320     12F6  0275               	subwf	___lwdiv@dividend+1,w
 10321     12F7  1D03               	skipz
 10322     12F8  2AFB               	goto	u2805
 10323     12F9  0872               	movf	___lwdiv@divisor,w
 10324     12FA  0274               	subwf	___lwdiv@dividend,w
 10325     12FB                     u2805:
 10326     12FB  1C03               	skipc
 10327     12FC  2AFE               	goto	u2801
 10328     12FD  2AFF               	goto	u2800
 10329     12FE                     u2801:
 10330     12FE  2B06               	goto	l3117
 10331     12FF                     u2800:
 10332     12FF                     l3113:
 10333     12FF  0872               	movf	___lwdiv@divisor,w
 10334     1300  02F4               	subwf	___lwdiv@dividend,f
 10335     1301  0873               	movf	___lwdiv@divisor+1,w
 10336     1302  1C03               	skipc
 10337     1303  03F5               	decf	___lwdiv@dividend+1,f
 10338     1304  02F5               	subwf	___lwdiv@dividend+1,f
 10339     1305                     l3115:
 10340     1305  1420               	bsf	___lwdiv@quotient,0
 10341     1306                     l3117:
 10342     1306  3001               	movlw	1
 10343     1307                     u2815:
 10344     1307  1003               	clrc
 10345     1308  0CF3               	rrf	___lwdiv@divisor+1,f
 10346     1309  0CF2               	rrf	___lwdiv@divisor,f
 10347     130A  3EFF               	addlw	-1
 10348     130B  1D03               	skipz
 10349     130C  2B07               	goto	u2815
 10350     130D                     l3119:
 10351     130D  3001               	movlw	1
 10352     130E  02A2               	subwf	___lwdiv@counter,f
 10353     130F  1D03               	btfss	3,2
 10354     1310  2B12               	goto	u2821
 10355     1311  2B13               	goto	u2820
 10356     1312                     u2821:
 10357     1312  2AEE               	goto	l3111
 10358     1313                     u2820:
 10359     1313                     l3121:
 10360     1313  0821               	movf	___lwdiv@quotient+1,w
 10361     1314  00F3               	movwf	?___lwdiv+1
 10362     1315  0820               	movf	___lwdiv@quotient,w
 10363     1316  00F2               	movwf	?___lwdiv
 10364     1317                     l1075:
 10365     1317  0008               	return
 10366     1318                     __end_of___lwdiv:
 10367                           
 10368                           	psect	text41
 10369     150F                     __ptext41:	
 10370 ;; *************** function ___fltol *****************
 10371 ;; Defined at:
 10372 ;;		line 43 in file "C:\Program Files\Microchip\xc8\v3.10\pic\sources\c99\common\fltol.c"
 10373 ;; Parameters:    Size  Location     Type
 10374 ;;  f1              4   40[BANK0 ] unsigned int 
 10375 ;; Auto vars:     Size  Location     Type
 10376 ;;  exp1            1   49[BANK0 ] unsigned char 
 10377 ;;  sign1           1   48[BANK0 ] unsigned char 
 10378 ;; Return value:  Size  Location     Type
 10379 ;;                  4   40[BANK0 ] long 
 10380 ;; Registers used:
 10381 ;;		wreg, status,2, status,0
 10382 ;; Tracked objects:
 10383 ;;		On entry : 0/0
 10384 ;;		On exit  : 0/0
 10385 ;;		Unchanged: 0/0
 10386 ;; Data sizes:     COMMON   BANK0   BANK1   BANK3   BANK2
 10387 ;;      Params:         0       4       0       0       0
 10388 ;;      Locals:         0       2       0       0       0
 10389 ;;      Temps:          0       4       0       0       0
 10390 ;;      Totals:         0      10       0       0       0
 10391 ;;Total ram usage:       10 bytes
 10392 ;; Hardware stack levels used: 1
 10393 ;; Hardware stack levels required when called: 1
 10394 ;; This function calls:
 10395 ;;		Nothing
 10396 ;; This function is called by:
 10397 ;;		_dashboard
 10398 ;; This function uses a non-reentrant model
 10399 ;;
 10400                           
 10401     150F                     ___fltol:	
 10402                           ;psect for function ___fltol
 10403                           
 10404     150F                     l3063:	
 10405                           ;incstack = 0
 10406                           ; Regs used in ___fltol: [wreg+status,2+status,0]
 10407                           
 10408     150F  1003               	clrc
 10409     1510  1283               	bcf	3,5	;RP0=0, select bank0
 10410     1511  1303               	bcf	3,6	;RP1=0, select bank0
 10411     1512  0D4A               	rlf	___fltol@f1+2,w
 10412     1513  0D4B               	rlf	___fltol@f1+3,w
 10413     1514  00D1               	movwf	___fltol@exp1
 10414     1515  0851               	movf	___fltol@exp1,w
 10415     1516  1D03               	btfss	3,2
 10416     1517  2D19               	goto	u2661
 10417     1518  2D1A               	goto	u2660
 10418     1519                     u2661:
 10419     1519  2D23               	goto	l3069
 10420     151A                     u2660:
 10421     151A                     l3065:
 10422     151A  3000               	movlw	0
 10423     151B  00CB               	movwf	?___fltol+3
 10424     151C  3000               	movlw	0
 10425     151D  00CA               	movwf	?___fltol+2
 10426     151E  3000               	movlw	0
 10427     151F  00C9               	movwf	?___fltol+1
 10428     1520  3000               	movlw	0
 10429     1521  00C8               	movwf	?___fltol
 10430     1522  2D84               	goto	l989
 10431     1523                     l3069:
 10432     1523  0848               	movf	___fltol@f1,w
 10433     1524  00CC               	movwf	??___fltol
 10434     1525  0849               	movf	___fltol@f1+1,w
 10435     1526  00CD               	movwf	??___fltol+1
 10436     1527  084A               	movf	___fltol@f1+2,w
 10437     1528  00CE               	movwf	??___fltol+2
 10438     1529  084B               	movf	___fltol@f1+3,w
 10439     152A  00CF               	movwf	??___fltol+3
 10440     152B  301F               	movlw	31
 10441     152C                     u2675:
 10442     152C  1003               	clrc
 10443     152D  0CCF               	rrf	??___fltol+3,f
 10444     152E  0CCE               	rrf	??___fltol+2,f
 10445     152F  0CCD               	rrf	??___fltol+1,f
 10446     1530  0CCC               	rrf	??___fltol,f
 10447     1531                     u2670:
 10448     1531  3EFF               	addlw	-1
 10449     1532  1D03               	skipz
 10450     1533  2D2C               	goto	u2675
 10451     1534  084C               	movf	??___fltol,w
 10452     1535  00D0               	movwf	___fltol@sign1
 10453     1536                     l3071:
 10454     1536  17CA               	bsf	___fltol@f1+2,7
 10455     1537                     l3073:
 10456     1537  30FF               	movlw	255
 10457     1538  05C8               	andwf	___fltol@f1,f
 10458     1539  30FF               	movlw	255
 10459     153A  05C9               	andwf	___fltol@f1+1,f
 10460     153B  30FF               	movlw	255
 10461     153C  05CA               	andwf	___fltol@f1+2,f
 10462     153D  3000               	movlw	0
 10463     153E  05CB               	andwf	___fltol@f1+3,f
 10464     153F                     l3075:
 10465     153F  3096               	movlw	150
 10466     1540  02D1               	subwf	___fltol@exp1,f
 10467     1541                     l3077:
 10468     1541  1FD1               	btfss	___fltol@exp1,7
 10469     1542  2D44               	goto	u2681
 10470     1543  2D45               	goto	u2680
 10471     1544                     u2681:
 10472     1544  2D5D               	goto	l3087
 10473     1545                     u2680:
 10474     1545                     l3079:
 10475     1545  0851               	movf	___fltol@exp1,w
 10476     1546  3A80               	xorlw	128
 10477     1547  3E97               	addlw	151
 10478     1548  1803               	skipnc
 10479     1549  2D4B               	goto	u2691
 10480     154A  2D4C               	goto	u2690
 10481     154B                     u2691:
 10482     154B  2D4D               	goto	l3085
 10483     154C                     u2690:
 10484     154C  2D1A               	goto	l3065
 10485     154D                     l3085:
 10486     154D  3001               	movlw	1
 10487     154E                     u2705:
 10488     154E  1003               	clrc
 10489     154F  0CCB               	rrf	___fltol@f1+3,f
 10490     1550  0CCA               	rrf	___fltol@f1+2,f
 10491     1551  0CC9               	rrf	___fltol@f1+1,f
 10492     1552  0CC8               	rrf	___fltol@f1,f
 10493     1553  3EFF               	addlw	-1
 10494     1554  1D03               	skipz
 10495     1555  2D4E               	goto	u2705
 10496     1556  3001               	movlw	1
 10497     1557  07D1               	addwf	___fltol@exp1,f
 10498     1558  1D03               	btfss	3,2
 10499     1559  2D5B               	goto	u2711
 10500     155A  2D5C               	goto	u2710
 10501     155B                     u2711:
 10502     155B  2D4D               	goto	l3085
 10503     155C                     u2710:
 10504     155C  2D74               	goto	l3095
 10505     155D                     l3087:
 10506     155D  3020               	movlw	32
 10507     155E  0251               	subwf	___fltol@exp1,w
 10508     155F  1C03               	skipc
 10509     1560  2D62               	goto	u2721
 10510     1561  2D63               	goto	u2720
 10511     1562                     u2721:
 10512     1562  2D6F               	goto	l996
 10513     1563                     u2720:
 10514     1563  2D1A               	goto	l3065
 10515     1564                     l3093:
 10516     1564  3001               	movlw	1
 10517     1565  00CC               	movwf	??___fltol
 10518     1566                     u2735:
 10519     1566  1003               	clrc
 10520     1567  0DC8               	rlf	___fltol@f1,f
 10521     1568  0DC9               	rlf	___fltol@f1+1,f
 10522     1569  0DCA               	rlf	___fltol@f1+2,f
 10523     156A  0DCB               	rlf	___fltol@f1+3,f
 10524     156B  0BCC               	decfsz	??___fltol,f
 10525     156C  2D66               	goto	u2735
 10526     156D  3001               	movlw	1
 10527     156E  02D1               	subwf	___fltol@exp1,f
 10528     156F                     l996:
 10529     156F  0851               	movf	___fltol@exp1,w
 10530     1570  1D03               	btfss	3,2
 10531     1571  2D73               	goto	u2741
 10532     1572  2D74               	goto	u2740
 10533     1573                     u2741:
 10534     1573  2D64               	goto	l3093
 10535     1574                     u2740:
 10536     1574                     l3095:
 10537     1574  0850               	movf	___fltol@sign1,w
 10538     1575  1903               	btfsc	3,2
 10539     1576  2D78               	goto	u2751
 10540     1577  2D79               	goto	u2750
 10541     1578                     u2751:
 10542     1578  2D84               	goto	l999
 10543     1579                     u2750:
 10544     1579                     l3097:
 10545     1579  09C8               	comf	___fltol@f1,f
 10546     157A  09C9               	comf	___fltol@f1+1,f
 10547     157B  09CA               	comf	___fltol@f1+2,f
 10548     157C  09CB               	comf	___fltol@f1+3,f
 10549     157D  0AC8               	incf	___fltol@f1,f
 10550     157E  1903               	skipnz
 10551     157F  0AC9               	incf	___fltol@f1+1,f
 10552     1580  1903               	skipnz
 10553     1581  0ACA               	incf	___fltol@f1+2,f
 10554     1582  1903               	skipnz
 10555     1583  0ACB               	incf	___fltol@f1+3,f
 10556     1584                     l999:
 10557     1584                     l989:
 10558     1584  0008               	return
 10559     1585                     __end_of___fltol:
 10560                           
 10561                           	psect	text42
 10562     05E6                     __ptext42:	
 10563 ;; *************** function ___fldiv *****************
 10564 ;; Defined at:
 10565 ;;		line 8 in file "C:\Program Files\Microchip\xc8\v3.10\pic\sources\c99\common\sprcdiv.c"
 10566 ;; Parameters:    Size  Location     Type
 10567 ;;  a               4   14[BANK0 ] long 
 10568 ;;  b               4   18[BANK0 ] long 
 10569 ;; Auto vars:     Size  Location     Type
 10570 ;;  grs             4   34[BANK0 ] unsigned long 
 10571 ;;  rem             4   27[BANK0 ] unsigned long 
 10572 ;;  new_exp         2   32[BANK0 ] short 
 10573 ;;  aexp            1   39[BANK0 ] unsigned char 
 10574 ;;  bexp            1   38[BANK0 ] unsigned char 
 10575 ;;  sign            1   31[BANK0 ] unsigned char 
 10576 ;; Return value:  Size  Location     Type
 10577 ;;                  4   14[BANK0 ] unsigned char 
 10578 ;; Registers used:
 10579 ;;		wreg, status,2, status,0, btemp1
 10580 ;; Tracked objects:
 10581 ;;		On entry : 0/0
 10582 ;;		On exit  : 0/0
 10583 ;;		Unchanged: 0/0
 10584 ;; Data sizes:     COMMON   BANK0   BANK1   BANK3   BANK2
 10585 ;;      Params:         0       8       0       0       0
 10586 ;;      Locals:         0      13       0       0       0
 10587 ;;      Temps:          0       5       0       0       0
 10588 ;;      Totals:         0      26       0       0       0
 10589 ;;Total ram usage:       26 bytes
 10590 ;; Hardware stack levels used: 1
 10591 ;; Hardware stack levels required when called: 1
 10592 ;; This function calls:
 10593 ;;		Nothing
 10594 ;; This function is called by:
 10595 ;;		_dashboard
 10596 ;; This function uses a non-reentrant model
 10597 ;;
 10598                           
 10599     05E6                     ___fldiv:	
 10600                           ;psect for function ___fldiv
 10601                           
 10602     05E6                     l3147:	
 10603                           ;incstack = 0
 10604                           ; Regs used in ___fldiv: [wreg+status,2+status,0+btemp1]
 10605                           
 10606     05E6  1283               	bcf	3,5	;RP0=0, select bank0
 10607     05E7  1303               	bcf	3,6	;RP1=0, select bank0
 10608     05E8  0835               	movf	___fldiv@b+3,w
 10609     05E9  00BF               	movwf	___fldiv@sign
 10610     05EA                     l3149:
 10611     05EA  3080               	movlw	128
 10612     05EB  05BF               	andwf	___fldiv@sign,f
 10613     05EC                     l3151:
 10614     05EC  0835               	movf	___fldiv@b+3,w
 10615     05ED  00B6               	movwf	??___fldiv
 10616     05EE  0736               	addwf	??___fldiv,w
 10617     05EF  00C6               	movwf	___fldiv@bexp
 10618     05F0                     l3153:
 10619     05F0  1FB4               	btfss	___fldiv@b+2,7
 10620     05F1  2DF3               	goto	u2891
 10621     05F2  2DF4               	goto	u2890
 10622     05F3                     u2891:
 10623     05F3  2DF5               	goto	l3157
 10624     05F4                     u2890:
 10625     05F4                     l3155:
 10626     05F4  1446               	bsf	___fldiv@bexp,0
 10627     05F5                     l3157:
 10628     05F5  0846               	movf	___fldiv@bexp,w
 10629     05F6  1903               	btfsc	3,2
 10630     05F7  2DF9               	goto	u2901
 10631     05F8  2DFA               	goto	u2900
 10632     05F9                     u2901:
 10633     05F9  2E0A               	goto	l3167
 10634     05FA                     u2900:
 10635     05FA                     l3159:
 10636     05FA  0A46               	incf	___fldiv@bexp,w
 10637     05FB  1D03               	btfss	3,2
 10638     05FC  2DFE               	goto	u2911
 10639     05FD  2DFF               	goto	u2910
 10640     05FE                     u2911:
 10641     05FE  2E07               	goto	l3163
 10642     05FF                     u2910:
 10643     05FF                     l3161:
 10644     05FF  3000               	movlw	0
 10645     0600  00B5               	movwf	___fldiv@b+3
 10646     0601  3000               	movlw	0
 10647     0602  00B4               	movwf	___fldiv@b+2
 10648     0603  3000               	movlw	0
 10649     0604  00B3               	movwf	___fldiv@b+1
 10650     0605  3000               	movlw	0
 10651     0606  00B2               	movwf	___fldiv@b
 10652     0607                     l3163:
 10653     0607  17B4               	bsf	___fldiv@b+2,7
 10654     0608                     l3165:
 10655     0608  01B5               	clrf	___fldiv@b+3
 10656     0609  2E12               	goto	l3169
 10657     060A                     l3167:
 10658     060A  3000               	movlw	0
 10659     060B  00B5               	movwf	___fldiv@b+3
 10660     060C  3000               	movlw	0
 10661     060D  00B4               	movwf	___fldiv@b+2
 10662     060E  3000               	movlw	0
 10663     060F  00B3               	movwf	___fldiv@b+1
 10664     0610  3000               	movlw	0
 10665     0611  00B2               	movwf	___fldiv@b
 10666     0612                     l3169:
 10667     0612  0831               	movf	___fldiv@a+3,w
 10668     0613  3980               	andlw	128
 10669     0614  06BF               	xorwf	___fldiv@sign,f
 10670     0615                     l3171:
 10671     0615  0831               	movf	___fldiv@a+3,w
 10672     0616  00B6               	movwf	??___fldiv
 10673     0617  0736               	addwf	??___fldiv,w
 10674     0618  00C7               	movwf	___fldiv@aexp
 10675     0619                     l3173:
 10676     0619  1FB0               	btfss	___fldiv@a+2,7
 10677     061A  2E1C               	goto	u2921
 10678     061B  2E1D               	goto	u2920
 10679     061C                     u2921:
 10680     061C  2E1E               	goto	l3177
 10681     061D                     u2920:
 10682     061D                     l3175:
 10683     061D  1447               	bsf	___fldiv@aexp,0
 10684     061E                     l3177:
 10685     061E  0847               	movf	___fldiv@aexp,w
 10686     061F  1903               	btfsc	3,2
 10687     0620  2E22               	goto	u2931
 10688     0621  2E23               	goto	u2930
 10689     0622                     u2931:
 10690     0622  2E33               	goto	l3187
 10691     0623                     u2930:
 10692     0623                     l3179:
 10693     0623  0A47               	incf	___fldiv@aexp,w
 10694     0624  1D03               	btfss	3,2
 10695     0625  2E27               	goto	u2941
 10696     0626  2E28               	goto	u2940
 10697     0627                     u2941:
 10698     0627  2E30               	goto	l3183
 10699     0628                     u2940:
 10700     0628                     l3181:
 10701     0628  3000               	movlw	0
 10702     0629  00B1               	movwf	___fldiv@a+3
 10703     062A  3000               	movlw	0
 10704     062B  00B0               	movwf	___fldiv@a+2
 10705     062C  3000               	movlw	0
 10706     062D  00AF               	movwf	___fldiv@a+1
 10707     062E  3000               	movlw	0
 10708     062F  00AE               	movwf	___fldiv@a
 10709     0630                     l3183:
 10710     0630  17B0               	bsf	___fldiv@a+2,7
 10711     0631                     l3185:
 10712     0631  01B1               	clrf	___fldiv@a+3
 10713     0632  2E3B               	goto	l1152
 10714     0633                     l3187:
 10715     0633  3000               	movlw	0
 10716     0634  00B1               	movwf	___fldiv@a+3
 10717     0635  3000               	movlw	0
 10718     0636  00B0               	movwf	___fldiv@a+2
 10719     0637  3000               	movlw	0
 10720     0638  00AF               	movwf	___fldiv@a+1
 10721     0639  3000               	movlw	0
 10722     063A  00AE               	movwf	___fldiv@a
 10723     063B                     l1152:
 10724     063B  0831               	movf	___fldiv@a+3,w
 10725     063C  0430               	iorwf	___fldiv@a+2,w
 10726     063D  042F               	iorwf	___fldiv@a+1,w
 10727     063E  042E               	iorwf	___fldiv@a,w
 10728     063F  1D03               	skipz
 10729     0640  2E42               	goto	u2951
 10730     0641  2E43               	goto	u2950
 10731     0642                     u2951:
 10732     0642  2E5A               	goto	l3197
 10733     0643                     u2950:
 10734     0643                     l3189:
 10735     0643  3000               	movlw	0
 10736     0644  00B5               	movwf	___fldiv@b+3
 10737     0645  3000               	movlw	0
 10738     0646  00B4               	movwf	___fldiv@b+2
 10739     0647  3000               	movlw	0
 10740     0648  00B3               	movwf	___fldiv@b+1
 10741     0649  3000               	movlw	0
 10742     064A  00B2               	movwf	___fldiv@b
 10743     064B  3080               	movlw	128
 10744     064C  04B4               	iorwf	___fldiv@b+2,f
 10745     064D  307F               	movlw	127
 10746     064E  04B5               	iorwf	___fldiv@b+3,f
 10747     064F                     l3191:
 10748     064F  083F               	movf	___fldiv@sign,w
 10749     0650  04B5               	iorwf	___fldiv@b+3,f
 10750     0651                     l3193:
 10751     0651  0835               	movf	___fldiv@b+3,w
 10752     0652  00B1               	movwf	?___fldiv+3
 10753     0653  0834               	movf	___fldiv@b+2,w
 10754     0654  00B0               	movwf	?___fldiv+2
 10755     0655  0833               	movf	___fldiv@b+1,w
 10756     0656  00AF               	movwf	?___fldiv+1
 10757     0657  0832               	movf	___fldiv@b,w
 10758     0658  00AE               	movwf	?___fldiv
 10759     0659  2FAF               	goto	l1154
 10760     065A                     l3197:
 10761     065A  0846               	movf	___fldiv@bexp,w
 10762     065B  1D03               	btfss	3,2
 10763     065C  2E5E               	goto	u2961
 10764     065D  2E5F               	goto	u2960
 10765     065E                     u2961:
 10766     065E  2E68               	goto	l3203
 10767     065F                     u2960:
 10768     065F                     l3199:
 10769     065F  3000               	movlw	0
 10770     0660  00B1               	movwf	?___fldiv+3
 10771     0661  3000               	movlw	0
 10772     0662  00B0               	movwf	?___fldiv+2
 10773     0663  3000               	movlw	0
 10774     0664  00AF               	movwf	?___fldiv+1
 10775     0665  3000               	movlw	0
 10776     0666  00AE               	movwf	?___fldiv
 10777     0667  2FAF               	goto	l1154
 10778     0668                     l3203:
 10779     0668  0846               	movf	___fldiv@bexp,w
 10780     0669  00B6               	movwf	??___fldiv
 10781     066A  01B7               	clrf	??___fldiv+1
 10782     066B  0837               	movf	??___fldiv+1,w
 10783     066C  00B9               	movwf	??___fldiv+3
 10784     066D  0847               	movf	___fldiv@aexp,w
 10785     066E  0236               	subwf	??___fldiv,w
 10786     066F  00B8               	movwf	??___fldiv+2
 10787     0670  1C03               	skipc
 10788     0671  03B9               	decf	??___fldiv+3,f
 10789     0672  0838               	movf	??___fldiv+2,w
 10790     0673  3E7F               	addlw	127
 10791     0674  00C0               	movwf	___fldiv@new_exp
 10792     0675  0839               	movf	??___fldiv+3,w
 10793     0676  1803               	skipnc
 10794     0677  3E01               	addlw	1
 10795     0678  3E00               	addlw	0
 10796     0679  00C1               	movwf	___fldiv@new_exp+1
 10797     067A                     l3205:
 10798     067A  0835               	movf	___fldiv@b+3,w
 10799     067B  00BE               	movwf	___fldiv@rem+3
 10800     067C  0834               	movf	___fldiv@b+2,w
 10801     067D  00BD               	movwf	___fldiv@rem+2
 10802     067E  0833               	movf	___fldiv@b+1,w
 10803     067F  00BC               	movwf	___fldiv@rem+1
 10804     0680  0832               	movf	___fldiv@b,w
 10805     0681  00BB               	movwf	___fldiv@rem
 10806     0682                     l3207:
 10807     0682  3000               	movlw	0
 10808     0683  00B5               	movwf	___fldiv@b+3
 10809     0684  3000               	movlw	0
 10810     0685  00B4               	movwf	___fldiv@b+2
 10811     0686  3000               	movlw	0
 10812     0687  00B3               	movwf	___fldiv@b+1
 10813     0688  3000               	movlw	0
 10814     0689  00B2               	movwf	___fldiv@b
 10815     068A                     l3209:
 10816     068A  3000               	movlw	0
 10817     068B  00C5               	movwf	___fldiv@grs+3
 10818     068C  3000               	movlw	0
 10819     068D  00C4               	movwf	___fldiv@grs+2
 10820     068E  3000               	movlw	0
 10821     068F  00C3               	movwf	___fldiv@grs+1
 10822     0690  3000               	movlw	0
 10823     0691  00C2               	movwf	___fldiv@grs
 10824     0692                     l3211:
 10825     0692  01C7               	clrf	___fldiv@aexp
 10826     0693  2EDC               	goto	l3231
 10827     0694                     l3213:
 10828     0694  0847               	movf	___fldiv@aexp,w
 10829     0695  1903               	btfsc	3,2
 10830     0696  2E98               	goto	u2971
 10831     0697  2E99               	goto	u2970
 10832     0698                     u2971:
 10833     0698  2EB9               	goto	l3223
 10834     0699                     u2970:
 10835     0699                     l3215:
 10836     0699  3001               	movlw	1
 10837     069A  00B6               	movwf	??___fldiv
 10838     069B                     u2985:
 10839     069B  1003               	clrc
 10840     069C  0DBB               	rlf	___fldiv@rem,f
 10841     069D  0DBC               	rlf	___fldiv@rem+1,f
 10842     069E  0DBD               	rlf	___fldiv@rem+2,f
 10843     069F  0DBE               	rlf	___fldiv@rem+3,f
 10844     06A0  0BB6               	decfsz	??___fldiv,f
 10845     06A1  2E9B               	goto	u2985
 10846     06A2  3001               	movlw	1
 10847     06A3  00B6               	movwf	??___fldiv
 10848     06A4                     u2995:
 10849     06A4  1003               	clrc
 10850     06A5  0DB2               	rlf	___fldiv@b,f
 10851     06A6  0DB3               	rlf	___fldiv@b+1,f
 10852     06A7  0DB4               	rlf	___fldiv@b+2,f
 10853     06A8  0DB5               	rlf	___fldiv@b+3,f
 10854     06A9  0BB6               	decfsz	??___fldiv,f
 10855     06AA  2EA4               	goto	u2995
 10856     06AB                     l3217:
 10857     06AB  1FC5               	btfss	___fldiv@grs+3,7
 10858     06AC  2EAE               	goto	u3001
 10859     06AD  2EAF               	goto	u3000
 10860     06AE                     u3001:
 10861     06AE  2EB0               	goto	l3221
 10862     06AF                     u3000:
 10863     06AF                     l3219:
 10864     06AF  1432               	bsf	___fldiv@b,0
 10865     06B0                     l3221:
 10866     06B0  3001               	movlw	1
 10867     06B1  00B6               	movwf	??___fldiv
 10868     06B2                     u3015:
 10869     06B2  1003               	clrc
 10870     06B3  0DC2               	rlf	___fldiv@grs,f
 10871     06B4  0DC3               	rlf	___fldiv@grs+1,f
 10872     06B5  0DC4               	rlf	___fldiv@grs+2,f
 10873     06B6  0DC5               	rlf	___fldiv@grs+3,f
 10874     06B7  0BB6               	decfsz	??___fldiv,f
 10875     06B8  2EB2               	goto	u3015
 10876     06B9                     l3223:
 10877     06B9  0831               	movf	___fldiv@a+3,w
 10878     06BA  023E               	subwf	___fldiv@rem+3,w
 10879     06BB  1D03               	skipz
 10880     06BC  2EC7               	goto	u3025
 10881     06BD  0830               	movf	___fldiv@a+2,w
 10882     06BE  023D               	subwf	___fldiv@rem+2,w
 10883     06BF  1D03               	skipz
 10884     06C0  2EC7               	goto	u3025
 10885     06C1  082F               	movf	___fldiv@a+1,w
 10886     06C2  023C               	subwf	___fldiv@rem+1,w
 10887     06C3  1D03               	skipz
 10888     06C4  2EC7               	goto	u3025
 10889     06C5  082E               	movf	___fldiv@a,w
 10890     06C6  023B               	subwf	___fldiv@rem,w
 10891     06C7                     u3025:
 10892     06C7  1C03               	skipc
 10893     06C8  2ECA               	goto	u3021
 10894     06C9  2ECB               	goto	u3020
 10895     06CA                     u3021:
 10896     06CA  2EDA               	goto	l3229
 10897     06CB                     u3020:
 10898     06CB                     l3225:
 10899     06CB  1745               	bsf	___fldiv@grs+3,6
 10900     06CC                     l3227:
 10901     06CC  082E               	movf	___fldiv@a,w
 10902     06CD  02BB               	subwf	___fldiv@rem,f
 10903     06CE  082F               	movf	___fldiv@a+1,w
 10904     06CF  1C03               	skipc
 10905     06D0  0F2F               	incfsz	___fldiv@a+1,w
 10906     06D1  02BC               	subwf	___fldiv@rem+1,f
 10907     06D2  0830               	movf	___fldiv@a+2,w
 10908     06D3  1C03               	skipc
 10909     06D4  0F30               	incfsz	___fldiv@a+2,w
 10910     06D5  02BD               	subwf	___fldiv@rem+2,f
 10911     06D6  0831               	movf	___fldiv@a+3,w
 10912     06D7  1C03               	skipc
 10913     06D8  0F31               	incfsz	___fldiv@a+3,w
 10914     06D9  02BE               	subwf	___fldiv@rem+3,f
 10915     06DA                     l3229:
 10916     06DA  3001               	movlw	1
 10917     06DB  07C7               	addwf	___fldiv@aexp,f
 10918     06DC                     l3231:
 10919     06DC  301A               	movlw	26
 10920     06DD  0247               	subwf	___fldiv@aexp,w
 10921     06DE  1C03               	skipc
 10922     06DF  2EE1               	goto	u3031
 10923     06E0  2EE2               	goto	u3030
 10924     06E1                     u3031:
 10925     06E1  2E94               	goto	l3213
 10926     06E2                     u3030:
 10927     06E2                     l3233:
 10928     06E2  083E               	movf	___fldiv@rem+3,w
 10929     06E3  043D               	iorwf	___fldiv@rem+2,w
 10930     06E4  043C               	iorwf	___fldiv@rem+1,w
 10931     06E5  043B               	iorwf	___fldiv@rem,w
 10932     06E6  1903               	skipnz
 10933     06E7  2EE9               	goto	u3041
 10934     06E8  2EEA               	goto	u3040
 10935     06E9                     u3041:
 10936     06E9  2F09               	goto	l3247
 10937     06EA                     u3040:
 10938     06EA                     l3235:
 10939     06EA  1442               	bsf	___fldiv@grs,0
 10940     06EB  2F09               	goto	l3247
 10941     06EC                     l3237:
 10942     06EC  3001               	movlw	1
 10943     06ED  00B6               	movwf	??___fldiv
 10944     06EE                     u3055:
 10945     06EE  1003               	clrc
 10946     06EF  0DB2               	rlf	___fldiv@b,f
 10947     06F0  0DB3               	rlf	___fldiv@b+1,f
 10948     06F1  0DB4               	rlf	___fldiv@b+2,f
 10949     06F2  0DB5               	rlf	___fldiv@b+3,f
 10950     06F3  0BB6               	decfsz	??___fldiv,f
 10951     06F4  2EEE               	goto	u3055
 10952     06F5                     l3239:
 10953     06F5  1FC5               	btfss	___fldiv@grs+3,7
 10954     06F6  2EF8               	goto	u3061
 10955     06F7  2EF9               	goto	u3060
 10956     06F8                     u3061:
 10957     06F8  2EFA               	goto	l3243
 10958     06F9                     u3060:
 10959     06F9                     l3241:
 10960     06F9  1432               	bsf	___fldiv@b,0
 10961     06FA                     l3243:
 10962     06FA  3001               	movlw	1
 10963     06FB  00B6               	movwf	??___fldiv
 10964     06FC                     u3075:
 10965     06FC  1003               	clrc
 10966     06FD  0DC2               	rlf	___fldiv@grs,f
 10967     06FE  0DC3               	rlf	___fldiv@grs+1,f
 10968     06FF  0DC4               	rlf	___fldiv@grs+2,f
 10969     0700  0DC5               	rlf	___fldiv@grs+3,f
 10970     0701  0BB6               	decfsz	??___fldiv,f
 10971     0702  2EFC               	goto	u3075
 10972     0703                     l3245:
 10973     0703  30FF               	movlw	255
 10974     0704  07C0               	addwf	___fldiv@new_exp,f
 10975     0705  1803               	skipnc
 10976     0706  0AC1               	incf	___fldiv@new_exp+1,f
 10977     0707  30FF               	movlw	255
 10978     0708  07C1               	addwf	___fldiv@new_exp+1,f
 10979     0709                     l3247:
 10980     0709  1FB4               	btfss	___fldiv@b+2,7
 10981     070A  2F0C               	goto	u3081
 10982     070B  2F0D               	goto	u3080
 10983     070C                     u3081:
 10984     070C  2EEC               	goto	l3237
 10985     070D                     u3080:
 10986     070D                     l3249:
 10987     070D  01C7               	clrf	___fldiv@aexp
 10988     070E                     l3251:
 10989     070E  1FC5               	btfss	___fldiv@grs+3,7
 10990     070F  2F11               	goto	u3091
 10991     0710  2F12               	goto	u3090
 10992     0711                     u3091:
 10993     0711  2F2E               	goto	l3259
 10994     0712                     u3090:
 10995     0712                     l3253:
 10996     0712  30FF               	movlw	255
 10997     0713  0542               	andwf	___fldiv@grs,w
 10998     0714  00B6               	movwf	??___fldiv
 10999     0715  30FF               	movlw	255
 11000     0716  0543               	andwf	___fldiv@grs+1,w
 11001     0717  00B7               	movwf	??___fldiv+1
 11002     0718  30FF               	movlw	255
 11003     0719  0544               	andwf	___fldiv@grs+2,w
 11004     071A  00B8               	movwf	??___fldiv+2
 11005     071B  307F               	movlw	127
 11006     071C  0545               	andwf	___fldiv@grs+3,w
 11007     071D  00B9               	movwf	??___fldiv+3
 11008     071E  0839               	movf	??___fldiv+3,w
 11009     071F  0438               	iorwf	??___fldiv+2,w
 11010     0720  0437               	iorwf	??___fldiv+1,w
 11011     0721  0436               	iorwf	??___fldiv,w
 11012     0722  1903               	skipnz
 11013     0723  2F25               	goto	u3101
 11014     0724  2F26               	goto	u3100
 11015     0725                     u3101:
 11016     0725  2F29               	goto	l1168
 11017     0726                     u3100:
 11018     0726                     l3255:
 11019     0726  3001               	movlw	1
 11020     0727  00C7               	movwf	___fldiv@aexp
 11021     0728  2F2E               	goto	l3259
 11022     0729                     l1168:
 11023     0729  1C32               	btfss	___fldiv@b,0
 11024     072A  2F2C               	goto	u3111
 11025     072B  2F2D               	goto	u3110
 11026     072C                     u3111:
 11027     072C  2F2E               	goto	l3259
 11028     072D                     u3110:
 11029     072D  2F26               	goto	l3255
 11030     072E                     l3259:
 11031     072E  0847               	movf	___fldiv@aexp,w
 11032     072F  1903               	btfsc	3,2
 11033     0730  2F32               	goto	u3121
 11034     0731  2F33               	goto	u3120
 11035     0732                     u3121:
 11036     0732  2F64               	goto	l3269
 11037     0733                     u3120:
 11038     0733                     l3261:
 11039     0733  3001               	movlw	1
 11040     0734  07B2               	addwf	___fldiv@b,f
 11041     0735  3000               	movlw	0
 11042     0736  1803               	skipnc
 11043     0737  3001               	movlw	1
 11044     0738  07B3               	addwf	___fldiv@b+1,f
 11045     0739  3000               	movlw	0
 11046     073A  1803               	skipnc
 11047     073B  3001               	movlw	1
 11048     073C  07B4               	addwf	___fldiv@b+2,f
 11049     073D  3000               	movlw	0
 11050     073E  1803               	skipnc
 11051     073F  3001               	movlw	1
 11052     0740  07B5               	addwf	___fldiv@b+3,f
 11053     0741                     l3263:
 11054     0741  1C35               	btfss	___fldiv@b+3,0
 11055     0742  2F44               	goto	u3131
 11056     0743  2F45               	goto	u3130
 11057     0744                     u3131:
 11058     0744  2F64               	goto	l3269
 11059     0745                     u3130:
 11060     0745                     l3265:
 11061     0745  0832               	movf	___fldiv@b,w
 11062     0746  00B6               	movwf	??___fldiv
 11063     0747  0833               	movf	___fldiv@b+1,w
 11064     0748  00B7               	movwf	??___fldiv+1
 11065     0749  0834               	movf	___fldiv@b+2,w
 11066     074A  00B8               	movwf	??___fldiv+2
 11067     074B  0835               	movf	___fldiv@b+3,w
 11068     074C  00B9               	movwf	??___fldiv+3
 11069     074D  3001               	movlw	1
 11070     074E  00BA               	movwf	??___fldiv+4
 11071     074F                     u3145:
 11072     074F  0D39               	rlf	??___fldiv+3,w
 11073     0750  0CB9               	rrf	??___fldiv+3,f
 11074     0751  0CB8               	rrf	??___fldiv+2,f
 11075     0752  0CB7               	rrf	??___fldiv+1,f
 11076     0753  0CB6               	rrf	??___fldiv,f
 11077     0754                     u3140:
 11078     0754  0BBA               	decfsz	??___fldiv+4,f
 11079     0755  2F4F               	goto	u3145
 11080     0756  0839               	movf	??___fldiv+3,w
 11081     0757  00B5               	movwf	___fldiv@b+3
 11082     0758  0838               	movf	??___fldiv+2,w
 11083     0759  00B4               	movwf	___fldiv@b+2
 11084     075A  0837               	movf	??___fldiv+1,w
 11085     075B  00B3               	movwf	___fldiv@b+1
 11086     075C  0836               	movf	??___fldiv,w
 11087     075D  00B2               	movwf	___fldiv@b
 11088     075E                     l3267:
 11089     075E  3001               	movlw	1
 11090     075F  07C0               	addwf	___fldiv@new_exp,f
 11091     0760  1803               	skipnc
 11092     0761  0AC1               	incf	___fldiv@new_exp+1,f
 11093     0762  3000               	movlw	0
 11094     0763  07C1               	addwf	___fldiv@new_exp+1,f
 11095     0764                     l3269:
 11096     0764  0841               	movf	___fldiv@new_exp+1,w
 11097     0765  3A80               	xorlw	128
 11098     0766  00FF               	movwf	btemp1
 11099     0767  3080               	movlw	128
 11100     0768  027F               	subwf	btemp1,w
 11101     0769  1D03               	skipz
 11102     076A  2F6D               	goto	u3155
 11103     076B  30FF               	movlw	255
 11104     076C  0240               	subwf	___fldiv@new_exp,w
 11105     076D                     u3155:
 11106     076D  1C03               	skipc
 11107     076E  2F70               	goto	u3151
 11108     076F  2F71               	goto	u3150
 11109     0770                     u3151:
 11110     0770  2F7F               	goto	l3273
 11111     0771                     u3150:
 11112     0771                     l3271:
 11113     0771  30FF               	movlw	255
 11114     0772  1283               	bcf	3,5	;RP0=0, select bank0
 11115     0773  1303               	bcf	3,6	;RP1=0, select bank0
 11116     0774  00C0               	movwf	___fldiv@new_exp
 11117     0775  3000               	movlw	0
 11118     0776  00C1               	movwf	___fldiv@new_exp+1
 11119     0777  3000               	movlw	0
 11120     0778  00B5               	movwf	___fldiv@b+3
 11121     0779  3000               	movlw	0
 11122     077A  00B4               	movwf	___fldiv@b+2
 11123     077B  3000               	movlw	0
 11124     077C  00B3               	movwf	___fldiv@b+1
 11125     077D  3000               	movlw	0
 11126     077E  00B2               	movwf	___fldiv@b
 11127     077F                     l3273:
 11128     077F  1283               	bcf	3,5	;RP0=0, select bank0
 11129     0780  1303               	bcf	3,6	;RP1=0, select bank0
 11130     0781  0841               	movf	___fldiv@new_exp+1,w
 11131     0782  3A80               	xorlw	128
 11132     0783  00FF               	movwf	btemp1
 11133     0784  3080               	movlw	128
 11134     0785  027F               	subwf	btemp1,w
 11135     0786  1D03               	skipz
 11136     0787  2F8A               	goto	u3165
 11137     0788  3001               	movlw	1
 11138     0789  0240               	subwf	___fldiv@new_exp,w
 11139     078A                     u3165:
 11140     078A  1803               	skipnc
 11141     078B  2F8D               	goto	u3161
 11142     078C  2F8E               	goto	u3160
 11143     078D                     u3161:
 11144     078D  2F9B               	goto	l1174
 11145     078E                     u3160:
 11146     078E                     l3275:
 11147     078E  1283               	bcf	3,5	;RP0=0, select bank0
 11148     078F  1303               	bcf	3,6	;RP1=0, select bank0
 11149     0790  01C0               	clrf	___fldiv@new_exp
 11150     0791  01C1               	clrf	___fldiv@new_exp+1
 11151     0792                     l3277:
 11152     0792  3000               	movlw	0
 11153     0793  00B5               	movwf	___fldiv@b+3
 11154     0794  3000               	movlw	0
 11155     0795  00B4               	movwf	___fldiv@b+2
 11156     0796  3000               	movlw	0
 11157     0797  00B3               	movwf	___fldiv@b+1
 11158     0798  3000               	movlw	0
 11159     0799  00B2               	movwf	___fldiv@b
 11160     079A                     l3279:
 11161     079A  01BF               	clrf	___fldiv@sign
 11162     079B                     l1174:
 11163     079B  1283               	bcf	3,5	;RP0=0, select bank0
 11164     079C  1303               	bcf	3,6	;RP1=0, select bank0
 11165     079D  0840               	movf	___fldiv@new_exp,w
 11166     079E  00C6               	movwf	___fldiv@bexp
 11167     079F                     l3281:
 11168     079F  1C46               	btfss	___fldiv@bexp,0
 11169     07A0  2FA2               	goto	u3171
 11170     07A1  2FA3               	goto	u3170
 11171     07A2                     u3171:
 11172     07A2  2FA5               	goto	l3285
 11173     07A3                     u3170:
 11174     07A3                     l3283:
 11175     07A3  17B4               	bsf	___fldiv@b+2,7
 11176     07A4  2FA7               	goto	l1176
 11177     07A5                     l3285:
 11178     07A5  307F               	movlw	127
 11179     07A6  05B4               	andwf	___fldiv@b+2,f
 11180     07A7                     l1176:
 11181     07A7  0846               	movf	___fldiv@bexp,w
 11182     07A8  00B6               	movwf	??___fldiv
 11183     07A9  1003               	clrc
 11184     07AA  0C36               	rrf	??___fldiv,w
 11185     07AB  00B5               	movwf	___fldiv@b+3
 11186     07AC  083F               	movf	___fldiv@sign,w
 11187     07AD  04B5               	iorwf	___fldiv@b+3,f
 11188     07AE  2E51               	goto	l3193
 11189     07AF                     l1154:
 11190     07AF  0008               	return
 11191     07B0                     __end_of___fldiv:
 11192                           
 11193                           	psect	text43
 11194     1292                     __ptext43:	
 11195 ;; *************** function _clear_log *****************
 11196 ;; Defined at:
 11197 ;;		line 94 in file "menu_actions.c"
 11198 ;; Parameters:    Size  Location     Type
 11199 ;;		None
 11200 ;; Auto vars:     Size  Location     Type
 11201 ;;		None
 11202 ;; Return value:  Size  Location     Type
 11203 ;;                  1    wreg      void 
 11204 ;; Registers used:
 11205 ;;		wreg, fsr0l, fsr0h, status,2, status,0, pclath, btemp1, cstack
 11206 ;; Tracked objects:
 11207 ;;		On entry : 0/0
 11208 ;;		On exit  : 0/0
 11209 ;;		Unchanged: 0/0
 11210 ;; Data sizes:     COMMON   BANK0   BANK1   BANK3   BANK2
 11211 ;;      Params:         0       0       0       0       0
 11212 ;;      Locals:         0       0       0       0       0
 11213 ;;      Temps:          2       0       0       0       0
 11214 ;;      Totals:         2       0       0       0       0
 11215 ;;Total ram usage:        2 bytes
 11216 ;; Hardware stack levels used: 1
 11217 ;; Hardware stack levels required when called: 2
 11218 ;; This function calls:
 11219 ;;		_clcd_print
 11220 ;; This function is called by:
 11221 ;;		_main
 11222 ;; This function uses a non-reentrant model
 11223 ;;
 11224                           
 11225     1292                     _clear_log:	
 11226                           ;psect for function _clear_log
 11227                           
 11228     1292                     l3825:	
 11229                           ;incstack = 0
 11230                           ; Regs used in _clear_log: [wreg-fsr0h+status,2+status,0+pclath+btemp1+cstack]
 11231                           
 11232                           
 11233                           ;menu_actions.c: 96:     static unsigned int delay = 0;;menu_actions.c: 97:     static u
      +                          nsigned char once = 1;;menu_actions.c: 99:     if(once)
 11234     1292  1683               	bsf	3,5	;RP0=1, select bank1
 11235     1293  1303               	bcf	3,6	;RP1=0, select bank1
 11236     1294  0868               	movf	clear_log@once^(0+128),w
 11237     1295  1903               	btfsc	3,2
 11238     1296  2A98               	goto	u3871
 11239     1297  2A99               	goto	u3870
 11240     1298                     u3871:
 11241     1298  2ABD               	goto	l3833
 11242     1299                     u3870:
 11243     1299                     l3827:
 11244                           
 11245                           ;menu_actions.c: 100:     {;menu_actions.c: 101:         event_count = 0;
 11246     1299  1283               	bcf	3,5	;RP0=0, select bank0
 11247     129A  1303               	bcf	3,6	;RP1=0, select bank0
 11248     129B  01EC               	clrf	_event_count
 11249                           
 11250                           ;menu_actions.c: 102:         log_write_addr = 0;
 11251     129C  1683               	bsf	3,5	;RP0=1, select bank1
 11252     129D  1303               	bcf	3,6	;RP1=0, select bank1
 11253     129E  01C8               	clrf	_log_write_addr^(0+128)
 11254     129F  01C9               	clrf	(_log_write_addr+1)^(0+128)
 11255     12A0                     l3829:
 11256                           
 11257                           ;menu_actions.c: 104:         clcd_print("LOGS ARE CLEARED", (0x80 + 0));
 11258     12A0  308D               	movlw	low (STR_26| (0+32768))
 11259     12A1  1283               	bcf	3,5	;RP0=0, select bank0
 11260     12A2  1303               	bcf	3,6	;RP1=0, select bank0
 11261     12A3  00A0               	movwf	clcd_print@str
 11262     12A4  3090               	movlw	high (STR_26| (0+32768))
 11263     12A5  00A1               	movwf	clcd_print@str+1
 11264     12A6  3080               	movlw	128
 11265     12A7  00A2               	movwf	clcd_print@addr
 11266     12A8  160A  158A  279A  160A  118A  	fcall	_clcd_print
 11267     12AD                     l3831:
 11268                           
 11269                           ;menu_actions.c: 105:         clcd_print("                ", (0xC0 + 0));
 11270     12AD  3014               	movlw	low ((STR_37+1)| (0+32768))
 11271     12AE  1283               	bcf	3,5	;RP0=0, select bank0
 11272     12AF  1303               	bcf	3,6	;RP1=0, select bank0
 11273     12B0  00A0               	movwf	clcd_print@str
 11274     12B1  3090               	movlw	high ((STR_37+1)| (0+32768))
 11275     12B2  00A1               	movwf	clcd_print@str+1
 11276     12B3  30C0               	movlw	192
 11277     12B4  00A2               	movwf	clcd_print@addr
 11278     12B5  160A  158A  279A  160A  118A  	fcall	_clcd_print
 11279                           
 11280                           ;menu_actions.c: 107:         once = 0;
 11281     12BA  1683               	bsf	3,5	;RP0=1, select bank1
 11282     12BB  1303               	bcf	3,6	;RP1=0, select bank1
 11283     12BC  01E8               	clrf	clear_log@once^(0+128)
 11284     12BD                     l3833:
 11285                           
 11286                           ;menu_actions.c: 110:     if(delay++ > 20000)
 11287     12BD  082F               	movf	(clear_log@delay+1)^(0+128),w
 11288     12BE  00F7               	movwf	??_clear_log+1
 11289     12BF  082E               	movf	clear_log@delay^(0+128),w
 11290     12C0  00F6               	movwf	??_clear_log
 11291     12C1  0AAE               	incf	clear_log@delay^(0+128),f
 11292     12C2  1903               	skipnz
 11293     12C3  0AAF               	incf	(clear_log@delay+1)^(0+128),f
 11294     12C4  304E               	movlw	78
 11295     12C5  0277               	subwf	??_clear_log+1,w
 11296     12C6  3021               	movlw	33
 11297     12C7  1903               	skipnz
 11298     12C8  0276               	subwf	??_clear_log,w
 11299     12C9  1C03               	skipc
 11300     12CA  2ACC               	goto	u3881
 11301     12CB  2ACD               	goto	u3880
 11302     12CC                     u3881:
 11303     12CC  2AD3               	goto	l528
 11304     12CD                     u3880:
 11305     12CD                     l3835:
 11306                           
 11307                           ;menu_actions.c: 111:     {;menu_actions.c: 112:         exit_clear_log = 1;
 11308     12CD  3001               	movlw	1
 11309     12CE  00CE               	movwf	_exit_clear_log^(0+128)
 11310     12CF                     l3837:
 11311                           
 11312                           ;menu_actions.c: 113:         delay = 0;
 11313     12CF  01AE               	clrf	clear_log@delay^(0+128)
 11314     12D0  01AF               	clrf	(clear_log@delay+1)^(0+128)
 11315     12D1                     l3839:
 11316                           
 11317                           ;menu_actions.c: 114:         once = 1;
 11318     12D1  3001               	movlw	1
 11319     12D2  00E8               	movwf	clear_log@once^(0+128)
 11320     12D3                     l528:
 11321     12D3  0008               	return
 11322     12D4                     __end_of_clear_log:
 11323                           
 11324                           	psect	text44
 11325     0DE1                     __ptext44:	
 11326 ;; *************** function _change_pass *****************
 11327 ;; Defined at:
 11328 ;;		line 181 in file "menu_actions.c"
 11329 ;; Parameters:    Size  Location     Type
 11330 ;;  key             1    wreg     unsigned char 
 11331 ;; Auto vars:     Size  Location     Type
 11332 ;;  key             1   14[BANK0 ] unsigned char 
 11333 ;; Return value:  Size  Location     Type
 11334 ;;                  1    wreg      void 
 11335 ;; Registers used:
 11336 ;;		wreg, fsr0l, fsr0h, status,2, status,0, pclath, btemp1, cstack
 11337 ;; Tracked objects:
 11338 ;;		On entry : 0/0
 11339 ;;		On exit  : 0/0
 11340 ;;		Unchanged: 0/0
 11341 ;; Data sizes:     COMMON   BANK0   BANK1   BANK3   BANK2
 11342 ;;      Params:         0       0       0       0       0
 11343 ;;      Locals:         0       9       0       0       0
 11344 ;;      Temps:          0       2       0       0       0
 11345 ;;      Totals:         0      11       0       0       0
 11346 ;;Total ram usage:       11 bytes
 11347 ;; Hardware stack levels used: 1
 11348 ;; Hardware stack levels required when called: 3
 11349 ;; This function calls:
 11350 ;;		_clcd_print
 11351 ;;		_clcd_putch
 11352 ;;		_my_strcmp
 11353 ;;		_my_strcpy
 11354 ;; This function is called by:
 11355 ;;		_main
 11356 ;; This function uses a non-reentrant model
 11357 ;;
 11358                           
 11359     0DE1                     _change_pass:	
 11360                           ;psect for function _change_pass
 11361                           
 11362                           
 11363                           ;incstack = 0
 11364                           ; Regs used in _change_pass: [wreg-fsr0h+status,2+status,0+pclath+btemp1+cstack]
 11365                           ;change_pass@key stored from wreg
 11366     0DE1  1283               	bcf	3,5	;RP0=0, select bank0
 11367     0DE2  1303               	bcf	3,6	;RP1=0, select bank0
 11368     0DE3  00AE               	movwf	change_pass@key
 11369     0DE4                     l4039:
 11370                           
 11371                           ;menu_actions.c: 181: void change_pass(unsigned char key);menu_actions.c: 182: {;menu_ac
      +                          tions.c: 183:     static char arr1[5], arr2[5];;menu_actions.c: 184:     static unsigned
      +                           int i = 0, j = 0;;menu_actions.c: 185:     static unsigned char once1 = 1, once2 = 1;;m
      +                          enu_actions.c: 186:     static unsigned int prev_sec = 0, prev_sec2 = 0;;menu_actions.c:
      +                           187:     static unsigned int res_time = 0;;menu_actions.c: 188:     static int flag = 0
      +                          ;;menu_actions.c: 189:     static char str[17] = "                ";;menu_actions.c: 190
      +                          :     static unsigned char prev_key = 0;
 11372     0DE4  303F               	movlw	63
 11373     0DE5  062E               	xorwf	change_pass@key,w
 11374     0DE6  1D03               	btfss	3,2
 11375     0DE7  2DE9               	goto	u4151
 11376     0DE8  2DEA               	goto	u4150
 11377     0DE9                     u4151:
 11378     0DE9  2DEC               	goto	l4043
 11379     0DEA                     u4150:
 11380     0DEA                     l4041:
 11381                           
 11382                           ;menu_actions.c: 193:         prev_key = 0x3F;
 11383     0DEA  303F               	movlw	63
 11384     0DEB  00EA               	movwf	change_pass@prev_key
 11385     0DEC                     l4043:
 11386                           
 11387                           ;menu_actions.c: 195:     if(flag == 0)
 11388     0DEC  1683               	bsf	3,5	;RP0=1, select bank1
 11389     0DED  1303               	bcf	3,6	;RP1=0, select bank1
 11390     0DEE  0824               	movf	change_pass@flag^(0+128),w
 11391     0DEF  0425               	iorwf	(change_pass@flag+1)^(0+128),w
 11392     0DF0  1D03               	btfss	3,2
 11393     0DF1  2DF3               	goto	u4161
 11394     0DF2  2DF4               	goto	u4160
 11395     0DF3                     u4161:
 11396     0DF3  2F75               	goto	l4151
 11397     0DF4                     u4160:
 11398     0DF4                     l4045:
 11399                           
 11400                           ;menu_actions.c: 196:     {;menu_actions.c: 197:         if(once1)
 11401     0DF4  0866               	movf	change_pass@once1^(0+128),w
 11402     0DF5  1903               	btfsc	3,2
 11403     0DF6  2DF8               	goto	u4171
 11404     0DF7  2DF9               	goto	u4170
 11405     0DF8                     u4171:
 11406     0DF8  2E09               	goto	l4051
 11407     0DF9                     u4170:
 11408     0DF9                     l4047:
 11409                           
 11410                           ;menu_actions.c: 198:         {;menu_actions.c: 199:             clcd_print(" ENTER PASS
      +                          WORD ", (0x80 + 0));
 11411     0DF9  3004               	movlw	low (STR_11| (0+32768))
 11412     0DFA  1283               	bcf	3,5	;RP0=0, select bank0
 11413     0DFB  1303               	bcf	3,6	;RP1=0, select bank0
 11414     0DFC  00A0               	movwf	clcd_print@str
 11415     0DFD  3091               	movlw	high (STR_11| (0+32768))
 11416     0DFE  00A1               	movwf	clcd_print@str+1
 11417     0DFF  3080               	movlw	128
 11418     0E00  00A2               	movwf	clcd_print@addr
 11419     0E01  160A  158A  279A  120A  158A  	fcall	_clcd_print
 11420     0E06                     l4049:
 11421                           
 11422                           ;menu_actions.c: 200:             once1 = 0;
 11423     0E06  1683               	bsf	3,5	;RP0=1, select bank1
 11424     0E07  1303               	bcf	3,6	;RP1=0, select bank1
 11425     0E08  01E6               	clrf	change_pass@once1^(0+128)
 11426     0E09                     l4051:
 11427                           
 11428                           ;menu_actions.c: 203:         if(i == 0)
 11429     0E09  1283               	bcf	3,5	;RP0=0, select bank0
 11430     0E0A  1303               	bcf	3,6	;RP1=0, select bank0
 11431     0E0B  085F               	movf	change_pass@i,w
 11432     0E0C  0460               	iorwf	change_pass@i+1,w
 11433     0E0D  1D03               	btfss	3,2
 11434     0E0E  2E10               	goto	u4181
 11435     0E0F  2E11               	goto	u4180
 11436     0E10                     u4181:
 11437     0E10  2E1C               	goto	l4055
 11438     0E11                     u4180:
 11439     0E11                     l4053:
 11440                           
 11441                           ;menu_actions.c: 204:             clcd_print(str, (0xC0 + 0));
 11442     0E11  3010               	movlw	(low (change_pass@str| (0+256)))& (0+255)
 11443     0E12  00A0               	movwf	clcd_print@str
 11444     0E13  3001               	movlw	1
 11445     0E14  00A1               	movwf	clcd_print@str+1
 11446     0E15  30C0               	movlw	192
 11447     0E16  00A2               	movwf	clcd_print@addr
 11448     0E17  160A  158A  279A  120A  158A  	fcall	_clcd_print
 11449     0E1C                     l4055:
 11450                           
 11451                           ;menu_actions.c: 206:         if(i < 4)
 11452     0E1C  3000               	movlw	0
 11453     0E1D  1283               	bcf	3,5	;RP0=0, select bank0
 11454     0E1E  1303               	bcf	3,6	;RP1=0, select bank0
 11455     0E1F  0260               	subwf	change_pass@i+1,w
 11456     0E20  3004               	movlw	4
 11457     0E21  1903               	skipnz
 11458     0E22  025F               	subwf	change_pass@i,w
 11459     0E23  1803               	skipnc
 11460     0E24  2E26               	goto	u4191
 11461     0E25  2E27               	goto	u4190
 11462     0E26                     u4191:
 11463     0E26  2E97               	goto	l4089
 11464     0E27                     u4190:
 11465     0E27                     l4057:
 11466                           
 11467                           ;menu_actions.c: 207:         {;menu_actions.c: 208:             if(sec != prev_sec)
 11468     0E27  1683               	bsf	3,5	;RP0=1, select bank1
 11469     0E28  1303               	bcf	3,6	;RP1=0, select bank1
 11470     0E29  082B               	movf	(change_pass@prev_sec+1)^(0+128),w
 11471     0E2A  1283               	bcf	3,5	;RP0=0, select bank0
 11472     0E2B  1303               	bcf	3,6	;RP1=0, select bank0
 11473     0E2C  0666               	xorwf	_sec+1,w	;volatile
 11474     0E2D  1D03               	skipz
 11475     0E2E  2E35               	goto	u4205
 11476     0E2F  1683               	bsf	3,5	;RP0=1, select bank1
 11477     0E30  1303               	bcf	3,6	;RP1=0, select bank1
 11478     0E31  082A               	movf	change_pass@prev_sec^(0+128),w
 11479     0E32  1283               	bcf	3,5	;RP0=0, select bank0
 11480     0E33  1303               	bcf	3,6	;RP1=0, select bank0
 11481     0E34  0665               	xorwf	_sec,w	;volatile
 11482     0E35                     u4205:
 11483     0E35  1903               	skipnz
 11484     0E36  2E38               	goto	u4201
 11485     0E37  2E39               	goto	u4200
 11486     0E38                     u4201:
 11487     0E38  2E5B               	goto	l4069
 11488     0E39                     u4200:
 11489     0E39                     l4059:
 11490                           
 11491                           ;menu_actions.c: 209:             {;menu_actions.c: 210:                 prev_sec = sec;
 11492     0E39  0866               	movf	_sec+1,w	;volatile
 11493     0E3A  1683               	bsf	3,5	;RP0=1, select bank1
 11494     0E3B  1303               	bcf	3,6	;RP1=0, select bank1
 11495     0E3C  00AB               	movwf	(change_pass@prev_sec+1)^(0+128)
 11496     0E3D  1283               	bcf	3,5	;RP0=0, select bank0
 11497     0E3E  1303               	bcf	3,6	;RP1=0, select bank0
 11498     0E3F  0865               	movf	_sec,w	;volatile
 11499     0E40  1683               	bsf	3,5	;RP0=1, select bank1
 11500     0E41  1303               	bcf	3,6	;RP1=0, select bank1
 11501     0E42  00AA               	movwf	change_pass@prev_sec^(0+128)
 11502     0E43                     l4061:
 11503                           
 11504                           ;menu_actions.c: 211:                 clcd_putch((sec % 2) ? ' ' : 0xFF, (0xC0 + i + 3))
      +                          ;
 11505     0E43  1283               	bcf	3,5	;RP0=0, select bank0
 11506     0E44  1303               	bcf	3,6	;RP1=0, select bank0
 11507     0E45  1865               	btfsc	_sec,0	;volatile
 11508     0E46  2E48               	goto	u4211
 11509     0E47  2E49               	goto	u4210
 11510     0E48                     u4211:
 11511     0E48  2E4E               	goto	l4065
 11512     0E49                     u4210:
 11513     0E49                     l4063:
 11514     0E49  30FF               	movlw	255
 11515     0E4A  00A6               	movwf	_change_pass$413
 11516     0E4B  3000               	movlw	0
 11517     0E4C  00A7               	movwf	_change_pass$413+1
 11518     0E4D  2E52               	goto	l4067
 11519     0E4E                     l4065:
 11520     0E4E  3020               	movlw	32
 11521     0E4F  00A6               	movwf	_change_pass$413
 11522     0E50  3000               	movlw	0
 11523     0E51  00A7               	movwf	_change_pass$413+1
 11524     0E52                     l4067:
 11525     0E52  085F               	movf	change_pass@i,w
 11526     0E53  3EC3               	addlw	195
 11527     0E54  00F7               	movwf	clcd_putch@addr
 11528     0E55  0826               	movf	_change_pass$413,w
 11529     0E56  160A  118A  21A2  120A  158A  	fcall	_clcd_putch
 11530     0E5B                     l4069:
 11531                           
 11532                           ;menu_actions.c: 214:             if ((key == 0x3E || key == 0x3D) && key != prev_key)
 11533     0E5B  303E               	movlw	62
 11534     0E5C  1283               	bcf	3,5	;RP0=0, select bank0
 11535     0E5D  1303               	bcf	3,6	;RP1=0, select bank0
 11536     0E5E  062E               	xorwf	change_pass@key,w
 11537     0E5F  1903               	btfsc	3,2
 11538     0E60  2E62               	goto	u4221
 11539     0E61  2E63               	goto	u4220
 11540     0E62                     u4221:
 11541     0E62  2E69               	goto	l4073
 11542     0E63                     u4220:
 11543     0E63                     l4071:
 11544     0E63  303D               	movlw	61
 11545     0E64  062E               	xorwf	change_pass@key,w
 11546     0E65  1D03               	btfss	3,2
 11547     0E66  2E68               	goto	u4231
 11548     0E67  2E69               	goto	u4230
 11549     0E68                     u4231:
 11550     0E68  2E97               	goto	l4089
 11551     0E69                     u4230:
 11552     0E69                     l4073:
 11553     0E69  082E               	movf	change_pass@key,w
 11554     0E6A  066A               	xorwf	change_pass@prev_key,w
 11555     0E6B  1903               	skipnz
 11556     0E6C  2E6E               	goto	u4241
 11557     0E6D  2E6F               	goto	u4240
 11558     0E6E                     u4241:
 11559     0E6E  2E97               	goto	l4089
 11560     0E6F                     u4240:
 11561     0E6F                     l4075:
 11562                           
 11563                           ;menu_actions.c: 215:             {;menu_actions.c: 216:                 prev_key = key;
 11564     0E6F  082E               	movf	change_pass@key,w
 11565     0E70  00EA               	movwf	change_pass@prev_key
 11566     0E71                     l4077:
 11567                           
 11568                           ;menu_actions.c: 217:                 clcd_putch('*', (0xC0 + i + 3));
 11569     0E71  085F               	movf	change_pass@i,w
 11570     0E72  3EC3               	addlw	195
 11571     0E73  00F7               	movwf	clcd_putch@addr
 11572     0E74  302A               	movlw	42
 11573     0E75  160A  118A  21A2  120A  158A  	fcall	_clcd_putch
 11574     0E7A                     l4079:
 11575                           
 11576                           ;menu_actions.c: 218:                 arr1[i++] = (key == 0x3E) ? '0' : '1';
 11577     0E7A  303E               	movlw	62
 11578     0E7B  1283               	bcf	3,5	;RP0=0, select bank0
 11579     0E7C  1303               	bcf	3,6	;RP1=0, select bank0
 11580     0E7D  062E               	xorwf	change_pass@key,w
 11581     0E7E  1903               	btfsc	3,2
 11582     0E7F  2E81               	goto	u4251
 11583     0E80  2E82               	goto	u4250
 11584     0E81                     u4251:
 11585     0E81  2E87               	goto	l4083
 11586     0E82                     u4250:
 11587     0E82                     l4081:
 11588     0E82  3031               	movlw	49
 11589     0E83  00A8               	movwf	_change_pass$414
 11590     0E84  3000               	movlw	0
 11591     0E85  00A9               	movwf	_change_pass$414+1
 11592     0E86  2E8B               	goto	l4085
 11593     0E87                     l4083:
 11594     0E87  3030               	movlw	48
 11595     0E88  00A8               	movwf	_change_pass$414
 11596     0E89  3000               	movlw	0
 11597     0E8A  00A9               	movwf	_change_pass$414+1
 11598     0E8B                     l4085:
 11599     0E8B  085F               	movf	change_pass@i,w
 11600     0E8C  3EC0               	addlw	(low (change_pass@arr1| (0+256)))& (0+255)
 11601     0E8D  0084               	movwf	4
 11602     0E8E  0828               	movf	_change_pass$414,w
 11603     0E8F  1783               	bsf	3,7	;select IRP bank3
 11604     0E90  0080               	movwf	0
 11605     0E91                     l4087:
 11606     0E91  3001               	movlw	1
 11607     0E92  07DF               	addwf	change_pass@i,f
 11608     0E93  1803               	skipnc
 11609     0E94  0AE0               	incf	change_pass@i+1,f
 11610     0E95  3000               	movlw	0
 11611     0E96  07E0               	addwf	change_pass@i+1,f
 11612     0E97                     l4089:
 11613                           
 11614                           ;menu_actions.c: 222:         if (i == 4)
 11615     0E97  3004               	movlw	4
 11616     0E98  065F               	xorwf	change_pass@i,w
 11617     0E99  0460               	iorwf	change_pass@i+1,w
 11618     0E9A  1D03               	btfss	3,2
 11619     0E9B  2E9D               	goto	u4261
 11620     0E9C  2E9E               	goto	u4260
 11621     0E9D                     u4261:
 11622     0E9D  2EA1               	goto	l4093
 11623     0E9E                     u4260:
 11624     0E9E                     l4091:
 11625                           
 11626                           ;menu_actions.c: 223:             arr1[4] = '\0';
 11627     0E9E  1683               	bsf	3,5	;RP0=1, select bank3
 11628     0E9F  1703               	bsf	3,6	;RP1=1, select bank3
 11629     0EA0  01C4               	clrf	(change_pass@arr1^(0+384)+4)
 11630     0EA1                     l4093:
 11631                           
 11632                           ;menu_actions.c: 225:         if(i == 4 && j == 0)
 11633     0EA1  3004               	movlw	4
 11634     0EA2  1283               	bcf	3,5	;RP0=0, select bank0
 11635     0EA3  1303               	bcf	3,6	;RP1=0, select bank0
 11636     0EA4  065F               	xorwf	change_pass@i,w
 11637     0EA5  0460               	iorwf	change_pass@i+1,w
 11638     0EA6  1D03               	btfss	3,2
 11639     0EA7  2EA9               	goto	u4271
 11640     0EA8  2EAA               	goto	u4270
 11641     0EA9                     u4271:
 11642     0EA9  2EBA               	goto	l4099
 11643     0EAA                     u4270:
 11644     0EAA                     l4095:
 11645     0EAA  085D               	movf	change_pass@j,w
 11646     0EAB  045E               	iorwf	change_pass@j+1,w
 11647     0EAC  1D03               	btfss	3,2
 11648     0EAD  2EAF               	goto	u4281
 11649     0EAE  2EB0               	goto	u4280
 11650     0EAF                     u4281:
 11651     0EAF  2EBA               	goto	l4099
 11652     0EB0                     u4280:
 11653     0EB0                     l4097:
 11654                           
 11655                           ;menu_actions.c: 226:             prev_sec2 = sec;
 11656     0EB0  0866               	movf	_sec+1,w	;volatile
 11657     0EB1  1683               	bsf	3,5	;RP0=1, select bank1
 11658     0EB2  1303               	bcf	3,6	;RP1=0, select bank1
 11659     0EB3  00A9               	movwf	(change_pass@prev_sec2+1)^(0+128)
 11660     0EB4  1283               	bcf	3,5	;RP0=0, select bank0
 11661     0EB5  1303               	bcf	3,6	;RP1=0, select bank0
 11662     0EB6  0865               	movf	_sec,w	;volatile
 11663     0EB7  1683               	bsf	3,5	;RP0=1, select bank1
 11664     0EB8  1303               	bcf	3,6	;RP1=0, select bank1
 11665     0EB9  00A8               	movwf	change_pass@prev_sec2^(0+128)
 11666     0EBA                     l4099:
 11667                           
 11668                           ;menu_actions.c: 228:         if(i == 4 && j < 4)
 11669     0EBA  3004               	movlw	4
 11670     0EBB  1283               	bcf	3,5	;RP0=0, select bank0
 11671     0EBC  065F               	xorwf	change_pass@i,w
 11672     0EBD  0460               	iorwf	change_pass@i+1,w
 11673     0EBE  1D03               	btfss	3,2
 11674     0EBF  2EC1               	goto	u4291
 11675     0EC0  2EC2               	goto	u4290
 11676     0EC1                     u4291:
 11677     0EC1  2F65               	goto	l4145
 11678     0EC2                     u4290:
 11679     0EC2                     l4101:
 11680     0EC2  3000               	movlw	0
 11681     0EC3  025E               	subwf	change_pass@j+1,w
 11682     0EC4  3004               	movlw	4
 11683     0EC5  1903               	skipnz
 11684     0EC6  025D               	subwf	change_pass@j,w
 11685     0EC7  1803               	skipnc
 11686     0EC8  2ECA               	goto	u4301
 11687     0EC9  2ECB               	goto	u4300
 11688     0ECA                     u4301:
 11689     0ECA  2F65               	goto	l4145
 11690     0ECB                     u4300:
 11691     0ECB                     l4103:
 11692                           
 11693                           ;menu_actions.c: 229:         {;menu_actions.c: 230:             if(once2)
 11694     0ECB  1683               	bsf	3,5	;RP0=1, select bank1
 11695     0ECC  1303               	bcf	3,6	;RP1=0, select bank1
 11696     0ECD  0865               	movf	change_pass@once2^(0+128),w
 11697     0ECE  1903               	btfsc	3,2
 11698     0ECF  2ED1               	goto	u4311
 11699     0ED0  2ED2               	goto	u4310
 11700     0ED1                     u4311:
 11701     0ED1  2EE2               	goto	l4109
 11702     0ED2                     u4310:
 11703     0ED2                     l4105:
 11704                           
 11705                           ;menu_actions.c: 231:             {;menu_actions.c: 232:                 clcd_print("RE-
      +                          ENTER PASSWD ", (0x80 + 0));
 11706     0ED2  307C               	movlw	low (STR_34| (0+32768))
 11707     0ED3  1283               	bcf	3,5	;RP0=0, select bank0
 11708     0ED4  1303               	bcf	3,6	;RP1=0, select bank0
 11709     0ED5  00A0               	movwf	clcd_print@str
 11710     0ED6  3090               	movlw	high (STR_34| (0+32768))
 11711     0ED7  00A1               	movwf	clcd_print@str+1
 11712     0ED8  3080               	movlw	128
 11713     0ED9  00A2               	movwf	clcd_print@addr
 11714     0EDA  160A  158A  279A  120A  158A  	fcall	_clcd_print
 11715     0EDF                     l4107:
 11716                           
 11717                           ;menu_actions.c: 233:                 once2 = 0;
 11718     0EDF  1683               	bsf	3,5	;RP0=1, select bank1
 11719     0EE0  1303               	bcf	3,6	;RP1=0, select bank1
 11720     0EE1  01E5               	clrf	change_pass@once2^(0+128)
 11721     0EE2                     l4109:
 11722                           
 11723                           ;menu_actions.c: 236:             if(j == 0)
 11724     0EE2  1283               	bcf	3,5	;RP0=0, select bank0
 11725     0EE3  1303               	bcf	3,6	;RP1=0, select bank0
 11726     0EE4  085D               	movf	change_pass@j,w
 11727     0EE5  045E               	iorwf	change_pass@j+1,w
 11728     0EE6  1D03               	btfss	3,2
 11729     0EE7  2EE9               	goto	u4321
 11730     0EE8  2EEA               	goto	u4320
 11731     0EE9                     u4321:
 11732     0EE9  2EF5               	goto	l4113
 11733     0EEA                     u4320:
 11734     0EEA                     l4111:
 11735                           
 11736                           ;menu_actions.c: 237:                 clcd_print(str, (0xC0 + 0));
 11737     0EEA  3010               	movlw	(low (change_pass@str| (0+256)))& (0+255)
 11738     0EEB  00A0               	movwf	clcd_print@str
 11739     0EEC  3001               	movlw	1
 11740     0EED  00A1               	movwf	clcd_print@str+1
 11741     0EEE  30C0               	movlw	192
 11742     0EEF  00A2               	movwf	clcd_print@addr
 11743     0EF0  160A  158A  279A  120A  158A  	fcall	_clcd_print
 11744     0EF5                     l4113:
 11745                           
 11746                           ;menu_actions.c: 239:             if(sec != prev_sec2)
 11747     0EF5  1683               	bsf	3,5	;RP0=1, select bank1
 11748     0EF6  1303               	bcf	3,6	;RP1=0, select bank1
 11749     0EF7  0829               	movf	(change_pass@prev_sec2+1)^(0+128),w
 11750     0EF8  1283               	bcf	3,5	;RP0=0, select bank0
 11751     0EF9  1303               	bcf	3,6	;RP1=0, select bank0
 11752     0EFA  0666               	xorwf	_sec+1,w	;volatile
 11753     0EFB  1D03               	skipz
 11754     0EFC  2F03               	goto	u4335
 11755     0EFD  1683               	bsf	3,5	;RP0=1, select bank1
 11756     0EFE  1303               	bcf	3,6	;RP1=0, select bank1
 11757     0EFF  0828               	movf	change_pass@prev_sec2^(0+128),w
 11758     0F00  1283               	bcf	3,5	;RP0=0, select bank0
 11759     0F01  1303               	bcf	3,6	;RP1=0, select bank0
 11760     0F02  0665               	xorwf	_sec,w	;volatile
 11761     0F03                     u4335:
 11762     0F03  1903               	skipnz
 11763     0F04  2F06               	goto	u4331
 11764     0F05  2F07               	goto	u4330
 11765     0F06                     u4331:
 11766     0F06  2F29               	goto	l4125
 11767     0F07                     u4330:
 11768     0F07                     l4115:
 11769                           
 11770                           ;menu_actions.c: 240:             {;menu_actions.c: 241:                 prev_sec2 = sec
      +                          ;
 11771     0F07  0866               	movf	_sec+1,w	;volatile
 11772     0F08  1683               	bsf	3,5	;RP0=1, select bank1
 11773     0F09  1303               	bcf	3,6	;RP1=0, select bank1
 11774     0F0A  00A9               	movwf	(change_pass@prev_sec2+1)^(0+128)
 11775     0F0B  1283               	bcf	3,5	;RP0=0, select bank0
 11776     0F0C  1303               	bcf	3,6	;RP1=0, select bank0
 11777     0F0D  0865               	movf	_sec,w	;volatile
 11778     0F0E  1683               	bsf	3,5	;RP0=1, select bank1
 11779     0F0F  1303               	bcf	3,6	;RP1=0, select bank1
 11780     0F10  00A8               	movwf	change_pass@prev_sec2^(0+128)
 11781     0F11                     l4117:
 11782                           
 11783                           ;menu_actions.c: 242:                 clcd_putch((sec % 2) ? ' ' : 0xFF, (0xC0 + j + 3))
      +                          ;
 11784     0F11  1283               	bcf	3,5	;RP0=0, select bank0
 11785     0F12  1303               	bcf	3,6	;RP1=0, select bank0
 11786     0F13  1865               	btfsc	_sec,0	;volatile
 11787     0F14  2F16               	goto	u4341
 11788     0F15  2F17               	goto	u4340
 11789     0F16                     u4341:
 11790     0F16  2F1C               	goto	l4121
 11791     0F17                     u4340:
 11792     0F17                     l4119:
 11793     0F17  30FF               	movlw	255
 11794     0F18  00AA               	movwf	_change_pass$416
 11795     0F19  3000               	movlw	0
 11796     0F1A  00AB               	movwf	_change_pass$416+1
 11797     0F1B  2F20               	goto	l4123
 11798     0F1C                     l4121:
 11799     0F1C  3020               	movlw	32
 11800     0F1D  00AA               	movwf	_change_pass$416
 11801     0F1E  3000               	movlw	0
 11802     0F1F  00AB               	movwf	_change_pass$416+1
 11803     0F20                     l4123:
 11804     0F20  085D               	movf	change_pass@j,w
 11805     0F21  3EC3               	addlw	195
 11806     0F22  00F7               	movwf	clcd_putch@addr
 11807     0F23  082A               	movf	_change_pass$416,w
 11808     0F24  160A  118A  21A2  120A  158A  	fcall	_clcd_putch
 11809     0F29                     l4125:
 11810                           
 11811                           ;menu_actions.c: 245:             if ((key == 0x3E || key == 0x3D) && key != prev_key)
 11812     0F29  303E               	movlw	62
 11813     0F2A  1283               	bcf	3,5	;RP0=0, select bank0
 11814     0F2B  1303               	bcf	3,6	;RP1=0, select bank0
 11815     0F2C  062E               	xorwf	change_pass@key,w
 11816     0F2D  1903               	btfsc	3,2
 11817     0F2E  2F30               	goto	u4351
 11818     0F2F  2F31               	goto	u4350
 11819     0F30                     u4351:
 11820     0F30  2F37               	goto	l4129
 11821     0F31                     u4350:
 11822     0F31                     l4127:
 11823     0F31  303D               	movlw	61
 11824     0F32  062E               	xorwf	change_pass@key,w
 11825     0F33  1D03               	btfss	3,2
 11826     0F34  2F36               	goto	u4361
 11827     0F35  2F37               	goto	u4360
 11828     0F36                     u4361:
 11829     0F36  2F65               	goto	l4145
 11830     0F37                     u4360:
 11831     0F37                     l4129:
 11832     0F37  082E               	movf	change_pass@key,w
 11833     0F38  066A               	xorwf	change_pass@prev_key,w
 11834     0F39  1903               	skipnz
 11835     0F3A  2F3C               	goto	u4371
 11836     0F3B  2F3D               	goto	u4370
 11837     0F3C                     u4371:
 11838     0F3C  2F65               	goto	l4145
 11839     0F3D                     u4370:
 11840     0F3D                     l4131:
 11841                           
 11842                           ;menu_actions.c: 246:             {;menu_actions.c: 247:                 prev_key = key;
 11843     0F3D  082E               	movf	change_pass@key,w
 11844     0F3E  00EA               	movwf	change_pass@prev_key
 11845     0F3F                     l4133:
 11846                           
 11847                           ;menu_actions.c: 248:                 clcd_putch('*', (0xC0 + j + 3));
 11848     0F3F  085D               	movf	change_pass@j,w
 11849     0F40  3EC3               	addlw	195
 11850     0F41  00F7               	movwf	clcd_putch@addr
 11851     0F42  302A               	movlw	42
 11852     0F43  160A  118A  21A2  120A  158A  	fcall	_clcd_putch
 11853     0F48                     l4135:
 11854                           
 11855                           ;menu_actions.c: 249:                 arr2[j++] = (key == 0x3E) ? '0' : '1';
 11856     0F48  303E               	movlw	62
 11857     0F49  1283               	bcf	3,5	;RP0=0, select bank0
 11858     0F4A  1303               	bcf	3,6	;RP1=0, select bank0
 11859     0F4B  062E               	xorwf	change_pass@key,w
 11860     0F4C  1903               	btfsc	3,2
 11861     0F4D  2F4F               	goto	u4381
 11862     0F4E  2F50               	goto	u4380
 11863     0F4F                     u4381:
 11864     0F4F  2F55               	goto	l4139
 11865     0F50                     u4380:
 11866     0F50                     l4137:
 11867     0F50  3031               	movlw	49
 11868     0F51  00AC               	movwf	_change_pass$417
 11869     0F52  3000               	movlw	0
 11870     0F53  00AD               	movwf	_change_pass$417+1
 11871     0F54  2F59               	goto	l4141
 11872     0F55                     l4139:
 11873     0F55  3030               	movlw	48
 11874     0F56  00AC               	movwf	_change_pass$417
 11875     0F57  3000               	movlw	0
 11876     0F58  00AD               	movwf	_change_pass$417+1
 11877     0F59                     l4141:
 11878     0F59  085D               	movf	change_pass@j,w
 11879     0F5A  3EBB               	addlw	(low (change_pass@arr2| (0+256)))& (0+255)
 11880     0F5B  0084               	movwf	4
 11881     0F5C  082C               	movf	_change_pass$417,w
 11882     0F5D  1783               	bsf	3,7	;select IRP bank3
 11883     0F5E  0080               	movwf	0
 11884     0F5F                     l4143:
 11885     0F5F  3001               	movlw	1
 11886     0F60  07DD               	addwf	change_pass@j,f
 11887     0F61  1803               	skipnc
 11888     0F62  0ADE               	incf	change_pass@j+1,f
 11889     0F63  3000               	movlw	0
 11890     0F64  07DE               	addwf	change_pass@j+1,f
 11891     0F65                     l4145:
 11892                           
 11893                           ;menu_actions.c: 253:         if (j == 4)
 11894     0F65  3004               	movlw	4
 11895     0F66  065D               	xorwf	change_pass@j,w
 11896     0F67  045E               	iorwf	change_pass@j+1,w
 11897     0F68  1D03               	btfss	3,2
 11898     0F69  2F6B               	goto	u4391
 11899     0F6A  2F6C               	goto	u4390
 11900     0F6B                     u4391:
 11901     0F6B  2F75               	goto	l4151
 11902     0F6C                     u4390:
 11903     0F6C                     l4147:
 11904                           
 11905                           ;menu_actions.c: 254:         {;menu_actions.c: 255:             arr2[4] = '\0';
 11906     0F6C  1683               	bsf	3,5	;RP0=1, select bank3
 11907     0F6D  1703               	bsf	3,6	;RP1=1, select bank3
 11908     0F6E  01BF               	clrf	(change_pass@arr2^(0+384)+4)
 11909     0F6F                     l4149:
 11910                           
 11911                           ;menu_actions.c: 256:             flag = 1;
 11912     0F6F  3001               	movlw	1
 11913     0F70  1683               	bsf	3,5	;RP0=1, select bank1
 11914     0F71  1303               	bcf	3,6	;RP1=0, select bank1
 11915     0F72  00A4               	movwf	change_pass@flag^(0+128)
 11916     0F73  3000               	movlw	0
 11917     0F74  00A5               	movwf	(change_pass@flag^(0+128)+1)
 11918     0F75                     l4151:
 11919                           
 11920                           ;menu_actions.c: 260:     if(flag == 1)
 11921     0F75  1683               	bsf	3,5	;RP0=1, select bank1
 11922     0F76  1303               	bcf	3,6	;RP1=0, select bank1
 11923     0F77  0324               	decf	change_pass@flag^(0+128),w
 11924     0F78  0425               	iorwf	(change_pass@flag+1)^(0+128),w
 11925     0F79  1D03               	btfss	3,2
 11926     0F7A  2F7C               	goto	u4401
 11927     0F7B  2F7D               	goto	u4400
 11928     0F7C                     u4401:
 11929     0F7C  2FFF               	goto	l607
 11930     0F7D                     u4400:
 11931     0F7D                     l4153:
 11932                           
 11933                           ;menu_actions.c: 261:     {;menu_actions.c: 262:         if(my_strcmp(arr1, arr2) == 0)
 11934     0F7D  30C0               	movlw	(low (change_pass@arr1| (0+256)))& (0+255)
 11935     0F7E  00F2               	movwf	my_strcmp@str1
 11936     0F7F  30BB               	movlw	(low (change_pass@arr2| (0+256)))& (0+255)
 11937     0F80  00F3               	movwf	my_strcmp@str2
 11938     0F81  160A  158A  26BD  120A  158A  	fcall	_my_strcmp
 11939     0F86  0872               	movf	?_my_strcmp,w
 11940     0F87  0473               	iorwf	?_my_strcmp+1,w
 11941     0F88  1D03               	btfss	3,2
 11942     0F89  2F8B               	goto	u4411
 11943     0F8A  2F8C               	goto	u4410
 11944     0F8B                     u4411:
 11945     0F8B  2FA3               	goto	l4159
 11946     0F8C                     u4410:
 11947     0F8C                     l4155:
 11948                           
 11949                           ;menu_actions.c: 263:         {;menu_actions.c: 264:             my_strcpy(pass, arr1);
 11950     0F8C  30E4               	movlw	(low (_pass| (0+256)))& (0+255)
 11951     0F8D  00F2               	movwf	my_strcpy@dst
 11952     0F8E  30C0               	movlw	(low (change_pass@arr1| (0+256)))& (0+255)
 11953     0F8F  00F3               	movwf	my_strcpy@src
 11954     0F90  160A  158A  2565  120A  158A  	fcall	_my_strcpy
 11955     0F95                     l4157:
 11956                           
 11957                           ;menu_actions.c: 265:             clcd_print("PASSWD IS CHANGED", (0x80 + 0));
 11958     0F95  3025               	movlw	low (STR_35| (0+32768))
 11959     0F96  1283               	bcf	3,5	;RP0=0, select bank0
 11960     0F97  1303               	bcf	3,6	;RP1=0, select bank0
 11961     0F98  00A0               	movwf	clcd_print@str
 11962     0F99  3090               	movlw	high (STR_35| (0+32768))
 11963     0F9A  00A1               	movwf	clcd_print@str+1
 11964     0F9B  3080               	movlw	128
 11965     0F9C  00A2               	movwf	clcd_print@addr
 11966     0F9D  160A  158A  279A  120A  158A  	fcall	_clcd_print
 11967                           
 11968                           ;menu_actions.c: 266:         }
 11969     0FA2  2FB0               	goto	l604
 11970     0FA3                     l4159:
 11971                           
 11972                           ;menu_actions.c: 268:         {;menu_actions.c: 269:             clcd_print(" WRONG PASS
      +                          WORD ", (0x80 + 0));
 11973     0FA3  30F3               	movlw	low (STR_14| (0+32768))
 11974     0FA4  1283               	bcf	3,5	;RP0=0, select bank0
 11975     0FA5  1303               	bcf	3,6	;RP1=0, select bank0
 11976     0FA6  00A0               	movwf	clcd_print@str
 11977     0FA7  3090               	movlw	high (STR_14| (0+32768))
 11978     0FA8  00A1               	movwf	clcd_print@str+1
 11979     0FA9  3080               	movlw	128
 11980     0FAA  00A2               	movwf	clcd_print@addr
 11981     0FAB  160A  158A  279A  120A  158A  	fcall	_clcd_print
 11982     0FB0                     l604:	
 11983                           ;menu_actions.c: 270:         }
 11984                           
 11985                           
 11986                           ;menu_actions.c: 272:         clcd_print("                 ", (0xC0 + 0));
 11987     0FB0  3013               	movlw	low (STR_37| (0+32768))
 11988     0FB1  1283               	bcf	3,5	;RP0=0, select bank0
 11989     0FB2  1303               	bcf	3,6	;RP1=0, select bank0
 11990     0FB3  00A0               	movwf	clcd_print@str
 11991     0FB4  3090               	movlw	high (STR_37| (0+32768))
 11992     0FB5  00A1               	movwf	clcd_print@str+1
 11993     0FB6  30C0               	movlw	192
 11994     0FB7  00A2               	movwf	clcd_print@addr
 11995     0FB8  160A  158A  279A  120A  158A  	fcall	_clcd_print
 11996     0FBD                     l4161:
 11997                           
 11998                           ;menu_actions.c: 274:         if (res_time == 0)
 11999     0FBD  1683               	bsf	3,5	;RP0=1, select bank1
 12000     0FBE  1303               	bcf	3,6	;RP1=0, select bank1
 12001     0FBF  0826               	movf	change_pass@res_time^(0+128),w
 12002     0FC0  0427               	iorwf	(change_pass@res_time+1)^(0+128),w
 12003     0FC1  1D03               	btfss	3,2
 12004     0FC2  2FC4               	goto	u4421
 12005     0FC3  2FC5               	goto	u4420
 12006     0FC4                     u4421:
 12007     0FC4  2FD1               	goto	l4165
 12008     0FC5                     u4420:
 12009     0FC5                     l4163:
 12010                           
 12011                           ;menu_actions.c: 275:             res_time = sec;
 12012     0FC5  1283               	bcf	3,5	;RP0=0, select bank0
 12013     0FC6  1303               	bcf	3,6	;RP1=0, select bank0
 12014     0FC7  0866               	movf	_sec+1,w	;volatile
 12015     0FC8  1683               	bsf	3,5	;RP0=1, select bank1
 12016     0FC9  1303               	bcf	3,6	;RP1=0, select bank1
 12017     0FCA  00A7               	movwf	(change_pass@res_time+1)^(0+128)
 12018     0FCB  1283               	bcf	3,5	;RP0=0, select bank0
 12019     0FCC  1303               	bcf	3,6	;RP1=0, select bank0
 12020     0FCD  0865               	movf	_sec,w	;volatile
 12021     0FCE  1683               	bsf	3,5	;RP0=1, select bank1
 12022     0FCF  1303               	bcf	3,6	;RP1=0, select bank1
 12023     0FD0  00A6               	movwf	change_pass@res_time^(0+128)
 12024     0FD1                     l4165:
 12025                           
 12026                           ;menu_actions.c: 277:         if((sec - res_time) >= 2)
 12027     0FD1  0826               	movf	change_pass@res_time^(0+128),w
 12028     0FD2  1283               	bcf	3,5	;RP0=0, select bank0
 12029     0FD3  1303               	bcf	3,6	;RP1=0, select bank0
 12030     0FD4  0265               	subwf	_sec,w	;volatile
 12031     0FD5  00A4               	movwf	??_change_pass
 12032     0FD6  1683               	bsf	3,5	;RP0=1, select bank1
 12033     0FD7  1303               	bcf	3,6	;RP1=0, select bank1
 12034     0FD8  0827               	movf	(change_pass@res_time+1)^(0+128),w
 12035     0FD9  1C03               	skipc
 12036     0FDA  0A27               	incf	(change_pass@res_time+1)^(0+128),w
 12037     0FDB  1283               	bcf	3,5	;RP0=0, select bank0
 12038     0FDC  1303               	bcf	3,6	;RP1=0, select bank0
 12039     0FDD  0266               	subwf	_sec+1,w	;volatile
 12040     0FDE  00A5               	movwf	??_change_pass+1
 12041     0FDF  3000               	movlw	0
 12042     0FE0  0225               	subwf	??_change_pass+1,w
 12043     0FE1  3002               	movlw	2
 12044     0FE2  1903               	skipnz
 12045     0FE3  0224               	subwf	??_change_pass,w
 12046     0FE4  1C03               	skipc
 12047     0FE5  2FE7               	goto	u4431
 12048     0FE6  2FE8               	goto	u4430
 12049     0FE7                     u4431:
 12050     0FE7  2FFF               	goto	l607
 12051     0FE8                     u4430:
 12052     0FE8                     l4167:
 12053                           
 12054                           ;menu_actions.c: 278:         {;menu_actions.c: 279:             exit_ch_pass = 1;
 12055     0FE8  3001               	movlw	1
 12056     0FE9  1683               	bsf	3,5	;RP0=1, select bank1
 12057     0FEA  1303               	bcf	3,6	;RP1=0, select bank1
 12058     0FEB  00CC               	movwf	_exit_ch_pass^(0+128)
 12059     0FEC                     l4169:
 12060                           
 12061                           ;menu_actions.c: 280:             flag = 0;
 12062     0FEC  01A4               	clrf	change_pass@flag^(0+128)
 12063     0FED  01A5               	clrf	(change_pass@flag+1)^(0+128)
 12064                           
 12065                           ;menu_actions.c: 281:             i = j = 0;
 12066     0FEE  1283               	bcf	3,5	;RP0=0, select bank0
 12067     0FEF  1303               	bcf	3,6	;RP1=0, select bank0
 12068     0FF0  01DD               	clrf	change_pass@j
 12069     0FF1  01DE               	clrf	change_pass@j+1
 12070     0FF2  01DF               	clrf	change_pass@i
 12071     0FF3  01E0               	clrf	change_pass@i+1
 12072     0FF4                     l4171:
 12073                           
 12074                           ;menu_actions.c: 282:             once1 = once2 = 1;
 12075     0FF4  3001               	movlw	1
 12076     0FF5  1683               	bsf	3,5	;RP0=1, select bank1
 12077     0FF6  1303               	bcf	3,6	;RP1=0, select bank1
 12078     0FF7  00E5               	movwf	change_pass@once2^(0+128)
 12079     0FF8  00E6               	movwf	change_pass@once1^(0+128)
 12080     0FF9                     l4173:
 12081                           
 12082                           ;menu_actions.c: 283:             res_time = 0;
 12083     0FF9  01A6               	clrf	change_pass@res_time^(0+128)
 12084     0FFA  01A7               	clrf	(change_pass@res_time+1)^(0+128)
 12085     0FFB                     l4175:
 12086                           
 12087                           ;menu_actions.c: 284:             prev_key = 0x3F;
 12088     0FFB  303F               	movlw	63
 12089     0FFC  1283               	bcf	3,5	;RP0=0, select bank0
 12090     0FFD  1303               	bcf	3,6	;RP1=0, select bank0
 12091     0FFE  00EA               	movwf	change_pass@prev_key
 12092     0FFF                     l607:
 12093     0FFF  0008               	return
 12094     1000                     __end_of_change_pass:
 12095                           
 12096                           	psect	text45
 12097     1D65                     __ptext45:	
 12098 ;; *************** function _my_strcpy *****************
 12099 ;; Defined at:
 12100 ;;		line 41 in file "common.c"
 12101 ;; Parameters:    Size  Location     Type
 12102 ;;  dst             1    2[COMMON] PTR unsigned char 
 12103 ;;		 -> pass(5), 
 12104 ;;  src             1    3[COMMON] PTR const unsigned char 
 12105 ;;		 -> change_pass@arr1(5), 
 12106 ;; Auto vars:     Size  Location     Type
 12107 ;;		None
 12108 ;; Return value:  Size  Location     Type
 12109 ;;                  1    wreg      void 
 12110 ;; Registers used:
 12111 ;;		wreg, fsr0l, fsr0h, status,2, status,0
 12112 ;; Tracked objects:
 12113 ;;		On entry : 0/0
 12114 ;;		On exit  : 0/0
 12115 ;;		Unchanged: 0/0
 12116 ;; Data sizes:     COMMON   BANK0   BANK1   BANK3   BANK2
 12117 ;;      Params:         2       0       0       0       0
 12118 ;;      Locals:         0       0       0       0       0
 12119 ;;      Temps:          1       0       0       0       0
 12120 ;;      Totals:         3       0       0       0       0
 12121 ;;Total ram usage:        3 bytes
 12122 ;; Hardware stack levels used: 1
 12123 ;; Hardware stack levels required when called: 1
 12124 ;; This function calls:
 12125 ;;		Nothing
 12126 ;; This function is called by:
 12127 ;;		_change_pass
 12128 ;; This function uses a non-reentrant model
 12129 ;;
 12130                           
 12131     1D65                     _my_strcpy:	
 12132                           ;psect for function _my_strcpy
 12133                           
 12134     1D65                     l2907:	
 12135                           ;incstack = 0
 12136                           ; Regs used in _my_strcpy: [wreg-fsr0h+status,2+status,0]
 12137                           
 12138     1D65                     l2909:
 12139     1D65  0873               	movf	my_strcpy@src,w
 12140     1D66  0AF3               	incf	my_strcpy@src,f
 12141     1D67  0084               	movwf	4
 12142     1D68  1783               	bsf	3,7	;select IRP bank2
 12143     1D69  0800               	movf	0,w
 12144     1D6A  00F4               	movwf	??_my_strcpy
 12145     1D6B  0872               	movf	my_strcpy@dst,w
 12146     1D6C  0AF2               	incf	my_strcpy@dst,f
 12147     1D6D  0084               	movwf	4
 12148     1D6E  0874               	movf	??_my_strcpy,w
 12149     1D6F  0080               	movwf	0
 12150     1D70  0800               	movf	0,w
 12151     1D71  1D03               	btfss	3,2
 12152     1D72  2D74               	goto	u2421
 12153     1D73  2D75               	goto	u2420
 12154     1D74                     u2421:
 12155     1D74  2D65               	goto	l2909
 12156     1D75                     u2420:
 12157     1D75                     l77:
 12158     1D75  0008               	return
 12159     1D76                     __end_of_my_strcpy:
 12160                           
 12161                           	psect	text46
 12162     1EBD                     __ptext46:	
 12163 ;; *************** function _my_strcmp *****************
 12164 ;; Defined at:
 12165 ;;		line 5 in file "common.c"
 12166 ;; Parameters:    Size  Location     Type
 12167 ;;  str1            1    2[COMMON] PTR const unsigned char 
 12168 ;;		 -> change_pass@arr1(5), pass(5), 
 12169 ;;  str2            1    3[COMMON] PTR const unsigned char 
 12170 ;;		 -> change_pass@arr2(5), user_pass(5), 
 12171 ;; Auto vars:     Size  Location     Type
 12172 ;;		None
 12173 ;; Return value:  Size  Location     Type
 12174 ;;                  2    2[COMMON] int 
 12175 ;; Registers used:
 12176 ;;		wreg, fsr0l, fsr0h, status,2, status,0
 12177 ;; Tracked objects:
 12178 ;;		On entry : 0/0
 12179 ;;		On exit  : 0/0
 12180 ;;		Unchanged: 0/0
 12181 ;; Data sizes:     COMMON   BANK0   BANK1   BANK3   BANK2
 12182 ;;      Params:         2       0       0       0       0
 12183 ;;      Locals:         0       0       0       0       0
 12184 ;;      Temps:          2       0       0       0       0
 12185 ;;      Totals:         4       0       0       0       0
 12186 ;;Total ram usage:        4 bytes
 12187 ;; Hardware stack levels used: 1
 12188 ;; Hardware stack levels required when called: 1
 12189 ;; This function calls:
 12190 ;;		Nothing
 12191 ;; This function is called by:
 12192 ;;		_login_screen
 12193 ;;		_change_pass
 12194 ;; This function uses a non-reentrant model
 12195 ;;
 12196                           
 12197     1EBD                     _my_strcmp:	
 12198                           ;psect for function _my_strcmp
 12199                           
 12200     1EBD                     l2891:	
 12201                           ;incstack = 0
 12202                           ; Regs used in _my_strcmp: [wreg-fsr0h+status,2+status,0]
 12203                           
 12204     1EBD  2EC2               	goto	l2895
 12205     1EBE                     l2893:
 12206     1EBE  3001               	movlw	1
 12207     1EBF  07F2               	addwf	my_strcmp@str1,f
 12208     1EC0  3001               	movlw	1
 12209     1EC1  07F3               	addwf	my_strcmp@str2,f
 12210     1EC2                     l2895:
 12211     1EC2  0872               	movf	my_strcmp@str1,w
 12212     1EC3  0084               	movwf	4
 12213     1EC4  1783               	bsf	3,7	;select IRP bank2
 12214     1EC5  0800               	movf	0,w
 12215     1EC6  1903               	btfsc	3,2
 12216     1EC7  2EC9               	goto	u2371
 12217     1EC8  2ECA               	goto	u2370
 12218     1EC9                     u2371:
 12219     1EC9  2ED6               	goto	l2899
 12220     1ECA                     u2370:
 12221     1ECA                     l2897:
 12222     1ECA  0873               	movf	my_strcmp@str2,w
 12223     1ECB  0084               	movwf	4
 12224     1ECC  0800               	movf	0,w
 12225     1ECD  00F4               	movwf	??_my_strcmp
 12226     1ECE  0872               	movf	my_strcmp@str1,w
 12227     1ECF  0084               	movwf	4
 12228     1ED0  0800               	movf	0,w
 12229     1ED1  0674               	xorwf	??_my_strcmp,w
 12230     1ED2  1903               	skipnz
 12231     1ED3  2ED5               	goto	u2381
 12232     1ED4  2ED6               	goto	u2380
 12233     1ED5                     u2381:
 12234     1ED5  2EBE               	goto	l2893
 12235     1ED6                     u2380:
 12236     1ED6                     l2899:
 12237     1ED6  0873               	movf	my_strcmp@str2,w
 12238     1ED7  0084               	movwf	4
 12239     1ED8  0800               	movf	0,w
 12240     1ED9  00F4               	movwf	??_my_strcmp
 12241     1EDA  0872               	movf	my_strcmp@str1,w
 12242     1EDB  0084               	movwf	4
 12243     1EDC  0800               	movf	0,w
 12244     1EDD  00F5               	movwf	??_my_strcmp+1
 12245     1EDE  0874               	movf	??_my_strcmp,w
 12246     1EDF  0275               	subwf	??_my_strcmp+1,w
 12247     1EE0  00F2               	movwf	?_my_strcmp
 12248     1EE1  01F3               	clrf	?_my_strcmp+1
 12249     1EE2  1C03               	skipc
 12250     1EE3  03F3               	decf	?_my_strcmp+1,f
 12251     1EE4                     l65:
 12252     1EE4  0008               	return
 12253     1EE5                     __end_of_my_strcmp:
 12254                           
 12255                           	psect	text47
 12256     11A2                     __ptext47:	
 12257 ;; *************** function _clcd_putch *****************
 12258 ;; Defined at:
 12259 ;;		line 56 in file "clcd.c"
 12260 ;; Parameters:    Size  Location     Type
 12261 ;;  data            1    wreg     const unsigned char 
 12262 ;;  addr            1    7[COMMON] unsigned char 
 12263 ;; Auto vars:     Size  Location     Type
 12264 ;;  data            1    3[BANK0 ] const unsigned char 
 12265 ;; Return value:  Size  Location     Type
 12266 ;;                  1    wreg      void 
 12267 ;; Registers used:
 12268 ;;		wreg, status,2, status,0, pclath, cstack
 12269 ;; Tracked objects:
 12270 ;;		On entry : 0/0
 12271 ;;		On exit  : 0/0
 12272 ;;		Unchanged: 0/0
 12273 ;; Data sizes:     COMMON   BANK0   BANK1   BANK3   BANK2
 12274 ;;      Params:         1       0       0       0       0
 12275 ;;      Locals:         0       1       0       0       0
 12276 ;;      Temps:          0       0       0       0       0
 12277 ;;      Totals:         1       1       0       0       0
 12278 ;;Total ram usage:        2 bytes
 12279 ;; Hardware stack levels used: 1
 12280 ;; Hardware stack levels required when called: 1
 12281 ;; This function calls:
 12282 ;;		_clcd_write
 12283 ;; This function is called by:
 12284 ;;		_login_screen
 12285 ;;		_main_menu
 12286 ;;		_change_pass
 12287 ;;		_set_time
 12288 ;; This function uses a non-reentrant model
 12289 ;;
 12290                           
 12291     11A2                     _clcd_putch:	
 12292                           ;psect for function _clcd_putch
 12293                           
 12294                           
 12295                           ;incstack = 0
 12296                           ; Regs used in _clcd_putch: [wreg+status,2+status,0+pclath+cstack]
 12297                           ;clcd_putch@data stored from wreg
 12298     11A2  1283               	bcf	3,5	;RP0=0, select bank0
 12299     11A3  1303               	bcf	3,6	;RP1=0, select bank0
 12300     11A4  00A3               	movwf	clcd_putch@data
 12301     11A5                     l2889:
 12302                           
 12303                           ;clcd.c: 56: void clcd_putch(const char data, unsigned char addr);clcd.c: 57: {;clcd.c: 
      +                          58:     clcd_write(addr, 0);
 12304     11A5  01F2               	clrf	clcd_write@mode
 12305     11A6  0877               	movf	clcd_putch@addr,w
 12306     11A7  160A  118A  21EB  160A  118A  	fcall	_clcd_write
 12307                           
 12308                           ;clcd.c: 59:     clcd_write(data, 1);
 12309     11AC  01F2               	clrf	clcd_write@mode
 12310     11AD  0AF2               	incf	clcd_write@mode,f
 12311     11AE  1283               	bcf	3,5	;RP0=0, select bank0
 12312     11AF  1303               	bcf	3,6	;RP1=0, select bank0
 12313     11B0  0823               	movf	clcd_putch@data,w
 12314     11B1  160A  118A  21EB  160A  118A  	fcall	_clcd_write
 12315     11B6                     l49:
 12316     11B6  0008               	return
 12317     11B7                     __end_of_clcd_putch:
 12318                           
 12319                           	psect	text48
 12320     1F9A                     __ptext48:	
 12321 ;; *************** function _clcd_print *****************
 12322 ;; Defined at:
 12323 ;;		line 62 in file "clcd.c"
 12324 ;; Parameters:    Size  Location     Type
 12325 ;;  str             2    0[BANK0 ] PTR const unsigned char 
 12326 ;;		 -> STR_38(17), STR_37(18), STR_36(17), STR_35(18), 
 12327 ;;		 -> STR_34(17), change_pass@str(17), STR_33(17), STR_32(16), 
 12328 ;;		 -> STR_29(17), STR_28(17), STR_27(17), STR_26(17), 
 12329 ;;		 -> view_log@line(17), STR_25(17), STR_24(16), STR_23(16), 
 12330 ;;		 -> STR_22(16), STR_21(17), STR_20(17), STR_19(17), 
 12331 ;;		 -> STR_18(18), STR_17(16), STR_16(16), STR_15(17), 
 12332 ;;		 -> STR_14(17), STR_13(16), STR_12(16), login_screen@str(17), 
 12333 ;;		 -> STR_11(17), line2(17), line1(17), time(9), 
 12334 ;;		 -> STR_2(17), STR_1(17), 
 12335 ;;  addr            1    2[BANK0 ] unsigned char 
 12336 ;; Auto vars:     Size  Location     Type
 12337 ;;		None
 12338 ;; Return value:  Size  Location     Type
 12339 ;;                  1    wreg      void 
 12340 ;; Registers used:
 12341 ;;		wreg, fsr0l, fsr0h, status,2, status,0, pclath, btemp1, cstack
 12342 ;; Tracked objects:
 12343 ;;		On entry : 0/0
 12344 ;;		On exit  : 0/0
 12345 ;;		Unchanged: 0/0
 12346 ;; Data sizes:     COMMON   BANK0   BANK1   BANK3   BANK2
 12347 ;;      Params:         0       3       0       0       0
 12348 ;;      Locals:         0       0       0       0       0
 12349 ;;      Temps:          0       0       0       0       0
 12350 ;;      Totals:         0       3       0       0       0
 12351 ;;Total ram usage:        3 bytes
 12352 ;; Hardware stack levels used: 1
 12353 ;; Hardware stack levels required when called: 1
 12354 ;; This function calls:
 12355 ;;		_clcd_write
 12356 ;; This function is called by:
 12357 ;;		_clcd_clear_screen
 12358 ;;		_dashboard
 12359 ;;		_display_time
 12360 ;;		_login_screen
 12361 ;;		_main_menu
 12362 ;;		_view_log
 12363 ;;		_clear_log
 12364 ;;		_down_log
 12365 ;;		_change_pass
 12366 ;;		_set_time
 12367 ;; This function uses a non-reentrant model
 12368 ;;
 12369                           
 12370     1F9A                     _clcd_print:	
 12371                           ;psect for function _clcd_print
 12372                           
 12373     1F9A                     l2823:	
 12374                           ;incstack = 0
 12375                           ; Regs used in _clcd_print: [wreg-fsr0h+status,2+status,0+pclath+btemp1+cstack]
 12376                           
 12377                           
 12378                           ;clcd.c: 62: void clcd_print(const char *str, unsigned char addr);clcd.c: 63: {;clcd.c: 
      +                          64:     clcd_write(addr, 0);
 12379     1F9A  01F2               	clrf	clcd_write@mode
 12380     1F9B  1283               	bcf	3,5	;RP0=0, select bank0
 12381     1F9C  1303               	bcf	3,6	;RP1=0, select bank0
 12382     1F9D  0822               	movf	clcd_print@addr,w
 12383     1F9E  160A  118A  21EB  160A  158A  	fcall	_clcd_write
 12384                           
 12385                           ;clcd.c: 66:     while (*str != '\0')
 12386     1FA3  2FBC               	goto	l2829
 12387     1FA4                     l2825:
 12388                           
 12389                           ;clcd.c: 67:     {;clcd.c: 68:         clcd_write(*str, 1);
 12390     1FA4  01F2               	clrf	clcd_write@mode
 12391     1FA5  0AF2               	incf	clcd_write@mode,f
 12392     1FA6  0821               	movf	clcd_print@str+1,w
 12393     1FA7  00FF               	movwf	btemp1
 12394     1FA8  0820               	movf	clcd_print@str,w
 12395     1FA9  0084               	movwf	4
 12396     1FAA  160A  158A  2000  160A  158A  	fcall	stringtab
 12397     1FAF  160A  118A  21EB  160A  158A  	fcall	_clcd_write
 12398     1FB4                     l2827:
 12399                           
 12400                           ;clcd.c: 69:         str++;
 12401     1FB4  3001               	movlw	1
 12402     1FB5  1283               	bcf	3,5	;RP0=0, select bank0
 12403     1FB6  1303               	bcf	3,6	;RP1=0, select bank0
 12404     1FB7  07A0               	addwf	clcd_print@str,f
 12405     1FB8  1803               	skipnc
 12406     1FB9  0AA1               	incf	clcd_print@str+1,f
 12407     1FBA  3000               	movlw	0
 12408     1FBB  07A1               	addwf	clcd_print@str+1,f
 12409     1FBC                     l2829:
 12410                           
 12411                           ;clcd.c: 66:     while (*str != '\0')
 12412     1FBC  1283               	bcf	3,5	;RP0=0, select bank0
 12413     1FBD  1303               	bcf	3,6	;RP1=0, select bank0
 12414     1FBE  0821               	movf	clcd_print@str+1,w
 12415     1FBF  00FF               	movwf	btemp1
 12416     1FC0  0820               	movf	clcd_print@str,w
 12417     1FC1  0084               	movwf	4
 12418     1FC2  160A  158A  2000  160A  158A  	fcall	stringtab
 12419     1FC7  3A00               	xorlw	0
 12420     1FC8  1D03               	skipz
 12421     1FC9  2FCB               	goto	u2251
 12422     1FCA  2FCC               	goto	u2250
 12423     1FCB                     u2251:
 12424     1FCB  2FA4               	goto	l2825
 12425     1FCC                     u2250:
 12426     1FCC                     l55:
 12427     1FCC  0008               	return
 12428     1FCD                     __end_of_clcd_print:
 12429                           
 12430                           	psect	text49
 12431     11EB                     __ptext49:	
 12432 ;; *************** function _clcd_write *****************
 12433 ;; Defined at:
 12434 ;;		line 4 in file "clcd.c"
 12435 ;; Parameters:    Size  Location     Type
 12436 ;;  byte            1    wreg     unsigned char 
 12437 ;;  mode            1    2[COMMON] unsigned char 
 12438 ;; Auto vars:     Size  Location     Type
 12439 ;;  byte            1    5[COMMON] unsigned char 
 12440 ;; Return value:  Size  Location     Type
 12441 ;;                  1    wreg      void 
 12442 ;; Registers used:
 12443 ;;		wreg, status,2, status,0
 12444 ;; Tracked objects:
 12445 ;;		On entry : 0/0
 12446 ;;		On exit  : 0/0
 12447 ;;		Unchanged: 0/0
 12448 ;; Data sizes:     COMMON   BANK0   BANK1   BANK3   BANK2
 12449 ;;      Params:         1       0       0       0       0
 12450 ;;      Locals:         1       0       0       0       0
 12451 ;;      Temps:          2       0       0       0       0
 12452 ;;      Totals:         4       0       0       0       0
 12453 ;;Total ram usage:        4 bytes
 12454 ;; Hardware stack levels used: 1
 12455 ;; Hardware stack levels required when called: 1
 12456 ;; This function calls:
 12457 ;;		Nothing
 12458 ;; This function is called by:
 12459 ;;		_init_display_controller
 12460 ;;		_clcd_putch
 12461 ;;		_clcd_print
 12462 ;; This function uses a non-reentrant model
 12463 ;;
 12464                           
 12465     11EB                     _clcd_write:	
 12466                           ;psect for function _clcd_write
 12467                           
 12468                           
 12469                           ;incstack = 0
 12470                           ; Regs used in _clcd_write: [wreg+status,2+status,0]
 12471                           ;clcd_write@byte stored from wreg
 12472     11EB  00F5               	movwf	clcd_write@byte
 12473     11EC                     l2755:
 12474                           
 12475                           ;clcd.c: 4: static void clcd_write(unsigned char byte, unsigned char mode);clcd.c: 5: {;
      +                          clcd.c: 6:     RE2 = mode;
 12476     11EC  1872               	btfsc	clcd_write@mode,0
 12477     11ED  29EF               	goto	u2211
 12478     11EE  29F3               	goto	u2210
 12479     11EF                     u2211:
 12480     11EF  1283               	bcf	3,5	;RP0=0, select bank0
 12481     11F0  1303               	bcf	3,6	;RP1=0, select bank0
 12482     11F1  1509               	bsf	9,2	;volatile
 12483     11F2  29F6               	goto	u2224
 12484     11F3                     u2210:
 12485     11F3  1283               	bcf	3,5	;RP0=0, select bank0
 12486     11F4  1303               	bcf	3,6	;RP1=0, select bank0
 12487     11F5  1109               	bcf	9,2	;volatile
 12488     11F6                     u2224:
 12489     11F6                     l2757:
 12490                           
 12491                           ;clcd.c: 8:     PORTD = byte & 0xF0;
 12492     11F6  0875               	movf	clcd_write@byte,w
 12493     11F7  39F0               	andlw	240
 12494     11F8  0088               	movwf	8	;volatile
 12495     11F9                     l2759:
 12496                           
 12497                           ;clcd.c: 9:     RE1 = 1;
 12498     11F9  1489               	bsf	9,1	;volatile
 12499     11FA                     l2761:
 12500                           
 12501                           ;clcd.c: 10:     _delay((unsigned long)((100)*(20000000/4000000.0)));
 12502     11FA  30A6               	movlw	166
 12503     11FB  00F3               	movwf	??_clcd_write
 12504     11FC                     u4707:
 12505     11FC  0BF3               	decfsz	??_clcd_write,f
 12506     11FD  29FC               	goto	u4707
 12507     11FE  0000               	nop
 12508     11FF                     l2763:
 12509                           
 12510                           ;clcd.c: 11:     RE1 = 0;
 12511     11FF  1283               	bcf	3,5	;RP0=0, select bank0
 12512     1200  1303               	bcf	3,6	;RP1=0, select bank0
 12513     1201  1089               	bcf	9,1	;volatile
 12514     1202                     l2765:
 12515                           
 12516                           ;clcd.c: 13:     PORTD = (byte & 0x0F) << 4;
 12517     1202  0875               	movf	clcd_write@byte,w
 12518     1203  390F               	andlw	15
 12519     1204  00F3               	movwf	??_clcd_write
 12520     1205  3003               	movlw	3
 12521     1206                     u2235:
 12522     1206  1003               	clrc
 12523     1207  0DF3               	rlf	??_clcd_write,f
 12524     1208  3EFF               	addlw	-1
 12525     1209  1D03               	skipz
 12526     120A  2A06               	goto	u2235
 12527     120B  1003               	clrc
 12528     120C  0D73               	rlf	??_clcd_write,w
 12529     120D  0088               	movwf	8	;volatile
 12530     120E                     l2767:
 12531                           
 12532                           ;clcd.c: 14:     RE1 = 1;
 12533     120E  1489               	bsf	9,1	;volatile
 12534     120F                     l2769:
 12535                           
 12536                           ;clcd.c: 15:     _delay((unsigned long)((100)*(20000000/4000000.0)));
 12537     120F  30A6               	movlw	166
 12538     1210  00F3               	movwf	??_clcd_write
 12539     1211                     u4717:
 12540     1211  0BF3               	decfsz	??_clcd_write,f
 12541     1212  2A11               	goto	u4717
 12542     1213  0000               	nop
 12543     1214                     l2771:
 12544                           
 12545                           ;clcd.c: 16:     RE1 = 0;
 12546     1214  1283               	bcf	3,5	;RP0=0, select bank0
 12547     1215  1303               	bcf	3,6	;RP1=0, select bank0
 12548     1216  1089               	bcf	9,1	;volatile
 12549     1217                     l2773:
 12550                           
 12551                           ;clcd.c: 18:     _delay((unsigned long)((4100)*(20000000/4000000.0)));
 12552     1217  301B               	movlw	27
 12553     1218  00F4               	movwf	??_clcd_write+1
 12554     1219  309E               	movlw	158
 12555     121A  00F3               	movwf	??_clcd_write
 12556     121B                     u4727:
 12557     121B  0BF3               	decfsz	??_clcd_write,f
 12558     121C  2A1B               	goto	u4727
 12559     121D  0BF4               	decfsz	??_clcd_write+1,f
 12560     121E  2A1B               	goto	u4727
 12561     121F  0000               	nop
 12562     1220                     l40:
 12563     1220  0008               	return
 12564     1221                     __end_of_clcd_write:
 12565                           
 12566                           	psect	text50
 12567     07B0                     __ptext50:	
 12568 ;; *************** function _isr *****************
 12569 ;; Defined at:
 12570 ;;		line 7 in file "isr.c"
 12571 ;; Parameters:    Size  Location     Type
 12572 ;;		None
 12573 ;; Auto vars:     Size  Location     Type
 12574 ;;		None
 12575 ;; Return value:  Size  Location     Type
 12576 ;;                  1    wreg      void 
 12577 ;; Registers used:
 12578 ;;		wreg, status,2, status,0
 12579 ;; Tracked objects:
 12580 ;;		On entry : 0/0
 12581 ;;		On exit  : 0/0
 12582 ;;		Unchanged: 0/0
 12583 ;; Data sizes:     COMMON   BANK0   BANK1   BANK3   BANK2
 12584 ;;      Params:         0       0       0       0       0
 12585 ;;      Locals:         0       0       0       0       0
 12586 ;;      Temps:          2       0       0       0       0
 12587 ;;      Totals:         2       0       0       0       0
 12588 ;;Total ram usage:        2 bytes
 12589 ;; Hardware stack levels used: 1
 12590 ;; This function calls:
 12591 ;;		Nothing
 12592 ;; This function is called by:
 12593 ;;		Interrupt level 1
 12594 ;; This function uses a non-reentrant model
 12595 ;;
 12596                           
 12597     07B0                     _isr:	
 12598                           ;psect for function _isr
 12599                           
 12600     07B0                     i1l4177:
 12601                           
 12602                           ;isr.c: 9:     static unsigned int count = 0;;isr.c: 11:     if (TMR0IF == 1)
 12603     07B0  1D0B               	btfss	11,2	;volatile
 12604     07B1  2FB3               	goto	u444_21
 12605     07B2  2FB4               	goto	u444_20
 12606     07B3                     u444_21:
 12607     07B3  2FF0               	goto	i1l274
 12608     07B4                     u444_20:
 12609     07B4                     i1l4179:
 12610                           
 12611                           ;isr.c: 12:     {;isr.c: 13:         TMR0IF = 0;
 12612     07B4  110B               	bcf	11,2	;volatile
 12613     07B5                     i1l4181:
 12614                           
 12615                           ;isr.c: 14:         TMR0 = TMR0 + 8;
 12616     07B5  1283               	bcf	3,5	;RP0=0, select bank0
 12617     07B6  1303               	bcf	3,6	;RP1=0, select bank0
 12618     07B7  0801               	movf	1,w	;volatile
 12619     07B8  3E08               	addlw	8
 12620     07B9  0081               	movwf	1	;volatile
 12621     07BA                     i1l4183:
 12622                           
 12623                           ;isr.c: 16:         count++;
 12624     07BA  3001               	movlw	1
 12625     07BB  1683               	bsf	3,5	;RP0=1, select bank1
 12626     07BC  1303               	bcf	3,6	;RP1=0, select bank1
 12627     07BD  07C6               	addwf	isr@count^(0+128),f
 12628     07BE  1803               	skipnc
 12629     07BF  0AC7               	incf	(isr@count+1)^(0+128),f
 12630     07C0  3000               	movlw	0
 12631     07C1  07C7               	addwf	(isr@count+1)^(0+128),f
 12632     07C2                     i1l4185:
 12633                           
 12634                           ;isr.c: 19:         if (count == 20000)
 12635     07C2  3020               	movlw	32
 12636     07C3  0646               	xorwf	isr@count^(0+128),w
 12637     07C4  304E               	movlw	78
 12638     07C5  1903               	skipnz
 12639     07C6  0647               	xorwf	(isr@count+1)^(0+128),w
 12640     07C7  1D03               	btfss	3,2
 12641     07C8  2FCA               	goto	u445_21
 12642     07C9  2FCB               	goto	u445_20
 12643     07CA                     u445_21:
 12644     07CA  2FF0               	goto	i1l274
 12645     07CB                     u445_20:
 12646     07CB                     i1l4187:
 12647                           
 12648                           ;isr.c: 20:         {;isr.c: 21:             sec++;
 12649     07CB  3001               	movlw	1
 12650     07CC  1283               	bcf	3,5	;RP0=0, select bank0
 12651     07CD  1303               	bcf	3,6	;RP1=0, select bank0
 12652     07CE  07E5               	addwf	_sec,f	;volatile
 12653     07CF  1803               	skipnc
 12654     07D0  0AE6               	incf	_sec+1,f	;volatile
 12655     07D1  3000               	movlw	0
 12656     07D2  07E6               	addwf	_sec+1,f	;volatile
 12657                           
 12658                           ;isr.c: 22:             new_sec--;
 12659     07D3  3001               	movlw	1
 12660     07D4  1683               	bsf	3,5	;RP0=1, select bank1
 12661     07D5  1303               	bcf	3,6	;RP1=0, select bank1
 12662     07D6  02E0               	subwf	_new_sec^(0+128),f	;volatile
 12663     07D7  3000               	movlw	0
 12664     07D8  1C03               	skipc
 12665     07D9  03E1               	decf	(_new_sec+1)^(0+128),f	;volatile
 12666     07DA  02E1               	subwf	(_new_sec+1)^(0+128),f	;volatile
 12667     07DB                     i1l4189:
 12668                           
 12669                           ;isr.c: 23:             count = 0;
 12670     07DB  01C6               	clrf	isr@count^(0+128)
 12671     07DC  01C7               	clrf	(isr@count+1)^(0+128)
 12672     07DD                     i1l4191:
 12673                           
 12674                           ;isr.c: 25:             if (sec > 59)
 12675     07DD  3000               	movlw	0
 12676     07DE  1283               	bcf	3,5	;RP0=0, select bank0
 12677     07DF  1303               	bcf	3,6	;RP1=0, select bank0
 12678     07E0  0266               	subwf	_sec+1,w	;volatile
 12679     07E1  303C               	movlw	60
 12680     07E2  1903               	skipnz
 12681     07E3  0265               	subwf	_sec,w	;volatile
 12682     07E4  1C03               	skipc
 12683     07E5  2FE7               	goto	u446_21
 12684     07E6  2FE8               	goto	u446_20
 12685     07E7                     u446_21:
 12686     07E7  2FF0               	goto	i1l274
 12687     07E8                     u446_20:
 12688     07E8                     i1l4193:
 12689                           
 12690                           ;isr.c: 26:             {;isr.c: 27:                 sec = 0;
 12691     07E8  01E5               	clrf	_sec	;volatile
 12692     07E9  01E6               	clrf	_sec+1	;volatile
 12693     07EA                     i1l4195:
 12694                           
 12695                           ;isr.c: 28:                 new_sec = 59;
 12696     07EA  303B               	movlw	59
 12697     07EB  1683               	bsf	3,5	;RP0=1, select bank1
 12698     07EC  1303               	bcf	3,6	;RP1=0, select bank1
 12699     07ED  00E0               	movwf	_new_sec^(0+128)	;volatile
 12700     07EE  3000               	movlw	0
 12701     07EF  00E1               	movwf	(_new_sec^(0+128)+1)	;volatile
 12702     07F0                     i1l274:
 12703     07F0  0871               	movf	??_isr+1,w
 12704     07F1  008A               	movwf	10
 12705     07F2  0E70               	swapf	??_isr,w
 12706     07F3  0083               	movwf	3
 12707     07F4  0EFE               	swapf	btemp,f
 12708     07F5  0E7E               	swapf	btemp,w
 12709     07F6  0009               	retfie
 12710     07F7                     __end_of_isr:
 12711     0002                     ___latbits      equ	2
 12712     007E                     btemp           set	126	;btemp
 12713     007E                     btemp0          set	126
 12714     007F                     btemp1          set	127
 12715     007E                     wtemp0          set	126
 12716     007F                     wtemp0a         set	127
 12717     007F                     ttemp0a         set	127
 12718     0080                     ltemp0a         set	128
 12719                           
 12720                           	psect	intentry
 12721     0004                     __pintentry:	
 12722                           ;incstack = 0
 12723                           ; Regs used in _isr: [wreg+status,2+status,0]
 12724                           
 12725     0004                     interrupt_function:
 12726     007E                     saved_w         set	btemp
 12727     0004  00FE               	movwf	btemp
 12728     0005  0E03               	swapf	3,w
 12729     0006  00F0               	movwf	??_isr
 12730     0007  080A               	movf	10,w
 12731     0008  00F1               	movwf	??_isr+1
 12732     0009  120A  118A  2FB0   	ljmp	_isr
 12733                           
 12734                           	psect	config
 12735                           
 12736                           ;Config register CONFIG @ 0x2007
 12737                           ;	Oscillator Selection bits
 12738                           ;	FOSC = 0x3, unprogrammed default
 12739                           ;	Watchdog Timer Enable bit
 12740                           ;	WDTE = OFF, WDT disabled
 12741                           ;	Power-up Timer Enable bit
 12742                           ;	PWRTE = 0x1, unprogrammed default
 12743                           ;	Brown-out Reset Enable bit
 12744                           ;	BOREN = 0x1, unprogrammed default
 12745                           ;	Low-Voltage (Single-Supply) In-Circuit Serial Programming Enable bit
 12746                           ;	LVP = 0x1, unprogrammed default
 12747                           ;	Data EEPROM Memory Code Protection bit
 12748                           ;	CPD = 0x1, unprogrammed default
 12749                           ;	Flash Program Memory Write Enable bits
 12750                           ;	WRT = 0x3, unprogrammed default
 12751                           ;	In-Circuit Debugger Mode bit
 12752                           ;	DEBUG = 0x1, unprogrammed default
 12753                           ;	Flash Program Memory Code Protection bit
 12754                           ;	CP = 0x1, unprogrammed default
 12755     2007                     	org	8199
 12756     2007  3FFB               	dw	16379

Data Sizes:
    Strings     413
    Constant    0
    Data        85
    BSS         138
    Persistent  0
    Stack       0

Auto Spaces:
    Space          Size  Autos    Used
    COMMON           14      8      12
    BANK0            80     59      79
    BANK1            80      0      76
    BANK3            96      0      89
    BANK2            96      0      34

Pointer List with Targets:

    clcd_print@str	PTR const unsigned char  size(2) Largest target is 18
		 -> change_pass@str(BANK2[17]), line1(BANK3[17]), line2(BANK3[17]), login_screen@str(BANK2[17]), 
		 -> STR_1(CODE[17]), STR_11(CODE[17]), STR_12(CODE[16]), STR_13(CODE[16]), 
		 -> STR_14(CODE[17]), STR_15(CODE[17]), STR_16(CODE[16]), STR_17(CODE[16]), 
		 -> STR_18(CODE[18]), STR_19(CODE[17]), STR_2(CODE[17]), STR_20(CODE[17]), 
		 -> STR_21(CODE[17]), STR_22(CODE[16]), STR_23(CODE[16]), STR_24(CODE[16]), 
		 -> STR_25(CODE[17]), STR_26(CODE[17]), STR_27(CODE[17]), STR_28(CODE[17]), 
		 -> STR_29(CODE[17]), STR_32(CODE[16]), STR_33(CODE[17]), STR_34(CODE[17]), 
		 -> STR_35(CODE[18]), STR_36(CODE[17]), STR_37(CODE[18]), STR_38(CODE[17]), 
		 -> time(BANK3[9]), view_log@line(BANK0[17]), 

    display_time@clock_reg	PTR unsigned char  size(1) Largest target is 3
		 -> clock_reg(BANK1[3]), 

    event	PTR unsigned char [8] size(2) Largest target is 3
		 -> STR_10(CODE[3]), STR_3(CODE[3]), STR_4(CODE[3]), STR_5(CODE[3]), 
		 -> STR_6(CODE[3]), STR_7(CODE[3]), STR_8(CODE[3]), STR_9(CODE[3]), 

    get_time@clock_reg	PTR unsigned char  size(1) Largest target is 3
		 -> clock_reg(BANK1[3]), set_time@time(BANK1[3]), 

    menu	PTR unsigned char [5] size(2) Largest target is 18
		 -> STR_18(CODE[18]), STR_19(CODE[17]), STR_20(CODE[17]), STR_21(CODE[17]), 
		 -> STR_22(CODE[16]), 

    my_strcmp@str1	PTR const unsigned char  size(1) Largest target is 5
		 -> change_pass@arr1(BANK3[5]), pass(BANK3[5]), 

    my_strcmp@str2	PTR const unsigned char  size(1) Largest target is 5
		 -> change_pass@arr2(BANK3[5]), user_pass(BANK3[5]), 

    my_strcpy@dst	PTR unsigned char  size(1) Largest target is 5
		 -> pass(BANK3[5]), 

    my_strcpy@src	PTR const unsigned char  size(1) Largest target is 5
		 -> change_pass@arr1(BANK3[5]), 

    puts@s	PTR const unsigned char  size(2) Largest target is 19
		 -> down_log@line(BANK0[17]), STR_30(CODE[19]), STR_31(CODE[3]), 

    store_event@event	PTR unsigned char  size(2) Largest target is 3
		 -> STR_10(CODE[3]), STR_3(CODE[3]), STR_4(CODE[3]), STR_5(CODE[3]), 
		 -> STR_6(CODE[3]), STR_7(CODE[3]), STR_8(CODE[3]), STR_9(CODE[3]), 

    store_event@speed	PTR unsigned char  size(1) Largest target is 3
		 -> speed(BANK1[3]), 

    store_event@time	PTR unsigned char  size(1) Largest target is 9
		 -> time(BANK3[9]), 

    store_time@clock_reg	PTR unsigned char  size(1) Largest target is 3
		 -> clock_reg(BANK1[3]), 

    store_time@time	PTR unsigned char  size(1) Largest target is 9
		 -> time(BANK3[9]), 


Critical Paths under _main in COMMON

    _main->_clear_log
    _view_log->___wmul
    _set_time->___wmul
    _set_time->_clcd_putch
    _set_time->_write_ds1307
    _main_menu->_clcd_putch
    _login_screen->_clcd_putch
    _init_uart->___lldiv
    _init_i2c->___lldiv
    _init_ds1307->_write_ds1307
    _write_ds1307->___lwmod
    _init_clcd->_init_display_controller
    _init_display_controller->_clcd_write
    _down_log->___wmul
    _read_external_eeprom->_i2c_read
    _puts->_putchar
    _dashboard->_display_time
    _dashboard->_read_adc
    _store_event->_write_external_eeprom
    _write_external_eeprom->_i2c_write
    _get_time->_read_ds1307
    _read_ds1307->_i2c_read
    ___xxtofl->_read_adc
    ___fltol->_read_adc
    ___fldiv->_read_adc
    _change_pass->_clcd_putch
    _clcd_putch->___lwmod
    _clcd_print->_clcd_write

Critical Paths under _isr in COMMON

    None.

Critical Paths under _main in BANK0

    _main->_dashboard
    _view_log->___lwdiv
    _view_log->_clcd_print
    _set_time->_clcd_putch
    _set_time->_write_ds1307
    _main_menu->___awdiv
    _main_menu->_clcd_putch
    _login_screen->_clcd_putch
    _init_config->_init_i2c
    _init_config->_init_uart
    _init_uart->___lldiv
    _init_i2c->___lldiv
    _init_ds1307->_write_ds1307
    _write_ds1307->___lwdiv
    _down_log->_clcd_print
    _dashboard->___fltol
    _display_time->_clcd_print
    _clcd_clear_screen->_clcd_print
    ___fltol->___fldiv
    ___fldiv->___xxtofl
    _clear_log->_clcd_print
    _change_pass->_clcd_putch
    _clcd_putch->___lwdiv

Critical Paths under _isr in BANK0

    None.

Critical Paths under _main in BANK1

    None.

Critical Paths under _isr in BANK1

    None.

Critical Paths under _main in BANK3

    None.

Critical Paths under _isr in BANK3

    None.

Critical Paths under _main in BANK2

    None.

Critical Paths under _isr in BANK2

    None.

Call Graph Tables:

 ---------------------------------------------------------------------------------
 (Depth) Function   	        Calls       Base Space   Used Autos Params    Refs
 ---------------------------------------------------------------------------------
 (0) _main                                                 1     1      0   12219
                                             58 BANK0      1     1      0
                        _change_pass
                          _clear_log
                          _dashboard
                           _down_log
                        _init_config
                       _login_screen
                          _main_menu
                _read_digital_keypad
                           _set_time
                           _view_log
 ---------------------------------------------------------------------------------
 (1) _view_log                                            20    20      0    1395
                                              3 BANK0     20    20      0
                            ___lwdiv
                             ___wmul
                         _clcd_print
               _read_external_eeprom
 ---------------------------------------------------------------------------------
 (1) _set_time                                            13    13      0    1517
                                              4 BANK0     13    13      0
                            ___lwdiv
                            ___lwmod
                             ___wmul
                         _clcd_print
                         _clcd_putch
                           _get_time
                       _write_ds1307
 ---------------------------------------------------------------------------------
 (1) _read_digital_keypad                                  2     2      0      29
                                              2 COMMON     2     2      0
 ---------------------------------------------------------------------------------
 (1) _main_menu                                            3     3      0     775
                                              4 BANK0      3     3      0
                            ___awdiv
                         _clcd_print
                         _clcd_putch
 ---------------------------------------------------------------------------------
 (2) ___awdiv                                              8     4      4     302
                                              2 COMMON     4     0      4
                                              0 BANK0      4     4      0
 ---------------------------------------------------------------------------------
 (1) _login_screen                                        12    12      0    1117
                                              4 BANK0     12    12      0
                            ___lwdiv
                            ___lwmod
                         _clcd_print
                         _clcd_putch
                          _my_strcmp
 ---------------------------------------------------------------------------------
 (1) _init_config                                          0     0      0     710
                           _init_adc
                          _init_clcd
                _init_digital_keypad
                        _init_ds1307
                           _init_i2c
                        _init_timer0
                          _init_uart
 ---------------------------------------------------------------------------------
 (2) _init_uart                                            8     4      4     189
                                              8 BANK0      8     4      4
                            ___lldiv
 ---------------------------------------------------------------------------------
 (2) _init_timer0                                          0     0      0       0
 ---------------------------------------------------------------------------------
 (2) _init_i2c                                             8     4      4     189
                                              8 BANK0      8     4      4
                            ___lldiv
 ---------------------------------------------------------------------------------
 (3) ___lldiv                                             14     6      8     166
                                              2 COMMON     6     6      0
                                              0 BANK0      8     0      8
 ---------------------------------------------------------------------------------
 (2) _init_ds1307                                          1     1      0     241
                                              4 BANK0      1     1      0
                        _read_ds1307
                       _write_ds1307
 ---------------------------------------------------------------------------------
 (3) _write_ds1307                                         2     1      1      84
                                              7 COMMON     1     0      1
                                              3 BANK0      1     1      0
                            ___lwdiv (ARG)
                            ___lwmod (ARG)
                          _i2c_start
                           _i2c_stop
                          _i2c_write
 ---------------------------------------------------------------------------------
 (2) _init_digital_keypad                                  0     0      0       0
 ---------------------------------------------------------------------------------
 (2) _init_clcd                                            0     0      0      91
            _init_display_controller
 ---------------------------------------------------------------------------------
 (3) _init_display_controller                              2     2      0      91
                                              6 COMMON     2     2      0
                         _clcd_write
 ---------------------------------------------------------------------------------
 (2) _init_adc                                             0     0      0       0
 ---------------------------------------------------------------------------------
 (1) _down_log                                            23    23      0    1245
                                              3 BANK0     23    23      0
                             ___wmul
                         _clcd_print
                               _puts
               _read_external_eeprom
 ---------------------------------------------------------------------------------
 (2) _read_external_eeprom                                 2     2      0     133
                                              4 COMMON     2     2      0
                           _i2c_read
                      _i2c_rep_start
                          _i2c_start
                           _i2c_stop
                          _i2c_write
 ---------------------------------------------------------------------------------
 (2) _puts                                                 2     0      2      77
                                              3 COMMON     2     0      2
                            _putchar
 ---------------------------------------------------------------------------------
 (3) _putchar                                              1     1      0      29
                                              2 COMMON     1     1      0
 ---------------------------------------------------------------------------------
 (2) ___wmul                                               6     2      4     104
                                              2 COMMON     6     2      4
 ---------------------------------------------------------------------------------
 (1) _dashboard                                            8     8      0    4091
                                             50 BANK0      8     8      0
                            ___fldiv
                            ___fltol
                            ___lwdiv
                            ___lwmod
                           ___xxtofl
                  _clcd_clear_screen
                         _clcd_print
                       _display_time
                           _get_time
                           _read_adc
                        _store_event
                         _store_time
 ---------------------------------------------------------------------------------
 (2) _store_time                                           4     2      2     332
                                              2 COMMON     4     2      2
 ---------------------------------------------------------------------------------
 (2) _store_event                                         10     6      4     567
                                              0 BANK0     10     6      4
              _write_external_eeprom
 ---------------------------------------------------------------------------------
 (3) _write_external_eeprom                                4     3      1     113
                                              3 COMMON     4     3      1
                          _i2c_start
                           _i2c_stop
                          _i2c_write
 ---------------------------------------------------------------------------------
 (2) _read_adc                                             6     4      2      52
                                              2 COMMON     6     4      2
 ---------------------------------------------------------------------------------
 (2) _get_time                                             1     0      1     202
                                              6 COMMON     1     0      1
                        _read_ds1307
 ---------------------------------------------------------------------------------
 (3) _read_ds1307                                          2     2      0     133
                                              4 COMMON     2     2      0
                           _i2c_read
                      _i2c_rep_start
                          _i2c_start
                           _i2c_stop
                          _i2c_write
 ---------------------------------------------------------------------------------
 (4) _i2c_write                                            1     1      0      29
                                              2 COMMON     1     1      0
                  _i2c_wait_for_idle
 ---------------------------------------------------------------------------------
 (4) _i2c_rep_start                                        0     0      0       0
                          _i2c_start
                           _i2c_stop
 ---------------------------------------------------------------------------------
 (5) _i2c_stop                                             0     0      0       0
                  _i2c_wait_for_idle
 ---------------------------------------------------------------------------------
 (5) _i2c_start                                            0     0      0       0
                  _i2c_wait_for_idle
 ---------------------------------------------------------------------------------
 (4) _i2c_read                                             2     2      0      52
                                              2 COMMON     2     2      0
                  _i2c_wait_for_idle
 ---------------------------------------------------------------------------------
 (6) _i2c_wait_for_idle                                    0     0      0       0
 ---------------------------------------------------------------------------------
 (2) _display_time                                         2     1      1     355
                                              6 COMMON     2     1      1
                         _clcd_print
 ---------------------------------------------------------------------------------
 (2) _clcd_clear_screen                                    0     0      0     222
                         _clcd_print
 ---------------------------------------------------------------------------------
 (2) ___xxtofl                                            14    10      4     337
                                              0 BANK0     14    10      4
                           _read_adc (ARG)
 ---------------------------------------------------------------------------------
 (2) ___lwmod                                              5     1      4     181
                                              2 COMMON     5     1      4
 ---------------------------------------------------------------------------------
 (2) ___lwdiv                                              7     3      4     180
                                              2 COMMON     4     0      4
                                              0 BANK0      3     3      0
 ---------------------------------------------------------------------------------
 (2) ___fltol                                             10     6      4     230
                                             40 BANK0     10     6      4
                            ___fldiv (ARG)
                           ___xxtofl (ARG)
                           _read_adc (ARG)
 ---------------------------------------------------------------------------------
 (2) ___fldiv                                             26    18      8    1124
                                             14 BANK0     26    18      8
                           ___xxtofl (ARG)
                           _read_adc (ARG)
 ---------------------------------------------------------------------------------
 (1) _clear_log                                            2     2      0     222
                                              6 COMMON     2     2      0
                         _clcd_print
 ---------------------------------------------------------------------------------
 (1) _change_pass                                         11    11      0     963
                                              4 BANK0     11    11      0
                         _clcd_print
                         _clcd_putch
                          _my_strcmp
                          _my_strcpy
 ---------------------------------------------------------------------------------
 (2) _my_strcpy                                            3     1      2      46
                                              2 COMMON     3     1      2
 ---------------------------------------------------------------------------------
 (2) _my_strcmp                                            4     2      2     116
                                              2 COMMON     4     2      2
 ---------------------------------------------------------------------------------
 (2) _clcd_putch                                           2     1      1     164
                                              7 COMMON     1     0      1
                                              3 BANK0      1     1      0
                            ___lwdiv (ARG)
                            ___lwmod (ARG)
                         _clcd_write
 ---------------------------------------------------------------------------------
 (3) _clcd_print                                           3     0      3     222
                                              0 BANK0      3     0      3
                         _clcd_write
 ---------------------------------------------------------------------------------
 (4) _clcd_write                                           4     3      1      91
                                              2 COMMON     4     3      1
 ---------------------------------------------------------------------------------
 Estimated maximum stack depth 6
 ---------------------------------------------------------------------------------
 (Depth) Function   	        Calls       Base Space   Used Autos Params    Refs
 ---------------------------------------------------------------------------------
 (7) _isr                                                  2     2      0       0
                                              0 COMMON     2     2      0
 ---------------------------------------------------------------------------------
 Estimated maximum stack depth 7
 ---------------------------------------------------------------------------------

 Call Graph Graphs:

 _main (ROOT)
   _change_pass
     _clcd_print
       _clcd_write
     _clcd_putch
       ___lwdiv (ARG)
       ___lwmod (ARG)
       _clcd_write (ARG)
     _my_strcmp
     _my_strcpy
   _clear_log
     _clcd_print
   _dashboard
     ___fldiv
       ___xxtofl (ARG)
         _read_adc (ARG)
       _read_adc (ARG)
     ___fltol
       ___fldiv (ARG)
       ___xxtofl (ARG)
       _read_adc (ARG)
     ___lwdiv
     ___lwmod
     ___xxtofl
     _clcd_clear_screen
       _clcd_print
     _clcd_print
     _display_time
       _clcd_print
     _get_time
       _read_ds1307
         _i2c_read
           _i2c_wait_for_idle
         _i2c_rep_start
           _i2c_start
             _i2c_wait_for_idle
           _i2c_stop
             _i2c_wait_for_idle
         _i2c_start
         _i2c_stop
         _i2c_write
           _i2c_wait_for_idle
     _read_adc
     _store_event
       _write_external_eeprom
         _i2c_start
         _i2c_stop
         _i2c_write
     _store_time
   _down_log
     ___wmul
     _clcd_print
     _puts
       _putchar
     _read_external_eeprom
       _i2c_read
       _i2c_rep_start
       _i2c_start
       _i2c_stop
       _i2c_write
   _init_config
     _init_adc
     _init_clcd
       _init_display_controller
         _clcd_write
     _init_digital_keypad
     _init_ds1307
       _read_ds1307
       _write_ds1307
         ___lwdiv (ARG)
         ___lwmod (ARG)
         _i2c_start (ARG)
         _i2c_stop (ARG)
         _i2c_write (ARG)
     _init_i2c
       ___lldiv
     _init_timer0
     _init_uart
       ___lldiv
   _login_screen
     ___lwdiv
     ___lwmod
     _clcd_print
     _clcd_putch
     _my_strcmp
   _main_menu
     ___awdiv
     _clcd_print
     _clcd_putch
   _read_digital_keypad
   _set_time
     ___lwdiv
     ___lwmod
     ___wmul
     _clcd_print
     _clcd_putch
     _get_time
     _write_ds1307
   _view_log
     ___lwdiv
     ___wmul
     _clcd_print
     _read_external_eeprom

 _isr (ROOT)

Address spaces:
Name               Size   Autos  Total    Usage
BANK3               96      0      89     92.7%
BITBANK3            96      0       0      0.0%
BANK2               96      0      34     35.4%
BITBANK2            96      0       0      0.0%
BANK1               80      0      76     95.0%
BITBANK1            80      0       0      0.0%
BANK0               80     59      79     98.8%
BITBANK0            80      0       0      0.0%
COMMON              14      8      12     85.7%
BITCOMMON           14      0       0      0.0%
DATA                 0      0     293      0.0%
STACK                0      0       0      0.0%


Microchip Technology PIC Macro Assembler V3.10 build 20250813170317 
Symbol Table                                                                                   Fri Feb 13 13:46:41 2026

                   ___fldiv@aexp 0047                     ___fldiv@bexp 0046                                pc 0002  
                   ___fldiv@sign 003F            _write_external_eeprom 1F6A                     my_strcpy@dst 0072  
                 clcd_print@addr 0022                     my_strcpy@src 0073              view_log@no_log_once 00E9  
                  my_strcmp@str1 0072                    my_strcmp@str2 0073                               l20 1DBF  
                             l23 1DCD                               l40 1220                               l17 1D0F  
                             l43 13CE                               l46 1D4C                               l55 1FCC  
                             l71 081B                               l49 11B6                               l65 1EE4  
                             l68 150E                               l77 1D75                               _GO 00FA  
                   ___awdiv@sign 0021                               fsr 0004              ___wmul@multiplicand 0074  
                            l201 1F99                              l130 1D08                              l115 0DE0  
                            l204 1F3A                              l136 1F69                              l161 1DAE  
                            l233 11EA                              l242 1D20                              l170 1E0C  
                            l322 0424                              l251 1E28                              l236 1D58  
                            l252 1E2B                              l164 1F0F                              l173 136B  
                            l253 1E2D                              l245 1D2B                              l333 05E5  
                            l239 1D64                              l167 1E4F                              l248 07FF  
                            l256 1D36                              l440 1291                              l185 17FF  
                            l514 0C2C                              l604 0FB0                              l540 095F  
                            l372 0AB3                              l701 1D3C                              l445 158A  
                            l702 1D40                              l518 0B60                              l607 0FFF  
                            l703 1D41                              l528 12D3                              l632 0171  
                            l652 02A1                              l636 016C                              l709 1EBC  
                            l831 1499                              l672 1D57                              l648 02AA  
                            l691 1FFF                              l659 0391                              l795 1E7E  
                            l948 1433                              l797 1E96                              _GIE 005F  
                            l996 156F                              l989 1584                              l999 1584  
                            _RE1 0049                              _RE2 004A                              _PEN 048A  
                            _SEN 0488                              _PSA 040B                    ?_display_time 0076  
                            _sec 0065                              _isr 07B0                   clcd_putch@addr 0077  
                            _pos 0067                              fsr0 0004                   clcd_putch@data 0023  
                            indf 0000                     ___fltol@exp1 0051                             l1152 063B  
                           l3001 1EA6                             l1154 07AF                             l1250 16C5  
                           l1242 169D                             l1075 1317                             l3011 1E85  
                           l3003 1EAC                             l1236 165E                             l3101 12D8  
                           l1085 1258                             l1237 166F                             l3013 1E8C  
                           l3005 1E72                             l3021 13D2                             l1174 079B  
                           l1238 16EF                             l3111 12EE                             l3103 12DE  
                           l3015 1E92                             l3007 1E74                             l3031 13E6  
                           l3023 13D6                             l1176 07A7                             l1168 0729  
                           l3113 12FF                             l3105 12E1                             l3121 1313  
                           l1249 16B9                             l3009 1E78                             l3041 13FA  
                           l3033 13E8                             l3025 13DB                             l4001 0298  
          ??_read_digital_keypad 0072                             l3211 0692                             l3203 0668  
                           l3115 1305                             l3107 12E8                             l3131 1231  
                           l3051 1418                             l3043 13FC                             l3035 13EA  
                           l3027 13DD                             l3019 13CF                             l4011 02B9  
                           l4003 029D                             l4101 0EC2                             l3221 06B0  
                           l3213 0694                             l3205 067A                             l3117 1306  
                           l3109 12EA                             l3141 124E                             l3133 1233  
                           l3125 1221                             l3053 141F                             l3045 1400  
                           l3037 13F0                             l3029 13E1                             l4021 036F  
                           l4013 02BF                             l4005 02A6                             l4111 0EEA  
                           l4103 0ECB                             l3215 0699                             l3223 06B9  
                           l3231 06DC                             l3207 0682                             l3151 05EC  
                           l3071 1536                             l3063 150F                             l3119 130D  
                           l3135 1237                             l3127 1227                             l3143 1254  
                           l3311 1694                             l3303 1672                             l3047 1411  
                           l3039 13F3                             l3055 1425                             l4031 0384  
                           l4023 0375                             l4007 02AC                             l4015 02C8  
                           l4121 0F1C                             l4113 0EF5                             l4105 0ED2  
                           l4041 0DEA                             l3241 06F9                             l3233 06E2  
                           l3225 06CB                             l3217 06AB                             l3209 068A  
                           l3161 05FF                             l3153 05F0                             l3073 1537  
                           l3065 151A                             l3137 1241                             l3129 122A  
                           l3321 16C7                             l3313 16A4                             l3305 167D  
                           l3401 0D5B                             l3057 142A                             l3049 1417  
                           l4033 038A                             l4025 0378                             l4017 02D0  
                           l4009 02B2                             l4201 159A                             l4131 0F3D  
                           l4123 0F20                             l4115 0F07                             l4107 0EDF  
                           l4051 0E09                             l4043 0DEC                             l3251 070E  
                           l3243 06FA                             l3235 06EA                             l3227 06CC  
                           l3219 06AF                             l3171 0615                             l3163 0607  
                           l3155 05F4                             l3147 05E6                             l3075 153F  
                           l3139 1247                             l3323 16DD                             l3315 16AF  
                           l3307 1684                             l3411 0D64                             l3403 0D5D  
                           l3059 142F                             l4035 038D                             l4019 036C  
                           l4027 037C                             l4211 15AD                             l4203 159E  
                           l4141 0F59                             l4133 0F3F                             l4117 0F11  
                           l4125 0F29                             l4109 0EE2                             l4061 0E43  
                           l4053 0E11                             l4045 0DF4                             l3261 0733  
                           l3253 0712                             l3245 0703                             l3237 06EC  
                           l3229 06DA                             l3181 0628                             l3173 0619  
                           l3165 0608                             l3157 05F5                             l3149 05EA  
                           l3093 1564                             l3085 154D                             l3077 1541  
                           l3069 1523                             l3325 16E2                             l3317 16B3  
                           l3309 1686                             l3421 0D6E                             l3413 0D66  
                           l3405 0D5F                             l3341 0C41                             l3333 0C30  
                           l3501 0414                             l4029 0383                             l4221 15C4  
                           l4213 15B2                             l4205 15A1                             l4143 0F5F  
                           l4135 0F48                             l4127 0F31                             l4119 0F17  
                           l4071 0E63                             l4063 0E49                             l4055 0E1C  
                           l4047 0DF9                             l4151 0F75                             l4039 0DE4  
                           l3271 0771                             l3263 0741                             l3255 0726  
                           l3239 06F5                             l3247 0709                             l3191 064F  
                           l3183 0630                             l3175 061D                             l3159 05FA  
                           l3167 060A                             l3095 1574                             l3079 1545  
                           l3087 155D                             l3327 16E6                             l3319 16BD  
                           l3431 0D8F                             l3423 0D70                             l3415 0D68  
                           l3407 0D61                             l3351 0C65                             l3343 0C48  
                           l3335 0C35                             l3511 0443                             l3503 042F  
                           l4231 15DF                             l4223 15CC                             l4215 15B6  
                           l4207 15A6                             l4161 0FBD                             l4153 0F7D  
                           l4137 0F50                             l4129 0F37                             l4145 0F65  
                           l4081 0E82                             l4073 0E69                             l4065 0E4E  
                           l4057 0E27                             l4049 0E06                             l3281 079F  
                           l3273 077F                             l3265 0745                             l3249 070D  
                           l3193 0651                             l3185 0631                             l3177 061E  
                           l3169 0612                             l3097 1579                             l3329 16E7  
                           l3441 0DC5                             l3433 0DB5                             l3425 0D72  
                           l3417 0D6A                             l3409 0D62                             l3361 0C94  
                           l3353 0C6B                             l3345 0C4F                             l3337 0C3B  
                           l2801 1374                             l3601 05D7                             l3521 0463  
                           l3513 0449                             l3505 0433                             l4241 15FE  
                           l4233 15E4                             l4225 15D1                             l4217 15B9  
                           l4209 15AA                             l4171 0FF4                             l4163 0FC5  
                           l4155 0F8C                             l4147 0F6C                             l4139 0F55  
                           l4091 0E9E                             l4083 0E87                             l4075 0E6F  
                           l4067 0E52                             l4059 0E39                             l3283 07A3  
                           l3275 078E                             l3267 075E                             l3259 072E  
                           l3179 0623                             l3187 0633                             l3099 12D4  
                           l3291 163D                             l3443 0DC6                             l3435 0DB7  
                           l3427 0D74                             l3419 0D6C                             l3371 0D1E  
                           l3355 0C78                             l3363 0C9C                             l3347 0C58  
                           l2811 139A                             l2803 137B                             l3531 0488  
                           l3523 0467                             l3515 044B                             l3507 0435  
                           l3611 0975                             l4251 161D                             l4243 1605  
                           l4235 15EB                             l4227 15D3                             l4219 15BE  
                           l4173 0FF9                             l4165 0FD1                             l4157 0F95  
                           l4149 0F6F                             l4093 0EA1                             l4085 0E8B  
                           l4077 0E71                             l4069 0E5B                             l3285 07A5  
                           l3277 0792                             l3269 0764                             l3189 0643  
                           l3197 065A                             l3293 1642                             l3445 0DD3  
                           l3437 0DB9                             l3429 0D76                             l3381 0D47  
                           l3373 0D33                             l3365 0CEA                             l3357 0C81  
                           l3349 0C60                             l2821 13C9                             l2813 13A1  
                           l2805 138B                             l3541 04BD                             l3533 04A2  
                           l3525 046D                             l3517 0456                             l3509 043D  
                           l3701 0AA6                             l3621 098C                             l3613 097B  
                           l3605 0963                             l4253 1623                             l4245 160B  
                           l4237 15F1                             l4229 15D8                             l2823 1F9A  
                           l4175 0FFB                             l4167 0FE8                             l4159 0FA3  
                           l4095 0EAA                             l4087 0E91                             l4079 0E7A  
                           l3279 079A                             l3199 065F                             l3295 1646  
                           l2743 1D58                             l2751 07F7                             l2831 1EE6  
                           l2911 1DED                             l2903 149A                             l3439 0DBF  
                           l3391 0D51                             l3383 0D49                             l3375 0D3F  
                           l3367 0CFC                             l3359 0C87                             l2815 13AD  
                           l2807 1390                             l3543 04C1                             l3535 04B1  
                           l3551 04D0                             l3519 045E                             l3527 0474  
                           l3711 0AB0                             l3631 09B3                             l3623 0992  
                           l3615 097D                             l3607 0969                             l3471 1F68  
                           l3455 1F46                             l3447 1F3C                             l4255 162A  
                           l4247 1611                             l4239 15F8                             l2761 11FA  
                           l2825 1FA4                             l4169 0FEC                             l4097 0EB0  
                           l4089 0E97                             l3297 1656                             l2905 0801  
                           l2921 135E                             l2913 1318                             l2745 1D5E  
                           l2753 07FC                             l2833 1F0E                             l2841 1F87  
                           l3393 0D53                             l3385 0D4B                             l3377 0D43  
                           l3369 0D0E                             l2817 13B2                             l2809 1397  
                           l3721 1263                             l3561 0514                             l3553 04D8  
                           l3545 04C3                             l3537 04B5                             l3529 0479  
                           l3481 03B2                             l3641 09EA                             l3633 09C0  
                           l3625 099F                             l3617 0981                             l3609 096E  
                           l3457 1F51                             l3449 1F41                             l3801 0BC2  
                           l4257 1630                             l4249 1617                             l2771 1214  
                           l2763 11FF                             l2755 11EC                             l2827 1FB4  
                           l2907 1D65                             l4099 0EBA                             l3299 1666  
                           l2915 132F                             l2747 1D18                             l2843 1F8B  
                           l2931 1722                             l2923 16F0                             l3395 0D55  
                           l3387 0D4D                             l3379 0D45                             l2819 13C2  
                           l2851 1449                             l3731 1290                             l3723 1268  
                           l3555 04DE                             l3539 04B9                             l3491 03EA  
                           l3483 03BD                             l3571 0523                             l3475 0395  
                           l3651 0A33                             l3643 09F7                             l3635 09C4  
                           l3627 09A3                             l3619 0982                             l3459 1F58  
                           l3467 1F5A                             l3811 0BF1                             l3803 0BCB  
                           l2773 1217                             l2765 1202                             l2757 11F6  
                           l2829 1FBC                             l2909 1D65                             l2917 1345  
                           l2749 1D1D                             l2941 1772                             l2933 1736  
                           l2925 16FC                             l3397 0D57                             l3389 0D4F  
                           l2845 1D38                             l3901 08FD                             l2837 1E31  
                           l2861 1481                             l2853 1454                             l3725 1277  
                           l3717 1259                             l3581 055B                             l3573 052A  
                           l3557 04EF                             l3493 03EF                             l3485 03C8  
                           l3477 039D                             l3709 0AA9                             l3661 0A6C  
                           l3653 0A4D                             l3645 09FD                             l3637 09CC  
                           l3629 09AB                             l3469 1F64                             l3821 0C20  
                           l3813 0BFA                             l3805 0BDA                             l3741 0AE0  
                           l3733 0AB7                             l4197 1585                             l2767 120E  
                           l2759 11F9                             l3831 12AD                             l2919 135D  
                           l2791 1E1F                             l2783 1D21                             l2775 1D2D  
                           l2839 1F6B                             l2951 17C2                             l2943 1782  
                           l2935 1742                             l2927 1707                             l3399 0D59  
                           l3903 0903                             l3911 091E                             l2871 1D09  
                           l2863 1482                             l2855 1458                             l2847 1434  
                           l3727 1286                             l3719 125E                             l3583 0564  
                           l3591 05AD                             l3575 053A                             l3559 0509  
                           l3495 03F3                             l3487 03DA                             l3479 03AA  
                           l3671 0A85                             l3663 0A70                             l3655 0A56  
                           l3647 0A14                             l3639 09D4                             l3823 0C21  
                           l3815 0C00                             l3807 0BE0                             l3743 0AE8  
                           l3735 0ABC                             l3751 0AF5                             l4199 1593  
                           l2769 120F                             l3833 12BD                             l3825 1292  
                           l2793 1E24                             l2785 1E0E                             l2777 1D32  
                           l2873 1DB0                             l2961 17EA                             l2953 17CD  
                           l2945 17A7                             l2937 1756                             l2929 171A  
                           l3921 0957                             l3913 092B                             l3905 0904  
                           l3841 081C                             l2881 1D42                             l2865 148B  
                           l2857 1461                             l2849 1446                             l3729 128B  
                           l3593 05B3                             l3585 056F                             l3577 0544  
                           l3489 03E4                             l3497 03FC                             l3681 0A92  
                           l3673 0A87                             l3665 0A74                             l3657 0A5E  
                           l3649 0A2B                             l3817 0C0B                             l3809 0BE2  
                           l3753 0AFD                             l3761 0B12                             l3745 0AEE  
                           l3737 0AC3                             l2891 1EBD                             l3835 12CD  
                           l3827 1299                             l2795 1E2C                             l2787 1E13  
                           l2779 1D36                             l2875 1DBE                             l2963 17EC  
                           l2955 17D5                             l2947 17AF                             l2939 175E  
                           l3923 095D                             l3915 0938                             l3907 090D  
                           l3851 0860                             l3843 081C                             l2883 1D45  
                           l2971 1D9B                             l2859 1473                             l2867 1491  
                           l3595 05B7                             l3587 057C                             l3579 0552  
                           l3499 0404                             l3691 0A9C                             l3659 0A64  
                           l3667 0A76                             l3931 00A6                             l3819 0C11  
                           l3763 0B1A                             l3771 0B1F                             l3755 0B0A  
                           l3747 0AF0                             l3739 0ADD                             l2893 1EBE  
                           l3837 12CF                             l3829 12A0                             l2789 1E1B  
                           l2877 1DC3                             l2965 17F4                             l2957 17E0  
                           l2949 17BA                             l3917 093B                             l3909 0916  
                           l3861 087D                             l3853 0863                             l3845 0823  
                           l2885 1D46                             l2973 1DA4                             l3589 0594  
                           l3597 05C8                             l3669 0A7F                             l3941 013D  
                           l3933 00D4                             l3925 0069                             l3781 0B5A  
                           l3773 0B25                             l3757 0B0E                             l2895 1EC2  
                           l3839 12D1                             l2967 17FD                             l2959 17E2  
                           l3871 089D                             l3863 0883                             l3855 0865  
                           l3847 0846                             l3919 093D                             l2799 136C  
                           l2887 1D47                             l2975 1DA6                             l2983 11B7  
                           l2991 1FD1                             l3599 05CF                             l3679 0A8C  
                           l3951 015E                             l3943 0145                             l3935 0102  
                           l3927 0071                             l3791 0B9A                             l3783 0B6C  
                           l3775 0B30                             l3759 0B10                             l2889 11A5  
                           l2897 1ECA                             l2977 1F11                             l3881 08BD  
                           l3873 08A3                             l3865 0885                             l3857 086E  
                           l3849 084B                             l2969 1D03                             l2985 11BA  
                           l2993 1FFE                             l3689 0A95                             l3961 017A  
                           l3953 0165                             l3945 0149                             l3929 0078  
                           l3937 0106                             l3793 0BA0                             l3785 0B80  
                           l3777 0B37                             l2899 1ED6                             l2979 1F39  
                           l3891 08DD                             l3883 08C3                             l3875 08A5  
                           l3867 088E                             l3859 0874                             l2987 11E7  
                           l2995 1D4D                             l3699 0A9F                             l3971 01AC  
                           l3963 0182                             l3955 016A                             l3947 0150  
                           l3939 010D                             l3795 0BAB                             l3787 0B82  
                           l3779 0B3E                             l2997 1E97                             l3893 08E3  
                           l3885 08C5                             l3877 08AE                             l3869 0894  
                           l2989 1FCD                             l3981 0214                             l3973 01C2  
                           l3965 0188                             l3957 016E                             l3949 0158  
                           l3797 0BB1                             l3789 0B91                             l2999 1E98  
                           l3895 08E5                             l3887 08CE                             l3879 08B4  
                           l3991 0266                             l3983 021C                             l3967 018F  
                           l3975 01D7                             l3959 0173                             l3799 0BC0  
                           l3897 08EE                             l3889 08D4                             l3993 027C  
                           l3985 0232                             l3977 01E4                             l3969 01A7  
                           _ADFM 04FF                             l3899 08F4                             l3995 0288  
                           l3987 0248                             l3979 01FC                             ?_isr 0070  
                           l3997 028C                             l3989 0250                             l3999 0293  
                           _ADON 00F8                             STR_1 1014                             STR_2 1014  
                           STR_3 1197                             STR_4 1194                             STR_5 1188  
                           STR_6 118B                             STR_7 118E                             STR_8 1191  
                           STR_9 119A                             _CREN 00C4                             _T0CS 040D  
                           u3000 06AF                             u2200 1D64                             u3001 06AE  
                           u2201 1D63                             u2210 11F3                             u2211 11EF  
                           u3100 0726                             u3020 06CB                             u2300 1458  
                           u3101 0725                             u3021 06CA                             u2301 1457  
                           u3110 072D                             u3030 06E2                             u3111 072C  
                           u3031 06E1                             u3015 06B2                             u2224 11F6  
                           u3120 0733                             u3040 06EA                             u3200 1666  
                           u2240 1E24                             u2320 1473                             u4000 0165  
                           u3121 0732                             u3041 06E9                             u3025 06C7  
                           u3201 1665                             u2241 1E23                             u2321 1472  
                           u4001 0164                             u2250 1FCC                             u3130 0745  
                           u4010 016A                             u2235 1206                             u2251 1FCB  
                           u3131 0744                             u2315 145A                             u4011 0169  
                           u2420 1D75                             u3140 0754                             u3060 06F9  
                           u3300 16E2                             u3220 1683                             u2260 1F99  
                           u2340 1491                             u2500 1FDF                             u4100 02D0  
                           u4020 017A                             u2421 1D74                             u3061 06F8  
                           u3301 16E1                             u3221 1682                             u2261 1F98  
                           u2405 14C5                             u2341 1490                             u2325 146F  
                           u4101 02CF                             u4021 0179                             u3150 0771  
                           u3310 16E6                             u2190 1D5E                             u2270 1D40  
                           u2510 1EBC                             u4030 0182                             u3151 0770  
                           u3055 06EE                             u3311 16E5                             u3215 1675  
                           u2191 1D5D                             u2415 14ED                             u2271 1D3F  
                           u2511 1EBB                             u2335 1483                             u4031 0181  
                           u4200 0E39                             u3160 078E                             u3080 070D  
                           u3240 16A3                             u2360 1DC3                             u3320 0C35  
                           u2520 1E78                             u2280 1446                             u2600 1400  
                           u3400 1F51                             u4040 018F                             u4201 0E38  
                           u3161 078D                             u3145 074F                             u3081 070C  
                           u3241 16A2                             u2361 1DC2                             u3321 0C34  
                           u2521 1E77                             u2281 1445                             u2505 1FDA  
                           u2601 13FF                             u3401 1F50                             u4041 018E  
                           u2370 1ECA                             u4210 0E49                             u3170 07A3  
                           u3090 0712                             u3330 0C60                             u3410 1F58  
                           u4050 01AC                             u2371 1EC9                             u4211 0E48  
                           u3171 07A2                             u3155 076D                             u3091 0711  
                           u3075 06FC                             u3235 1695                             u2435 131E  
                           u2355 1DB3                             u3331 0C5F                             u3411 1F57  
                           u4115 02F5                             u4051 01AB                             u2380 1ED6  
                           u4300 0ECB                             u4220 0E63                             u3260 16B3  
                           u3180 1642                             u2460 17E0                             u3340 0C6B  
                           u3500 042F                             u2620 1411                             u3420 1F64  
                           u4140 0383                             u4060 0288                             u2381 1ED5  
                           u4301 0ECA                             u4221 0E62                             u4205 0E35  
                           u3165 078A                             u3261 16B2                             u3181 1641  
                           u2445 1336                             u2461 17DF                             u3341 0C6A  
                           u3501 042E                             u2621 1410                             u3421 1F63  
                           u4141 0382                             u4125 0329                             u4061 0287  
                           u4310 0ED2                             u4230 0E69                             u4150 0DEA  
                           u2710 155C                             u3270 16B9                             u3190 1646  
                           u2470 17EA                             u3350 0C78                             u2550 1E92  
                           u3510 043D                             u3430 039D                             u4070 0293  
                           u4311 0ED1                             u4231 0E68                             u4151 0DE9  
                           u2711 155B                             u3271 16B8                             u3255 16A8  
                           u3191 1645                             u2455 134D                             u2471 17E9  
                           u3351 0C77                             u2551 1E91                             u2535 1E7F  
                           u2295 144B                             u3511 043C                             u3431 039C  
                           u2615 1401                             u4135 035D                             u4071 0292  
                           u4400 0F7D                             u4320 0EEA                             u4240 0E6F  
                           u4160 0DF4                             u2720 1563                             u2800 12FF  
                           u3280 16BD                             u2480 17FD                             u3360 0C87  
                           u3600 05D7                             u3520 0443                             u3440 03B2  
                           u2640 1425                             u2560 13D6                             u4080 0298  
                           u4401 0F7C                             u4321 0EE9                             u4241 0E6E  
                           u4161 0DF3                             u2721 1562                             u2705 154E  
                           u2801 12FE                             u3281 16BC                             u2481 17FC  
                           u3361 0C86                             u2545 1E86                             u3601 05D6  
                           u3521 0442                             u3441 03B1                             u2641 1424  
                           u2625 140D                             u2561 13D5                             u4081 0297  
                           u4065 0284                             u4410 0F8C                             u4330 0F07  
                           u4250 0E82                             u4170 0DF9                             u3290 16D2  
                           u3370 0C94                             u2490 11C8                             u3530 045E  
                           u3450 03C8                             u2650 142A                             u2570 13E1  
                           u3610 0969                             u4090 02B2            ?_read_external_eeprom 0070  
                           u4411 0F8B                             u4331 0F06                             u4251 0E81  
                           u4171 0DF8                             u2395 14A0                             u3371 0C93  
                           u3355 0C74                             u3531 045D                             u3451 03C7  
                           u2651 1429                             u2635 1419                             u2571 13E0  
                           u3611 0968                             u4091 02B1                             u4420 0FC5  
                           u4340 0F17                             u4260 0E9E                             u4180 0E11  
                           u2900 05FA                             u2740 1574                             u2660 151A  
                           u2820 1313                             u3380 0D1E                             u3540 0488  
                           u3460 03DA                             u2580 13F0                             u3700 0A4D  
                           u3620 0975                             u4500 15BE                             u4421 0FC4  
                           u4341 0F16                             u4261 0E9D                             u4181 0E10  
                           u2901 05F9                             u2741 1573                             u2661 1519  
                           u2821 1312                             u2805 12FB                             u3381 0D1D  
                           u3541 0487                             u3461 03D9                             u2581 13EF  
                           u3701 0A4C                             u3621 0974                             u4501 15BD  
                           u4430 0FE8                             u4350 0F31                             u4270 0EAA  
                           u4190 0E27                             u2910 05FF                             u2750 1579  
                           u2670 1531                             u2830 1227                             u3550 04DE  
                           u3470 03EA                             u3710 0A6C                             u3630 098C  
                           u3390 1F41                             u4510 15CC                             u4431 0FE7  
                           u4351 0F30                             u4335 0F03                             u4271 0EA9  
                           u4191 0E26                             u2911 05FE                             u2751 1578  
                           u2735 1566                             u2815 1307                             u2831 1226  
                           u3295 16CD                             u3375 0C90                             u2495 11C3  
                           u3551 04DD                             u3471 03E9                             u3711 0A6B  
                           u3631 098B                             u3391 1F40                             u4511 15CB  
                           u4360 0F37                             u4280 0EB0                             u2920 061D  
                           u2680 1545                             u2760 12DE                             u3560 052A  
                           u3480 0404                             u3720 0A7F                             u3640 0992  
                           u3800 0AE8                             u4600 1630                             u4520 15D1  
                           u4361 0F36                             u4281 0EAF                             u2921 061C  
                           u2681 1544                             u2761 12DD                             u3385 0D1A  
                           u3561 0529                             u3481 0403                             u3465 03D6  
                           u3721 0A7E                             u3705 0A49                             u3641 0991  
                           u3801 0AE7                             u4601 162F                             u4521 15D0  
                           u4370 0F3D                             u4290 0EC2                             u2930 0623  
                           u2690 154C                             u2850 1237                             u3570 053A  
                           u3490 0414                             u3730 0A85                             u3650 099F  
                           u3810 0AFD                             u4530 15D8                             u4371 0F3C  
                           u4291 0EC1                             u2931 0622                             u2691 154B  
                           u2675 152C                             u2851 1236                             u3571 0539  
                           u3491 0413                             u2595 13F4                             u3731 0A84  
                           u3651 099E                             u3811 0AFC                             u4531 15D7  
                           u4380 0F50                             u2940 0628                             u2780 12EE  
                           u2860 1241                             u3900 092B                             u3580 055B  
                           u3740 0A92                             u3660 09B3                             u3820 0B1A  
                           u4540 15E4                             u4381 0F4F                             u2941 0627  
                           u2781 12ED                             u2861 1240                             u2845 122B  
                           u3901 092A                             u3581 055A                             u3741 0A91  
                           u3661 09B2                             u3821 0B19                             u4541 15E3  
                           u4390 0F6C                             u2950 0643                             u3910 0957  
                           u3590 05CF                             u3750 0A9C                             u3670 09C0  
                           u3830 0B25                             u4550 15F1                             u4470 159A  
                           u4391 0F6B                             u2951 0642                             u2775 12E2  
                           u3911 0956                             u3591 05CE                             u3575 0536  
                           u3495 0410                             u3751 0A9B                             u3671 09BF  
                           u3655 099B                             u3831 0B24                             u4551 15F0  
                           u4471 1599                             u2960 065F                             u2880 1254  
                           u3760 0AA6                             u3680 09D4                             u3920 0071  
                           u3840 0B30                             u4560 15FE                             u4480 15A6  
                           u2961 065E                             u2881 1253                             u2865 123D  
                           u3905 0927                             u4617 04AA                             u3761 0AA5  
                           u3681 09D3                             u3921 0070                             u3841 0B2F  
                           u4561 15FD                             u4481 15A5                             u2970 0699  
                           u2890 05F4                             u3770 0AB0                             u3690 09F7  
                           u3850 0B3E                             u4570 160B                             u4490 15B2  
                           u4707 11FC                             u2971 0698                             u2891 05F3  
                           u2795 12EF                             u2875 1248                             u4627 051C  
                           u3771 0AAF                             u3691 09F6                             u3675 09BC  
                           u3851 0B3D                             u4571 160A                             u4491 15B1  
                           _RCIE 0465                             u3860 0B5A                             u3780 0ABC  
                           u4580 1617                             _RCEN 048B                             _RCIF 0065  
                           u4717 1211                             u4637 1370                             u3861 0B59  
                           u3781 0ABB                             u4581 1616                             u3870 1299  
                           u3790 0AC3                             u4590 1623                             u4727 121B  
                           u3871 1298                             u4647 137F                             u3695 09F3  
                           u3935 0086                             u3791 0AC2                             u4591 1622  
                           u3880 12CD                             u3881 12CC                             u2985 069B  
                           u4657 138D                             u3945 00B4                             u3865 0B56  
                           u3890 0823                             u3970 0145                             u2995 06A4  
                           u3891 0822                             u4667 13A3                             u3971 0144  
                           u3955 00E2                             u3980 0150                             u4677 13AF  
                           u3981 014F                             u3965 011B                             u3990 0158  
                           u4687 13BD                             u3991 0157                             u4697 13CB  
                           _TMR0 0001                             _SPEN 00C7                             _TXIF 0064  
                           _R_nW 04A2                             _main 1585                             _menu 01DA  
                           _pos1 0061                             _pos2 00B8        login_screen@idle_prev_sec 00BE  
                           _pass 01E4                             _time 01B2                             btemp 007E  
                           _puts 1E97                             start 000C                  ___fldiv@new_exp 0040  
          main_menu@state_active 00B4                   clcd_write@byte 0075                   clcd_write@mode 0072  
                    _store_event 16F0                    _i2c_rep_start 1D21                            ??_isr 0070  
                   ?_init_ds1307 0070                    ___fltol@sign1 0050                            ?_main 0070  
                   ?_read_ds1307 0070                            _ACKEN 048C                            _ACKDT 048D  
                 ??_display_time 0077                  __end_of___fldiv 07B0                  __end_of___awdiv 1434  
                          STR_10 1185                            STR_11 1104                            STR_12 1175  
                          STR_20 10D1                            STR_13 1015                            STR_21 10AF  
                          STR_14 10F3                            STR_30 1000                            STR_22 1145  
                          STR_31 1010                            STR_23 1125                            STR_15 10E2  
                          STR_16 1165                            STR_32 1135                            STR_24 1115  
                          STR_33 1104                            STR_17 1155                            STR_25 109E  
                          STR_26 108D                            STR_34 107C                            STR_18 1037  
                          STR_27 1014                            STR_35 1025                            STR_19 10C0  
                          STR_36 10F3                            STR_28 106B                            STR_29 105A  
                          STR_37 1013                            STR_38 1049                  __end_of___fltol 1585  
                          ?_puts 0073                  __end_of___lldiv 149A                      i2c_read@ack 0072  
                ___awdiv@divisor 0072                  __end_of___lwdiv 1318                  __end_of___lwmod 1259  
                          i1l274 07F0                     ?_init_config 0070                  ___awdiv@counter 0020  
                          _RCREG 001A                  _change_pass$413 0026                  _change_pass$414 0028  
                _change_pass$416 002A                  _change_pass$417 002C                            _SPBRG 0099  
                          _PORTB 0006                            _PORTD 0008                            _SSPM3 00A3  
                          _TRISB 0086                            _TRISD 0088                            _SSPEN 00A5  
                          _TXREG 0019                     ?_init_timer0 0070                            _nDONE 00FA  
      write_external_eeprom@data 0073        write_external_eeprom@wait 0074                            _line1 01A1  
                          _line2 0190                            _event 01CA                     view_log@addr 0035  
                   view_log@flag 00DC                            _speed 00D4                     view_log@line 0023  
                          btemp0 007E                            btemp1 007F                            pclath 000A  
                          puts@s 0073                  __end_of_putchar 1D42                            status 0003  
                          wtemp0 007E                 init_ds1307@dummy 0024                  __initialization 000F  
                 ?_i2c_rep_start 0070           ?_write_external_eeprom 0073                     __end_of_main 163A  
                   __end_of_puts 1EBD                 __end_of_i2c_read 1E2E                 __end_of_i2c_stop 0800  
                         ??_main 0078                           ??_puts 0075                           _ADCON0 001F  
         ??_read_external_eeprom 0074                           _ADRESH 001E                           _ADRESL 009E  
               ___awdiv@dividend 0074             change_pass@prev_sec2 00A8                     i2c_read@data 0073  
                         i1l4181 07B5                           i1l4191 07DD                           i1l4183 07BA  
                         i1l4193 07E8                           i1l4185 07C2                           i1l4177 07B0  
                         i1l4195 07EA                           i1l4187 07CB                           i1l4179 07B4  
                         i1l4189 07DB                     _write_ds1307 1E2E                           u444_20 07B4  
                         u444_21 07B3                           u445_20 07CB                           u445_21 07CA  
                         u446_20 07E8                           u446_21 07E7          login_screen@user_active 00C2  
                 clear_log@delay 00AE                           _TMR0IE 005D                           _TMR0IF 005A  
                         _SSPADD 0093                           _TRISE1 0449                           _TRISE2 044A  
                         _SSPBUF 0013                 __end_of___xxtofl 16F0      __end_of_init_digital_keypad 1D09  
                  login_screen@i 0063                 __end_of_get_time 1E0D          _init_display_controller 136C  
                         ___wmul 1E72                        ??___fldiv 0036                        ??___awdiv 0076  
                      ??___fltol 004C                        ??___lldiv 0072                        ??___lwdiv 0076  
                      ??___lwmod 0076                 __end_of_down_log 0960                 __end_of_init_i2c 11EB  
               __end_of_init_adc 1D10                 __end_of_read_adc 1DCE                  set_time@rtc_sec 00A2  
               ___awdiv@quotient 0022                     main_menu@key 0026                     main_menu@sel 00D0  
             store_event@address 0028                 __end_of_set_time 0392                           ltemp0a 0080  
                         saved_w 007E                 __end_of_view_log 0C2D                           ttemp0a 007F  
                      ??_putchar 0072                           wtemp0a 007F                     ___xxtofl@arg 002A  
                   ___xxtofl@exp 0029                     ___xxtofl@val 0020          __end_of__initialization 0062  
           __end_of_display_time 136C                       ___fltol@f1 0048                  ??_i2c_rep_start 0072  
                  ?_login_screen 0070                   __pcstackCOMMON 0070                     __pidataBANK0 11A0  
                   __pidataBANK1 1D76                     __pidataBANK2 1E50                     __pidataBANK3 1DCE  
                store_event@time 0022                  change_pass@arr1 01C0                  change_pass@arr2 01BB  
              _clcd_clear_screen 0801                  change_pass@flag 00A4                __end_of_i2c_start 1D21  
              __end_of_i2c_write 1D37               ?_clcd_clear_screen 0070                _i2c_wait_for_idle 1D58  
            ??_clcd_clear_screen 0076               ?_i2c_wait_for_idle 0070                       __pbssBANK0 005B  
                     __pbssBANK1 00A0                       __pbssBANK3 0190                        ?_i2c_read 0070  
                      ?_i2c_stop 0070                     down_log@addr 0038                     down_log@line 0025  
                   down_log@once 00E7                   ??_login_screen 0024        ??_init_display_controller 0076  
                     _clcd_print 1F9A              ??_i2c_wait_for_idle 0072                       _clcd_putch 11A2  
                     _clcd_write 11EB     write_external_eeprom@address 0076                       __pmaintext 1585  
                read_ds1307@addr 0074                     ?_store_event 0020                  read_ds1307@data 0075  
                        ?___wmul 0072               main_menu@menu_once 00EA                       __pintentry 0004  
      __end_of_clcd_clear_screen 081C                          _ACKSTAT 048E      __end_of_read_digital_keypad 1F6A  
                      ?___xxtofl 0020        __end_of_i2c_wait_for_idle 1D65                     init_i2c@baud 0028  
                        _SSPCON2 0091                    _exit_down_log 00CD                        ?_get_time 0076  
                     __stringtab 1800                       ??_i2c_read 0072                        ?_down_log 0070  
              __end_of_dashboard 0DE1                       ??_i2c_stop 0072                        ?_init_i2c 0028  
                      ?_init_adc 0070                        ?_read_adc 0072                __end_of_clear_log 12D4  
        ??_write_external_eeprom 0074                    _exit_view_log 00CF                        ?_set_time 0070  
                        ___fldiv 05E6                          ___awdiv 13CF               login_screen@remain 002D  
                      ?_view_log 0070                          ___fltol 150F                          ___lldiv 1434  
                        _adc_val 00CA                          ___lwdiv 12D4                          ___lwmod 1221  
              __end_of_main_menu 0AB4                          __ptext1 0AB4                          __ptext2 0066  
                        __ptext3 1F3B                          __ptext4 0960                          __ptext5 13CF  
                        __ptext6 0392                          __ptext7 1259                          __ptext8 1FCD  
                        __ptext9 1D4D  __end_of_init_display_controller 13CF                __end_of_init_clcd 1D4D  
                     ??___xxtofl 0024                 set_time@prev_key 00E4                 set_time@prev_sec 00A0  
              __end_of_init_uart 2000                    ??_change_pass 0024                          _new_sec 00E0  
         login_screen@idle_count 00BA                          _putchar 1D37                          main@key 005A  
                        clrloop0 1D11                       ??_get_time 0077             end_of_initialization 0062  
                     ??_down_log 0023                      set_time@key 0030                      set_time@min 007A  
                    set_time@sec 0078                      set_time@pos 002E                       ??_init_i2c 002C  
                     ??_init_adc 0072                       ??_read_adc 0074              store_time@clock_reg 0073  
                    ?_clcd_print 0020                      ?_clcd_putch 0077                  ___lldiv@divisor 0020  
                    ?_clcd_write 0072                __end_of_my_strcmp 1EE5                __end_of_my_strcpy 1D76  
                ___lldiv@counter 0077                       ??_set_time 0024                       ??_view_log 0078  
                   __pstringtext 1000                  read_adc@channel 0077                view_log@read_addr 00B0  
                   _display_time 1318                    i2c_write@data 0072             __end_of_login_screen 05E6  
                  ___xxtofl@sign 0028                      ___fldiv@grs 0042                      ___fldiv@rem 003B  
                  clcd_print@str 0020              __end_of_change_pass 1000         read_external_eeprom@data 0075  
                     _store_time 149A                   __end_of___wmul 1E97                      view_log@key 0034  
               store_event@event 0020                 store_event@speed 0023              start_initialization 000F  
           main_menu@user_active 00B2                        _i2c_start 1D18                      __end_of_isr 07F7  
                      _i2c_write 1D2C                 change_pass@once1 00E6                 change_pass@once2 00E5  
               main_menu@display 00B6              change_pass@res_time 00A6              change_pass@prev_key 006A  
            change_pass@prev_sec 00AA                    clear_log@once 00E8                      putchar@data 0072  
               login_screen@flag 00BC            __end_of_i2c_rep_start 1D2C                         ??___wmul 0076  
                     init_fetch0 1D88                    ??_init_ds1307 0078                      __pdataBANK0 006D  
                    __pdataBANK1 00DA                      __pdataBANK2 0110                      __pdataBANK3 01CA  
                  ??_read_ds1307 0074                    ??_init_config 0078                        ___fldiv@a 002E  
                      ___fldiv@b 0032                    ??_init_timer0 0072                      __pbssCOMMON 0078  
                      ___latbits 0002                      _change_pass 0DE1                    __pcstackBANK0 0020  
                     ?_i2c_start 0070                       ?_i2c_write 0070             login_screen@prev_sec 00C0  
                  down_log@delay 00AC                   change_pass@key 002E                   change_pass@str 0110  
                   change_pass@i 005F                     change_pass@j 005D                        _dashboard 0C2D  
               ___lwdiv@dividend 0074    __end_of_write_external_eeprom 1F9A                        _clear_log 1292  
                    ?_store_time 0072                   store_time@time 0072                         ?___fldiv 002E  
                       ?___awdiv 0072                         ?___fltol 0048                         ?___lldiv 0020  
                       ?___lwdiv 0072                        _clock_reg 00D7                         ?___lwmod 0072  
                   _exit_ch_pass 00CC                        __pstrings 1800                        _main_menu 0960  
            __end_of_init_ds1307 1DAF              read_adc@adc_reg_val 0075              __end_of_read_ds1307 1F10  
               ___lwdiv@quotient 0020                         ?_putchar 0070                        _init_clcd 1D42  
            __end_of_init_config 1292                        _init_uart 1FCD                 _login_screen$252 0027  
               _login_screen$253 0029                    ?_write_ds1307 0077              __end_of_init_timer0 1D58  
       ?_init_display_controller 0070                   _exit_clear_log 00CE                interrupt_function 0004  
                 ___wmul@product 0076      read_external_eeprom@address 0074                        clear_ram0 1D10  
                     set_time@hr 005B                     ??_clcd_print 0076                     ??_clcd_putch 0078  
                   ??_clcd_write 0073                       ?_dashboard 0070                     _login_screen 0392  
                     ?_clear_log 0070                        _operation 006B                        _my_strcmp 1EBD  
                      _my_strcpy 1D65                     dashboard@key 0059                      __stringbase 1812  
              ___wmul@multiplier 0072                       ?_main_menu 0070                        _user_pass 01C5  
                    ??_i2c_start 0072               __end_of_clcd_print 1FCD                      ??_i2c_write 0072  
             __end_of_clcd_putch 11B7               __end_of_clcd_write 1221                       ?_init_clcd 0070  
                     ?_init_uart 0028                   ??_write_ds1307 0078              _init_digital_keypad 1D03  
                       _i2c_read 1E0D                         _i2c_stop 07F7                        down_log@i 0036  
              get_time@clock_reg 0076                    set_time@field 0069                  login_screen@key 002F  
    login_screen@block_start_sec 00C4                  login_screen@str 0121              login_screen@elapsed 002B  
            login_screen@attempt 00DE                       ?_my_strcmp 0072                       ?_my_strcpy 0072  
   __end_of_read_external_eeprom 1F3B             ?_init_digital_keypad 0070                      _init_ds1307 1D9B  
                    _event_count 006C               __end_of__stringtab 1812                      _read_ds1307 1EE5  
                    _init_config 1259                         ___xxtofl 163A                      _init_timer0 1D4D  
                ___lwdiv@divisor 0072                  ___lwdiv@counter 0022                         __ptext10 11B7  
                       __ptext11 1434                         __ptext20 1E97                         __ptext12 1D9B  
                       __ptext21 1D37                         __ptext13 1E2E                         __ptext30 1D2C  
                       __ptext22 1E72                         __ptext14 1D03                         __ptext31 1D21  
                       __ptext23 0C2D                         __ptext15 1D42                         __ptext40 12D4  
                       __ptext32 07F7                         __ptext24 149A                         __ptext16 136C  
                       __ptext41 150F                         __ptext33 1D18                         __ptext25 16F0  
                       __ptext17 1D09                         __ptext50 07B0                         __ptext42 05E6  
                       __ptext34 1E0D                         __ptext26 1F6A                         __ptext18 081C  
                       __ptext43 1292                         __ptext35 1D58                         __ptext27 1DAF  
                       __ptext19 1F10                         __ptext44 0DE1                         __ptext36 1318  
                       __ptext28 1DED                         __ptext45 1D65                         __ptext37 0801  
                       __ptext29 1EE5                         __ptext46 1EBD                         __ptext38 163A  
                       __ptext47 11A2                         __ptext39 1221                         __ptext48 1F9A  
                       __ptext49 11EB                         _get_time 1DED                         _down_log 081C  
                       _init_i2c 11B7                         _init_adc 1D09                         _read_adc 1DAF  
        read_digital_keypad@mode 0073          read_digital_keypad@once 00EB                      ??_dashboard 0052  
          display_time@clock_reg 0076                      ??_clear_log 0076                    ??_store_event 0024  
                       _set_time 0066                         _prev_pos 00E2                     _set_time$433 002F  
                   _set_time$436 0028                     _set_time$437 002A                     _set_time$438 002C  
                       _view_log 0AB4            ??_init_digital_keypad 0072                      ??_main_menu 0024  
                   ?_change_pass 0070                         isr@count 00C6                   main_menu@state 006D  
                   set_time@once 00DA                     set_time@time 00D1                         init_ram0 1D8C  
                    ??_init_clcd 0078                   _log_write_addr 00C8                      ??_init_uart 002C  
                       intlevel1 0000                    init_uart@baud 0028                 ___lwmod@dividend 0074  
               ___lldiv@dividend 0024                        stringcode 180A                     ??_store_time 0074  
                    ??_my_strcmp 0074                      ??_my_strcpy 0074             __end_of_write_ds1307 1E50  
            _read_digital_keypad 1F3B              __end_of_store_event 1800                 ___lldiv@quotient 0073  
                ___lwmod@divisor 0072                  ___lwmod@counter 0076                         stringtab 1800  
             __end_of_store_time 150F             ?_read_digital_keypad 0070                 write_ds1307@addr 0023  
               write_ds1307@data 0077             _read_external_eeprom 1F10  
